---
triple:          'arm64-apple-darwin'
binary-path:     '/Users/mcieslak/projects/rust/trx-rs/target/debug/deps/lib_core.dylib'
relocations:
  - { offset: 0x1E, size: 0x8, addend: 0x0, symName: __ZN4core9ub_checks23maybe_is_nonoverlapping7runtime17hee5ceec38be6bc59E, symObjAddr: 0x0, symBinAddr: 0x878, symSize: 0xD8 }
  - { offset: 0x1A3, size: 0x8, addend: 0x0, symName: __ZN4core9ub_checks23maybe_is_nonoverlapping7runtime17hee5ceec38be6bc59E, symObjAddr: 0x0, symBinAddr: 0x878, symSize: 0xD8 }
  - { offset: 0x3B6, size: 0x8, addend: 0x0, symName: '__ZN4pyo35types5float64_$LT$impl$u20$pyo3..conversion..IntoPyObject$u20$for$u20$f64$GT$13into_pyobject17hb61e6df2d38ea640E', symObjAddr: 0x0, symBinAddr: 0x950, symSize: 0x20 }
  - { offset: 0x43E, size: 0x8, addend: 0x0, symName: '__ZN4pyo35types5float64_$LT$impl$u20$pyo3..conversion..IntoPyObject$u20$for$u20$f64$GT$13into_pyobject17hb61e6df2d38ea640E', symObjAddr: 0x0, symBinAddr: 0x950, symSize: 0x20 }
  - { offset: 0x7A1, size: 0x8, addend: 0x0, symName: __ZN8bytemuck10cast_slice17h089a605c7404541dE, symObjAddr: 0x0, symBinAddr: 0x970, symSize: 0x28 }
  - { offset: 0x7B3, size: 0x8, addend: 0x0, symName: __ZN8bytemuck10cast_slice17h089a605c7404541dE, symObjAddr: 0x0, symBinAddr: 0x970, symSize: 0x28 }
  - { offset: 0x7F3, size: 0x8, addend: 0x0, symName: __ZN8bytemuck10cast_slice17h55ee28c0365a807dE, symObjAddr: 0x28, symBinAddr: 0x998, symSize: 0x28 }
  - { offset: 0x833, size: 0x8, addend: 0x0, symName: __ZN8bytemuck10cast_slice17h8d131b7d5fd26d44E, symObjAddr: 0x50, symBinAddr: 0x9C0, symSize: 0x28 }
  - { offset: 0x873, size: 0x8, addend: 0x0, symName: __ZN8bytemuck10cast_slice17hcf38c07b8988aaaeE, symObjAddr: 0x78, symBinAddr: 0x9E8, symSize: 0x28 }
  - { offset: 0xA83, size: 0x8, addend: 0x0, symName: '__ZN4core5slice29_$LT$impl$u20$$u5b$T$u5d$$GT$18split_at_unchecked18precondition_check17h7e745972fe3f27c7E', symObjAddr: 0x0, symBinAddr: 0xA10, symSize: 0x60 }
  - { offset: 0xAA4, size: 0x8, addend: 0x0, symName: '__ZN4core5slice29_$LT$impl$u20$$u5b$T$u5d$$GT$18split_at_unchecked18precondition_check17h7e745972fe3f27c7E', symObjAddr: 0x0, symBinAddr: 0xA10, symSize: 0x60 }
  - { offset: 0xAFD, size: 0x8, addend: 0x0, symName: '__ZN4core5slice29_$LT$impl$u20$$u5b$T$u5d$$GT$22split_at_mut_unchecked18precondition_check17h4d7e8651f2c82685E', symObjAddr: 0x60, symBinAddr: 0xA70, symSize: 0x60 }
  - { offset: 0xBA7, size: 0x8, addend: 0x0, symName: '__ZN47_$LT$T$u20$as$u20$pyo3..err..PyErrArguments$GT$9arguments17hdb555e0765902fb7E', symObjAddr: 0x0, symBinAddr: 0xAD0, symSize: 0x34 }
  - { offset: 0xC0F, size: 0x8, addend: 0x0, symName: '__ZN4pyo33err5PyErr3new28_$u7b$$u7b$closure$u7d$$u7d$17h1c653008e63e1f02E', symObjAddr: 0x1E0, symBinAddr: 0xCB0, symSize: 0xD4 }
  - { offset: 0xC68, size: 0x8, addend: 0x0, symName: '__ZN4pyo33err5PyErr3new28_$u7b$$u7b$closure$u7d$$u7d$17h33442904431b3b08E', symObjAddr: 0x2B4, symBinAddr: 0xD84, symSize: 0xB0 }
  - { offset: 0xCC0, size: 0x8, addend: 0x0, symName: '__ZN4pyo33err5PyErr3new28_$u7b$$u7b$closure$u7d$$u7d$17hda8a2bf21b7cd3b9E', symObjAddr: 0x364, symBinAddr: 0xE34, symSize: 0xD4 }
  - { offset: 0xD20, size: 0x8, addend: 0x0, symName: '__ZN47_$LT$T$u20$as$u20$pyo3..err..PyErrArguments$GT$9arguments17hdb555e0765902fb7E', symObjAddr: 0x0, symBinAddr: 0xAD0, symSize: 0x34 }
  - { offset: 0x1988, size: 0x8, addend: 0x0, symName: __ZN4pyo33err5PyErr3new17h2836dabd19ae9bc1E, symObjAddr: 0x34, symBinAddr: 0xB04, symSize: 0xA0 }
  - { offset: 0x19E7, size: 0x8, addend: 0x0, symName: __ZN4pyo33err5PyErr3new17h9453c97dfcfabe37E, symObjAddr: 0xD4, symBinAddr: 0xBA4, symSize: 0xA0 }
  - { offset: 0x1A46, size: 0x8, addend: 0x0, symName: __ZN4pyo33err5PyErr3new17h9a49882d5310e2e0E, symObjAddr: 0x174, symBinAddr: 0xC44, symSize: 0x6C }
  - { offset: 0x1AE4, size: 0x8, addend: 0x0, symName: __ZN4core4sync6atomic11AtomicUsize3new17he812ea556d04db23E, symObjAddr: 0x0, symBinAddr: 0xF08, symSize: 0x18 }
  - { offset: 0x1B59, size: 0x8, addend: 0x0, symName: __ZN4core4sync6atomic11AtomicUsize3new17he812ea556d04db23E, symObjAddr: 0x0, symBinAddr: 0xF08, symSize: 0x18 }
  - { offset: 0x1B9A, size: 0x8, addend: 0x0, symName: __ZN4core3cmp9PartialEq2ne17h7004beba2df09d71E, symObjAddr: 0x0, symBinAddr: 0xF20, symSize: 0x30 }
  - { offset: 0x1BC9, size: 0x8, addend: 0x0, symName: __ZN7ndarray9dimension15can_index_slice17h154731671212e499E, symObjAddr: 0x30, symBinAddr: 0xF50, symSize: 0xBC }
  - { offset: 0x1C72, size: 0x8, addend: 0x0, symName: __ZN7ndarray9dimension15can_index_slice17h20caac20b00a3730E, symObjAddr: 0xEC, symBinAddr: 0x100C, symSize: 0xBC }
  - { offset: 0x1D1B, size: 0x8, addend: 0x0, symName: __ZN7ndarray9dimension15can_index_slice17h3e8c3f2fab97f2cdE, symObjAddr: 0x1A8, symBinAddr: 0x10C8, symSize: 0xBC }
  - { offset: 0x1DC4, size: 0x8, addend: 0x0, symName: __ZN7ndarray9dimension15can_index_slice17h4ff8758af8d5cc02E, symObjAddr: 0x264, symBinAddr: 0x1184, symSize: 0xBC }
  - { offset: 0x1E6D, size: 0x8, addend: 0x0, symName: __ZN7ndarray9dimension15can_index_slice17h516d4d91a3699c40E, symObjAddr: 0x320, symBinAddr: 0x1240, symSize: 0xBC }
  - { offset: 0x1F16, size: 0x8, addend: 0x0, symName: __ZN7ndarray9dimension15can_index_slice17h53019721c7fb4c82E, symObjAddr: 0x3DC, symBinAddr: 0x12FC, symSize: 0xBC }
  - { offset: 0x1FBF, size: 0x8, addend: 0x0, symName: __ZN7ndarray9dimension15can_index_slice17h70d1eeb1328b4e6cE, symObjAddr: 0x498, symBinAddr: 0x13B8, symSize: 0xBC }
  - { offset: 0x2068, size: 0x8, addend: 0x0, symName: __ZN7ndarray9dimension15can_index_slice17ha1e149ded9e8db71E, symObjAddr: 0x554, symBinAddr: 0x1474, symSize: 0xBC }
  - { offset: 0x2111, size: 0x8, addend: 0x0, symName: __ZN7ndarray9dimension15can_index_slice17hc7108da3391ba1e2E, symObjAddr: 0x610, symBinAddr: 0x1530, symSize: 0xBC }
  - { offset: 0x21BA, size: 0x8, addend: 0x0, symName: __ZN7ndarray9dimension15can_index_slice17hf7d84b3947fcd37fE, symObjAddr: 0x6CC, symBinAddr: 0x15EC, symSize: 0xBC }
  - { offset: 0x22D8, size: 0x8, addend: 0x0, symName: __ZN7ndarray9dimension18dim_stride_overlap17h71a5223ec9e7b3beE, symObjAddr: 0x788, symBinAddr: 0x16A8, symSize: 0x2D8 }
  - { offset: 0x2425, size: 0x8, addend: 0x0, symName: __ZN7ndarray9dimension20can_index_slice_impl17h58bf3a07c798bd3eE, symObjAddr: 0xA60, symBinAddr: 0x1980, symSize: 0x11C }
  - { offset: 0x24B3, size: 0x8, addend: 0x0, symName: '__ZN7ndarray9dimension20can_index_slice_impl28_$u7b$$u7b$closure$u7d$$u7d$17hbbd47f015c7497a4E', symObjAddr: 0xB7C, symBinAddr: 0x1A9C, symSize: 0x28 }
  - { offset: 0x2517, size: 0x8, addend: 0x0, symName: __ZN7ndarray9dimension21size_of_shape_checked17h9a47af02a6af10f8E, symObjAddr: 0xBA4, symBinAddr: 0x1AC4, symSize: 0xDC }
  - { offset: 0x258B, size: 0x8, addend: 0x0, symName: '__ZN7ndarray9dimension21size_of_shape_checked28_$u7b$$u7b$closure$u7d$$u7d$17h0313d85cb369c453E', symObjAddr: 0xC80, symBinAddr: 0x1BA0, symSize: 0x2C }
  - { offset: 0x25E3, size: 0x8, addend: 0x0, symName: '__ZN7ndarray9dimension21size_of_shape_checked28_$u7b$$u7b$closure$u7d$$u7d$17h25b0839e696c70f7E', symObjAddr: 0xCAC, symBinAddr: 0x1BCC, symSize: 0x18 }
  - { offset: 0x2614, size: 0x8, addend: 0x0, symName: '__ZN7ndarray9dimension21size_of_shape_checked28_$u7b$$u7b$closure$u7d$$u7d$17h2f11ea3860001fbdE', symObjAddr: 0xCC4, symBinAddr: 0x1BE4, symSize: 0x3C }
  - { offset: 0x2690, size: 0x8, addend: 0x0, symName: __ZN7ndarray9dimension26can_index_slice_not_custom17hffe37eb71aa1f30bE, symObjAddr: 0xD00, symBinAddr: 0x1C20, symSize: 0xA4 }
  - { offset: 0x2705, size: 0x8, addend: 0x0, symName: __ZN7ndarray9dimension28can_index_slice_with_strides17h1ffc16b3b285033eE, symObjAddr: 0xDA4, symBinAddr: 0x1CC4, symSize: 0x98 }
  - { offset: 0x278A, size: 0x8, addend: 0x0, symName: __ZN7ndarray9dimension28can_index_slice_with_strides17h377635e7ac8140f3E, symObjAddr: 0xE3C, symBinAddr: 0x1D5C, symSize: 0x98 }
  - { offset: 0x280F, size: 0x8, addend: 0x0, symName: __ZN7ndarray9dimension28can_index_slice_with_strides17h3c68b9f3c5c21fc5E, symObjAddr: 0xED4, symBinAddr: 0x1DF4, symSize: 0x98 }
  - { offset: 0x2894, size: 0x8, addend: 0x0, symName: __ZN7ndarray9dimension28can_index_slice_with_strides17h3d1fb1dd054e4782E, symObjAddr: 0xF6C, symBinAddr: 0x1E8C, symSize: 0x98 }
  - { offset: 0x2919, size: 0x8, addend: 0x0, symName: __ZN7ndarray9dimension28can_index_slice_with_strides17h4344e81133335f6eE, symObjAddr: 0x1004, symBinAddr: 0x1F24, symSize: 0x98 }
  - { offset: 0x299E, size: 0x8, addend: 0x0, symName: __ZN7ndarray9dimension28can_index_slice_with_strides17h8188e09a0764a588E, symObjAddr: 0x109C, symBinAddr: 0x1FBC, symSize: 0x98 }
  - { offset: 0x2A23, size: 0x8, addend: 0x0, symName: __ZN7ndarray9dimension28can_index_slice_with_strides17h99b39440ade8b187E, symObjAddr: 0x1134, symBinAddr: 0x2054, symSize: 0x98 }
  - { offset: 0x2AA8, size: 0x8, addend: 0x0, symName: __ZN7ndarray9dimension28can_index_slice_with_strides17ha95126576c35caa4E, symObjAddr: 0x11CC, symBinAddr: 0x20EC, symSize: 0x98 }
  - { offset: 0x2B2D, size: 0x8, addend: 0x0, symName: __ZN7ndarray9dimension28can_index_slice_with_strides17hd16bae9dc7abf039E, symObjAddr: 0x1264, symBinAddr: 0x2184, symSize: 0x98 }
  - { offset: 0x2BB2, size: 0x8, addend: 0x0, symName: __ZN7ndarray9dimension28can_index_slice_with_strides17hed7f24a1cca172a7E, symObjAddr: 0x12FC, symBinAddr: 0x221C, symSize: 0x98 }
  - { offset: 0x2C37, size: 0x8, addend: 0x0, symName: __ZN7ndarray9dimension29max_abs_offset_check_overflow17h6a6e38a11d4c7f75E, symObjAddr: 0x1394, symBinAddr: 0x22B4, symSize: 0x40 }
  - { offset: 0x2C83, size: 0x8, addend: 0x0, symName: __ZN7ndarray9dimension29max_abs_offset_check_overflow17h7b023415add9e879E, symObjAddr: 0x13D4, symBinAddr: 0x22F4, symSize: 0x40 }
  - { offset: 0x2CCF, size: 0x8, addend: 0x0, symName: __ZN7ndarray9dimension29max_abs_offset_check_overflow17h86112b6080148a4eE, symObjAddr: 0x1414, symBinAddr: 0x2334, symSize: 0x40 }
  - { offset: 0x2D1B, size: 0x8, addend: 0x0, symName: __ZN7ndarray9dimension29max_abs_offset_check_overflow17h920e0a9caa037d60E, symObjAddr: 0x1454, symBinAddr: 0x2374, symSize: 0x40 }
  - { offset: 0x2D67, size: 0x8, addend: 0x0, symName: __ZN7ndarray9dimension29max_abs_offset_check_overflow17h93a3e375d6b3cd09E, symObjAddr: 0x1494, symBinAddr: 0x23B4, symSize: 0x40 }
  - { offset: 0x2DB3, size: 0x8, addend: 0x0, symName: __ZN7ndarray9dimension29max_abs_offset_check_overflow17h947346eaeb1e85c0E, symObjAddr: 0x14D4, symBinAddr: 0x23F4, symSize: 0x40 }
  - { offset: 0x2DFF, size: 0x8, addend: 0x0, symName: __ZN7ndarray9dimension29max_abs_offset_check_overflow17h9bc3d70770066e2cE, symObjAddr: 0x1514, symBinAddr: 0x2434, symSize: 0x40 }
  - { offset: 0x2E4B, size: 0x8, addend: 0x0, symName: __ZN7ndarray9dimension29max_abs_offset_check_overflow17hac0f59a823345ab4E, symObjAddr: 0x1554, symBinAddr: 0x2474, symSize: 0x40 }
  - { offset: 0x2E97, size: 0x8, addend: 0x0, symName: __ZN7ndarray9dimension29max_abs_offset_check_overflow17hcbb39009f95b8b21E, symObjAddr: 0x1594, symBinAddr: 0x24B4, symSize: 0x40 }
  - { offset: 0x2EE3, size: 0x8, addend: 0x0, symName: __ZN7ndarray9dimension29max_abs_offset_check_overflow17he48d3bd7a0eb85a7E, symObjAddr: 0x15D4, symBinAddr: 0x24F4, symSize: 0x40 }
  - { offset: 0x2F2F, size: 0x8, addend: 0x0, symName: __ZN7ndarray9dimension34max_abs_offset_check_overflow_impl17h9a62eb1dee873b38E, symObjAddr: 0x1614, symBinAddr: 0x2534, symSize: 0x22C }
  - { offset: 0x3007, size: 0x8, addend: 0x0, symName: '__ZN7ndarray9dimension34max_abs_offset_check_overflow_impl28_$u7b$$u7b$closure$u7d$$u7d$17h18f6b5a70de53572E', symObjAddr: 0x1840, symBinAddr: 0x2760, symSize: 0x18 }
  - { offset: 0x3038, size: 0x8, addend: 0x0, symName: '__ZN7ndarray9dimension34max_abs_offset_check_overflow_impl28_$u7b$$u7b$closure$u7d$$u7d$17h59cbcfd77e5a8f4fE', symObjAddr: 0x1858, symBinAddr: 0x2778, symSize: 0x18 }
  - { offset: 0x3069, size: 0x8, addend: 0x0, symName: '__ZN7ndarray9dimension34max_abs_offset_check_overflow_impl28_$u7b$$u7b$closure$u7d$$u7d$17h83996ed4599500abE', symObjAddr: 0x1870, symBinAddr: 0x2790, symSize: 0xD0 }
  - { offset: 0x3171, size: 0x8, addend: 0x0, symName: __ZN7ndarray9dimension39offset_from_low_addr_ptr_to_logical_ptr17hf863062bbeb58397E, symObjAddr: 0x1940, symBinAddr: 0x2860, symSize: 0x9C }
  - { offset: 0x31DA, size: 0x8, addend: 0x0, symName: '__ZN7ndarray9dimension39offset_from_low_addr_ptr_to_logical_ptr28_$u7b$$u7b$closure$u7d$$u7d$17h1bc4c49cad2f0fdeE', symObjAddr: 0x19DC, symBinAddr: 0x28FC, symSize: 0xFC }
  - { offset: 0x3356, size: 0x8, addend: 0x0, symName: __ZN4core3cmp9PartialEq2ne17h7004beba2df09d71E, symObjAddr: 0x0, symBinAddr: 0xF20, symSize: 0x30 }
  - { offset: 0x398F, size: 0x8, addend: 0x0, symName: '__ZN96_$LT$pyo3..pycell..impl_..BorrowChecker$u20$as$u20$pyo3..pycell..impl_..PyClassBorrowChecker$GT$3new17h02270c10a23c7a81E', symObjAddr: 0x0, symBinAddr: 0x29F8, symSize: 0x40 }
  - { offset: 0x39B0, size: 0x8, addend: 0x0, symName: '__ZN96_$LT$pyo3..pycell..impl_..BorrowChecker$u20$as$u20$pyo3..pycell..impl_..PyClassBorrowChecker$GT$3new17h02270c10a23c7a81E', symObjAddr: 0x0, symBinAddr: 0x29F8, symSize: 0x40 }
  - { offset: 0x3A6B, size: 0x8, addend: 0x0, symName: __ZN4pyo310exceptions10PyKeyError7new_err17h618b6f8a2b18c52dE, symObjAddr: 0x0, symBinAddr: 0x2A38, symSize: 0x34 }
  - { offset: 0x3BA1, size: 0x8, addend: 0x0, symName: '__ZN78_$LT$pyo3..exceptions..PyKeyError$u20$as$u20$pyo3..type_object..PyTypeInfo$GT$15type_object_raw28_$u7b$$u7b$closure$u7d$$u7d$17hf344afc23de95144E', symObjAddr: 0xB4, symBinAddr: 0x2AEC, symSize: 0x4C }
  - { offset: 0x3DD5, size: 0x8, addend: 0x0, symName: __ZN4pyo311type_object10PyTypeInfo11type_object17h6a8f630eb8f3ddbfE, symObjAddr: 0x84, symBinAddr: 0x2ABC, symSize: 0x30 }
  - { offset: 0x45D3, size: 0x8, addend: 0x0, symName: __ZN4pyo310exceptions10PyKeyError7new_err17h618b6f8a2b18c52dE, symObjAddr: 0x0, symBinAddr: 0x2A38, symSize: 0x34 }
  - { offset: 0x45FF, size: 0x8, addend: 0x0, symName: __ZN4pyo310exceptions15PyOverflowError7new_err17h1b0b736e7c60b78fE, symObjAddr: 0x34, symBinAddr: 0x2A6C, symSize: 0x1C }
  - { offset: 0x462A, size: 0x8, addend: 0x0, symName: __ZN4pyo310exceptions19PyFileNotFoundError7new_err17hc02239ce41ea75c6E, symObjAddr: 0x50, symBinAddr: 0x2A88, symSize: 0x34 }
  - { offset: 0x46B9, size: 0x8, addend: 0x0, symName: '__ZN45_$LT$T$u20$as$u20$alloc..string..ToString$GT$9to_string17h7728cdd7f84b65ecE', symObjAddr: 0x0, symBinAddr: 0x2B38, symSize: 0x24 }
  - { offset: 0x4708, size: 0x8, addend: 0x0, symName: '__ZN45_$LT$T$u20$as$u20$alloc..string..ToString$GT$9to_string17h7728cdd7f84b65ecE', symObjAddr: 0x0, symBinAddr: 0x2B38, symSize: 0x24 }
  - { offset: 0x4745, size: 0x8, addend: 0x0, symName: '__ZN49_$LT$T$u20$as$u20$alloc..string..SpecToString$GT$14spec_to_string17h14831f1c99880581E', symObjAddr: 0x24, symBinAddr: 0x2B5C, symSize: 0xF4 }
  - { offset: 0x4F24, size: 0x8, addend: 0x0, symName: '__ZN57_$LT$T$u20$as$u20$pyo3..conversion..FromPyObjectBound$GT$20from_py_object_bound17hc79bc375f5d5e7aaE', symObjAddr: 0x118, symBinAddr: 0x2C50, symSize: 0x34 }
  - { offset: 0x4F6C, size: 0x8, addend: 0x0, symName: '__ZN71_$LT$T$u20$as$u20$pyo3..impl_..extract_argument..PyFunctionArgument$GT$7extract17h6ceec6bed1b4b7f9E', symObjAddr: 0x14C, symBinAddr: 0x2C84, symSize: 0x28 }
  - { offset: 0x561E, size: 0x8, addend: 0x0, symName: '__ZN45_$LT$T$u20$as$u20$alloc..string..ToString$GT$9to_string17h60fb1f6ae83f082cE', symObjAddr: 0x0, symBinAddr: 0x2CAC, symSize: 0x24 }
  - { offset: 0x567A, size: 0x8, addend: 0x0, symName: '__ZN45_$LT$T$u20$as$u20$alloc..string..ToString$GT$9to_string17h60fb1f6ae83f082cE', symObjAddr: 0x0, symBinAddr: 0x2CAC, symSize: 0x24 }
  - { offset: 0x56B7, size: 0x8, addend: 0x0, symName: '__ZN49_$LT$T$u20$as$u20$alloc..string..SpecToString$GT$14spec_to_string17h92cf6dcd03af4201E', symObjAddr: 0x24, symBinAddr: 0x2CD0, symSize: 0xF4 }
  - { offset: 0x6268, size: 0x8, addend: 0x0, symName: '__ZN118_$LT$pyo3..impl_..pyclass..SendablePyClass$LT$T$GT$$u20$as$u20$pyo3..impl_..pyclass..PyClassThreadChecker$LT$T$GT$$GT$3new17hf82e0d52db57347aE', symObjAddr: 0x0, symBinAddr: 0x2DC4, symSize: 0x4 }
  - { offset: 0x6BE5, size: 0x8, addend: 0x0, symName: '__ZN118_$LT$pyo3..impl_..pyclass..SendablePyClass$LT$T$GT$$u20$as$u20$pyo3..impl_..pyclass..PyClassThreadChecker$LT$T$GT$$GT$3new17hf82e0d52db57347aE', symObjAddr: 0x0, symBinAddr: 0x2DC4, symSize: 0x4 }
  - { offset: 0x6C09, size: 0x8, addend: 0x0, symName: '__ZN118_$LT$pyo3..impl_..pyclass..SendablePyClass$LT$T$GT$$u20$as$u20$pyo3..impl_..pyclass..PyClassThreadChecker$LT$T$GT$$GT$6ensure17h425ffd728b34de62E', symObjAddr: 0x4, symBinAddr: 0x2DC8, symSize: 0x10 }
  - { offset: 0x6C3C, size: 0x8, addend: 0x0, symName: '__ZN118_$LT$pyo3..impl_..pyclass..SendablePyClass$LT$T$GT$$u20$as$u20$pyo3..impl_..pyclass..PyClassThreadChecker$LT$T$GT$$GT$8can_drop17he21a201d9dac9387E', symObjAddr: 0x14, symBinAddr: 0x2DD8, symSize: 0x18 }
  - { offset: 0x6C94, size: 0x8, addend: 0x0, symName: '__ZN130_$LT$$RF$pyo3..impl_..pyclass..PyClassImplCollector$LT$T$GT$$u20$as$u20$pyo3..impl_..pyclass..PyClassNewTextSignature$LT$T$GT$$GT$18new_text_signature17hc33b6e476f9b1987E', symObjAddr: 0x2C, symBinAddr: 0x2DF0, symSize: 0x14 }
  - { offset: 0x6CCC, size: 0x8, addend: 0x0, symName: __ZN4pyo35impl_7pyclass10tp_dealloc17h45109cb73a9e5eb0E, symObjAddr: 0x40, symBinAddr: 0x2E04, symSize: 0x34 }
  - { offset: 0x6CFF, size: 0x8, addend: 0x0, symName: __ZN4pyo35impl_7pyclass18tp_dealloc_with_gc17h466e22e1c1d8fa75E, symObjAddr: 0x74, symBinAddr: 0x2E38, symSize: 0x4C }
  - { offset: 0x7807, size: 0x8, addend: 0x0, symName: '__ZN4pyo35impl_7pyclass29PyClassImplCollector$LT$T$GT$3new17hc6ca3a09c50ac4b6E', symObjAddr: 0xC0, symBinAddr: 0x2E84, symSize: 0x4 }
  - { offset: 0x78BB, size: 0x8, addend: 0x0, symName: '__ZN108_$LT$core..iter..adapters..filter..Filter$LT$I$C$P$GT$$u20$as$u20$core..iter..traits..iterator..Iterator$GT$8try_fold17h6b7c17904a44de19E', symObjAddr: 0x0, symBinAddr: 0x2E88, symSize: 0x34 }
  - { offset: 0x78E1, size: 0x8, addend: 0x0, symName: '__ZN108_$LT$core..iter..adapters..filter..Filter$LT$I$C$P$GT$$u20$as$u20$core..iter..traits..iterator..Iterator$GT$8try_fold17h6b7c17904a44de19E', symObjAddr: 0x0, symBinAddr: 0x2E88, symSize: 0x34 }
  - { offset: 0x795C, size: 0x8, addend: 0x0, symName: '__ZN4core4iter8adapters6filter15filter_try_fold28_$u7b$$u7b$closure$u7d$$u7d$17h9e658818f8ad4502E', symObjAddr: 0x34, symBinAddr: 0x2EBC, symSize: 0x108 }
  - { offset: 0x7B8A, size: 0x8, addend: 0x0, symName: __ZN4core5slice4sort6stable5drift10create_run17h6f6eb682c5d92692E, symObjAddr: 0x0, symBinAddr: 0x2FC4, symSize: 0x400 }
  - { offset: 0x80CB, size: 0x8, addend: 0x0, symName: __ZN4core5slice4sort6stable5drift10create_run17h6f6eb682c5d92692E, symObjAddr: 0x0, symBinAddr: 0x2FC4, symSize: 0x400 }
  - { offset: 0x85DA, size: 0x8, addend: 0x0, symName: __ZN4core5slice4sort6stable5drift16stable_quicksort17h2263ed09a8ce3c1eE, symObjAddr: 0x400, symBinAddr: 0x33C4, symSize: 0xB4 }
  - { offset: 0x87FF, size: 0x8, addend: 0x0, symName: __ZN4core5slice4sort6stable5drift4sort17h970be3ad34372942E, symObjAddr: 0x4B4, symBinAddr: 0x3478, symSize: 0x634 }
  - { offset: 0x9A6C, size: 0x8, addend: 0x0, symName: '__ZN99_$LT$hashbrown..raw..RawIntoIter$LT$T$C$A$GT$$u20$as$u20$core..iter..traits..iterator..Iterator$GT$4next17h8ccbf8ddcf6d529eE', symObjAddr: 0x0, symBinAddr: 0x3AAC, symSize: 0x100 }
  - { offset: 0x9A9B, size: 0x8, addend: 0x0, symName: '__ZN9hashbrown3raw21RawTable$LT$T$C$A$GT$14reserve_rehash28_$u7b$$u7b$closure$u7d$$u7d$17h18afc46838272cfbE', symObjAddr: 0xF00, symBinAddr: 0x4208, symSize: 0xC0 }
  - { offset: 0x9C79, size: 0x8, addend: 0x0, symName: '__ZN9hashbrown3raw21RawTable$LT$T$C$A$GT$14reserve_rehash28_$u7b$$u7b$closure$u7d$$u7d$17he1a8537690381028E', symObjAddr: 0xFC0, symBinAddr: 0x42C8, symSize: 0x30 }
  - { offset: 0x9CD6, size: 0x8, addend: 0x0, symName: '__ZN9hashbrown3raw21RawTable$LT$T$C$A$GT$25find_or_find_insert_index28_$u7b$$u7b$closure$u7d$$u7d$17h7e4740249cd14377E', symObjAddr: 0x1368, symBinAddr: 0x4670, symSize: 0xC4 }
  - { offset: 0xA63B, size: 0x8, addend: 0x0, symName: '__ZN99_$LT$hashbrown..raw..RawIntoIter$LT$T$C$A$GT$$u20$as$u20$core..iter..traits..iterator..Iterator$GT$4next17h8ccbf8ddcf6d529eE', symObjAddr: 0x0, symBinAddr: 0x3AAC, symSize: 0x100 }
  - { offset: 0xA801, size: 0x8, addend: 0x0, symName: '__ZN99_$LT$hashbrown..raw..RawTable$LT$T$C$A$GT$$u20$as$u20$core..iter..traits..collect..IntoIterator$GT$9into_iter17h1be0c6f7243e0d18E', symObjAddr: 0x100, symBinAddr: 0x3BAC, symSize: 0x128 }
  - { offset: 0xCAA6, size: 0x8, addend: 0x0, symName: __ZN9hashbrown3raw13RawTableInner13drop_elements17hd1877c7c561c00d2E, symObjAddr: 0x228, symBinAddr: 0x3CD4, symSize: 0x15C }
  - { offset: 0xCE4F, size: 0x8, addend: 0x0, symName: __ZN9hashbrown3raw13RawTableInner16drop_inner_table17h86d5d8f3d0be465dE, symObjAddr: 0x384, symBinAddr: 0x3E30, symSize: 0xB0 }
  - { offset: 0xD03E, size: 0x8, addend: 0x0, symName: '__ZN9hashbrown3raw16RawIter$LT$T$GT$13drop_elements17h286b5ed85d32dcdcE', symObjAddr: 0x434, symBinAddr: 0x3EE0, symSize: 0xDC }
  - { offset: 0xD1C4, size: 0x8, addend: 0x0, symName: '__ZN9hashbrown3raw21RawIterRange$LT$T$GT$3new17h817baf52266bbbdbE', symObjAddr: 0x510, symBinAddr: 0x3FBC, symSize: 0x98 }
  - { offset: 0xD458, size: 0x8, addend: 0x0, symName: '__ZN9hashbrown3raw21RawIterRange$LT$T$GT$9next_impl17hd8507802d11e18ebE', symObjAddr: 0x5A8, symBinAddr: 0x4054, symSize: 0x1B4 }
  - { offset: 0xDC3D, size: 0x8, addend: 0x0, symName: '__ZN9hashbrown3raw21RawTable$LT$T$C$A$GT$14reserve_rehash17h45bd43171f21fa88E', symObjAddr: 0x75C, symBinAddr: 0x13C1F0, symSize: 0x7A4 }
  - { offset: 0xE67F, size: 0x8, addend: 0x0, symName: '__ZN9hashbrown3raw21RawTable$LT$T$C$A$GT$15into_allocation17h10de4d7036389dd1E', symObjAddr: 0xFF0, symBinAddr: 0x42F8, symSize: 0x120 }
  - { offset: 0xE94C, size: 0x8, addend: 0x0, symName: '__ZN9hashbrown3raw21RawTable$LT$T$C$A$GT$22insert_tagged_at_index17h06b490856b8c5a06E', symObjAddr: 0x1110, symBinAddr: 0x4418, symSize: 0x124 }
  - { offset: 0xEDB2, size: 0x8, addend: 0x0, symName: '__ZN9hashbrown3raw21RawTable$LT$T$C$A$GT$25find_or_find_insert_index17ha23216735ef1119aE', symObjAddr: 0x1234, symBinAddr: 0x453C, symSize: 0x134 }
  - { offset: 0xF107, size: 0x8, addend: 0x0, symName: '__ZN9hashbrown3raw21RawTable$LT$T$C$A$GT$7reserve17haf29baf4c383e4f9E', symObjAddr: 0x142C, symBinAddr: 0x4734, symSize: 0xB0 }
  - { offset: 0xF1F9, size: 0x8, addend: 0x0, symName: '__ZN104_$LT$core..iter..adapters..copied..Copied$LT$I$GT$$u20$as$u20$core..iter..traits..iterator..Iterator$GT$4next17h443fae05f332acbdE', symObjAddr: 0x0, symBinAddr: 0x47E4, symSize: 0x5C }
  - { offset: 0xF439, size: 0x8, addend: 0x0, symName: '__ZN104_$LT$core..iter..adapters..copied..Copied$LT$I$GT$$u20$as$u20$core..iter..traits..iterator..Iterator$GT$4next17h443fae05f332acbdE', symObjAddr: 0x0, symBinAddr: 0x47E4, symSize: 0x5C }
  - { offset: 0xF4DE, size: 0x8, addend: 0x0, symName: '__ZN63_$LT$I$u20$as$u20$core..iter..traits..collect..IntoIterator$GT$9into_iter17h77c5204ab73a0e8bE', symObjAddr: 0x5C, symBinAddr: 0x4840, symSize: 0x1C }
  - { offset: 0xF771, size: 0x8, addend: 0x0, symName: __ZN8pyo3_ffi10boolobject7Py_True17h69960f4ed816236eE, symObjAddr: 0x0, symBinAddr: 0x485C, symSize: 0xC }
  - { offset: 0xF788, size: 0x8, addend: 0x0, symName: __ZN8pyo3_ffi10boolobject7Py_True17h69960f4ed816236eE, symObjAddr: 0x0, symBinAddr: 0x485C, symSize: 0xC }
  - { offset: 0xF7A5, size: 0x8, addend: 0x0, symName: __ZN8pyo3_ffi10boolobject8Py_False17h7dc31488951b58c6E, symObjAddr: 0xC, symBinAddr: 0x4868, symSize: 0xC }
  - { offset: 0xF85A, size: 0x8, addend: 0x0, symName: __ZN4core5slice4sort6stable9quicksort16stable_partition17h556769ddd479dc45E, symObjAddr: 0x0, symBinAddr: 0x4874, symSize: 0x364 }
  - { offset: 0x1012B, size: 0x8, addend: 0x0, symName: __ZN4core5slice4sort6stable9quicksort16stable_partition17h556769ddd479dc45E, symObjAddr: 0x0, symBinAddr: 0x4874, symSize: 0x364 }
  - { offset: 0x10577, size: 0x8, addend: 0x0, symName: __ZN4core5slice4sort6stable9quicksort16stable_partition17hcd45e0e1b80c6dbbE, symObjAddr: 0x364, symBinAddr: 0x4BD8, symSize: 0x364 }
  - { offset: 0x109C3, size: 0x8, addend: 0x0, symName: __ZN4core5slice4sort6stable9quicksort9quicksort17h118f5d260642fbc4E, symObjAddr: 0x804, symBinAddr: 0x5078, symSize: 0x37C }
  - { offset: 0x10C88, size: 0x8, addend: 0x0, symName: '__ZN4core5slice4sort6stable9quicksort9quicksort28_$u7b$$u7b$closure$u7d$$u7d$17h14e7ad3b259309d0E', symObjAddr: 0xB80, symBinAddr: 0x53F4, symSize: 0x48 }
  - { offset: 0x111C3, size: 0x8, addend: 0x0, symName: '__ZN4core5slice4sort6stable9quicksort23PartitionState$LT$T$GT$13partition_one17hb62b0b1800cba76cE', symObjAddr: 0x6C8, symBinAddr: 0x4F3C, symSize: 0x13C }
  - { offset: 0x11388, size: 0x8, addend: 0x0, symName: '__ZN4pyo35impl_7pyclass16lazy_type_object23LazyTypeObject$LT$T$GT$11get_or_init17h2ca492392b25b180E', symObjAddr: 0x0, symBinAddr: 0x543C, symSize: 0x40 }
  - { offset: 0x124BB, size: 0x8, addend: 0x0, symName: '__ZN4pyo35impl_7pyclass16lazy_type_object23LazyTypeObject$LT$T$GT$11get_or_init28_$u7b$$u7b$closure$u7d$$u7d$17hf7632d0515000a7fE', symObjAddr: 0x40, symBinAddr: 0x547C, symSize: 0xA8 }
  - { offset: 0x136AA, size: 0x8, addend: 0x0, symName: '__ZN4pyo35impl_7pyclass16lazy_type_object23LazyTypeObject$LT$T$GT$11get_or_init17h2ca492392b25b180E', symObjAddr: 0x0, symBinAddr: 0x543C, symSize: 0x40 }
  - { offset: 0x136EE, size: 0x8, addend: 0x0, symName: '__ZN4pyo35impl_7pyclass16lazy_type_object23LazyTypeObject$LT$T$GT$15get_or_try_init17h8446b719aee6850aE', symObjAddr: 0xE8, symBinAddr: 0x5524, symSize: 0x58 }
  - { offset: 0x1383D, size: 0x8, addend: 0x0, symName: '__ZN6trx_rs8trx_file16TrxFile$LT$P$GT$10lookup_dpg17h1cbef3821788c7c7E', symObjAddr: 0x0, symBinAddr: 0x557C, symSize: 0xE0 }
  - { offset: 0x14850, size: 0x8, addend: 0x0, symName: '__ZN6trx_rs8trx_file16TrxFile$LT$P$GT$10lookup_dpg28_$u7b$$u7b$closure$u7d$$u7d$17h0dabb6858b8a4406E', symObjAddr: 0x2A0, symBinAddr: 0x581C, symSize: 0x80 }
  - { offset: 0x148E3, size: 0x8, addend: 0x0, symName: '__ZN6trx_rs8trx_file16TrxFile$LT$P$GT$10lookup_dpg28_$u7b$$u7b$closure$u7d$$u7d$17h57959db15fde70f1E', symObjAddr: 0x320, symBinAddr: 0x589C, symSize: 0xA4 }
  - { offset: 0x1498A, size: 0x8, addend: 0x0, symName: '__ZN6trx_rs8trx_file16TrxFile$LT$P$GT$10lookup_dpg28_$u7b$$u7b$closure$u7d$$u7d$17h717b0ddfd7459d06E', symObjAddr: 0x3C4, symBinAddr: 0x5940, symSize: 0xA4 }
  - { offset: 0x14A31, size: 0x8, addend: 0x0, symName: '__ZN6trx_rs8trx_file16TrxFile$LT$P$GT$10lookup_dpg28_$u7b$$u7b$closure$u7d$$u7d$17h79c3d9702d339c9cE', symObjAddr: 0x468, symBinAddr: 0x59E4, symSize: 0x80 }
  - { offset: 0x14AC4, size: 0x8, addend: 0x0, symName: '__ZN6trx_rs8trx_file16TrxFile$LT$P$GT$10lookup_dpg28_$u7b$$u7b$closure$u7d$$u7d$17hbcdcaa2fc6a043b1E', symObjAddr: 0x4E8, symBinAddr: 0x5A64, symSize: 0xA4 }
  - { offset: 0x14B6B, size: 0x8, addend: 0x0, symName: '__ZN6trx_rs8trx_file16TrxFile$LT$P$GT$10lookup_dpg28_$u7b$$u7b$closure$u7d$$u7d$17hc57aa3e52312525eE', symObjAddr: 0x58C, symBinAddr: 0x5B08, symSize: 0x80 }
  - { offset: 0x14C04, size: 0x8, addend: 0x0, symName: '__ZN6trx_rs8trx_file16TrxFile$LT$P$GT$12lookup_group28_$u7b$$u7b$closure$u7d$$u7d$17h33bffe28c4cb05efE', symObjAddr: 0xC3C, symBinAddr: 0x61B8, symSize: 0x80 }
  - { offset: 0x14C97, size: 0x8, addend: 0x0, symName: '__ZN6trx_rs8trx_file16TrxFile$LT$P$GT$12lookup_group28_$u7b$$u7b$closure$u7d$$u7d$17h44e2330d8c819414E', symObjAddr: 0xCBC, symBinAddr: 0x6238, symSize: 0x80 }
  - { offset: 0x14D2A, size: 0x8, addend: 0x0, symName: '__ZN6trx_rs8trx_file16TrxFile$LT$P$GT$12lookup_group28_$u7b$$u7b$closure$u7d$$u7d$17h84c3cf2ef8a7ec3fE', symObjAddr: 0xD3C, symBinAddr: 0x62B8, symSize: 0x80 }
  - { offset: 0x15FE4, size: 0x8, addend: 0x0, symName: '__ZN6trx_rs8trx_file16TrxFile$LT$P$GT$10lookup_dpg17h1cbef3821788c7c7E', symObjAddr: 0x0, symBinAddr: 0x557C, symSize: 0xE0 }
  - { offset: 0x1607F, size: 0x8, addend: 0x0, symName: '__ZN6trx_rs8trx_file16TrxFile$LT$P$GT$10lookup_dpg17he035b29fc4a11f62E', symObjAddr: 0xE0, symBinAddr: 0x565C, symSize: 0xE0 }
  - { offset: 0x16134, size: 0x8, addend: 0x0, symName: '__ZN6trx_rs8trx_file16TrxFile$LT$P$GT$10lookup_dpg17he06317bfd87e6e34E', symObjAddr: 0x1C0, symBinAddr: 0x573C, symSize: 0xE0 }
  - { offset: 0x1620D, size: 0x8, addend: 0x0, symName: '__ZN6trx_rs8trx_file16TrxFile$LT$P$GT$10streamline17hb781ce7034f68a26E', symObjAddr: 0x60C, symBinAddr: 0x5B88, symSize: 0x194 }
  - { offset: 0x1638D, size: 0x8, addend: 0x0, symName: '__ZN6trx_rs8trx_file16TrxFile$LT$P$GT$10streamline17hc9c13c1ab003e02eE', symObjAddr: 0x7A0, symBinAddr: 0x5D1C, symSize: 0x194 }
  - { offset: 0x1650D, size: 0x8, addend: 0x0, symName: '__ZN6trx_rs8trx_file16TrxFile$LT$P$GT$10streamline17hdec051147a1c1771E', symObjAddr: 0x934, symBinAddr: 0x5EB0, symSize: 0x194 }
  - { offset: 0x1663B, size: 0x8, addend: 0x0, symName: '__ZN6trx_rs8trx_file16TrxFile$LT$P$GT$11group_array17h35f385237dc101baE', symObjAddr: 0xAC8, symBinAddr: 0x6044, symSize: 0x30 }
  - { offset: 0x16676, size: 0x8, addend: 0x0, symName: '__ZN6trx_rs8trx_file16TrxFile$LT$P$GT$11group_array17hdd51866ee1478d07E', symObjAddr: 0xAF8, symBinAddr: 0x6074, symSize: 0x30 }
  - { offset: 0x166B1, size: 0x8, addend: 0x0, symName: '__ZN6trx_rs8trx_file16TrxFile$LT$P$GT$11group_array17he0d74e4216f5013eE', symObjAddr: 0xB28, symBinAddr: 0x60A4, symSize: 0x30 }
  - { offset: 0x166EC, size: 0x8, addend: 0x0, symName: '__ZN6trx_rs8trx_file16TrxFile$LT$P$GT$12lookup_group17h630b95303ceb647cE', symObjAddr: 0xB58, symBinAddr: 0x60D4, symSize: 0x4C }
  - { offset: 0x16727, size: 0x8, addend: 0x0, symName: '__ZN6trx_rs8trx_file16TrxFile$LT$P$GT$12lookup_group17hc5c01f3b207297f9E', symObjAddr: 0xBA4, symBinAddr: 0x6120, symSize: 0x4C }
  - { offset: 0x16762, size: 0x8, addend: 0x0, symName: '__ZN6trx_rs8trx_file16TrxFile$LT$P$GT$12lookup_group17hfc69f5e997310ddeE', symObjAddr: 0xBF0, symBinAddr: 0x616C, symSize: 0x4C }
  - { offset: 0x1679D, size: 0x8, addend: 0x0, symName: '__ZN6trx_rs8trx_file16TrxFile$LT$P$GT$9dpg_array17h36cb4d394937d0efE', symObjAddr: 0xDBC, symBinAddr: 0x6338, symSize: 0x3C }
  - { offset: 0x167E7, size: 0x8, addend: 0x0, symName: '__ZN6trx_rs8trx_file16TrxFile$LT$P$GT$9dpg_array17h708bfb4898a3e43bE', symObjAddr: 0xDF8, symBinAddr: 0x6374, symSize: 0x3C }
  - { offset: 0x16831, size: 0x8, addend: 0x0, symName: '__ZN6trx_rs8trx_file16TrxFile$LT$P$GT$9dpg_array17hefbf0c1d2435b915E', symObjAddr: 0xE34, symBinAddr: 0x63B0, symSize: 0x3C }
  - { offset: 0x1687B, size: 0x8, addend: 0x0, symName: '__ZN6trx_rs8trx_file16TrxFile$LT$P$GT$9dps_array17h05e23f02510ea2ceE', symObjAddr: 0xE70, symBinAddr: 0x63EC, symSize: 0x30 }
  - { offset: 0x168B6, size: 0x8, addend: 0x0, symName: '__ZN6trx_rs8trx_file16TrxFile$LT$P$GT$9dps_array17h31c0a3128de8ca7fE', symObjAddr: 0xEA0, symBinAddr: 0x641C, symSize: 0x30 }
  - { offset: 0x168F1, size: 0x8, addend: 0x0, symName: '__ZN6trx_rs8trx_file16TrxFile$LT$P$GT$9dps_array17h8274d3f4647de3e8E', symObjAddr: 0xED0, symBinAddr: 0x644C, symSize: 0x30 }
  - { offset: 0x1692C, size: 0x8, addend: 0x0, symName: '__ZN6trx_rs8trx_file16TrxFile$LT$P$GT$9dpv_array17h1bb9b932458740e1E', symObjAddr: 0xF00, symBinAddr: 0x647C, symSize: 0x30 }
  - { offset: 0x16967, size: 0x8, addend: 0x0, symName: '__ZN6trx_rs8trx_file16TrxFile$LT$P$GT$9dpv_array17h3201fad6d66f6fa7E', symObjAddr: 0xF30, symBinAddr: 0x64AC, symSize: 0x30 }
  - { offset: 0x169A2, size: 0x8, addend: 0x0, symName: '__ZN6trx_rs8trx_file16TrxFile$LT$P$GT$9dpv_array17he414bb95dd6ed055E', symObjAddr: 0xF60, symBinAddr: 0x64DC, symSize: 0x30 }
  - { offset: 0x16B0D, size: 0x8, addend: 0x0, symName: '__ZN100_$LT$pyo3..types..tuple..BorrowedTupleIterator$u20$as$u20$core..iter..traits..iterator..Iterator$GT$4next17h99444f7fd14ae2a8E', symObjAddr: 0x0, symBinAddr: 0x650C, symSize: 0x9C }
  - { offset: 0x16B95, size: 0x8, addend: 0x0, symName: '__ZN100_$LT$pyo3..types..tuple..BorrowedTupleIterator$u20$as$u20$core..iter..traits..iterator..Iterator$GT$4next17h99444f7fd14ae2a8E', symObjAddr: 0x0, symBinAddr: 0x650C, symSize: 0x9C }
  - { offset: 0x16F84, size: 0x8, addend: 0x0, symName: '__ZN4pyo311conversions3std6string86_$LT$impl$u20$pyo3..conversion..IntoPyObject$u20$for$u20$$RF$alloc..string..String$GT$13into_pyobject17hf090144932d7bc51E', symObjAddr: 0x0, symBinAddr: 0x65A8, symSize: 0x28 }
  - { offset: 0x176A0, size: 0x8, addend: 0x0, symName: '__ZN4pyo311conversions3std6string86_$LT$impl$u20$pyo3..conversion..IntoPyObject$u20$for$u20$$RF$alloc..string..String$GT$13into_pyobject17hf090144932d7bc51E', symObjAddr: 0x0, symBinAddr: 0x65A8, symSize: 0x28 }
  - { offset: 0x1781F, size: 0x8, addend: 0x0, symName: '__ZN58_$LT$alloc..string..String$u20$as$u20$core..fmt..Write$GT$10write_char17h18d59dfc2447d302E', symObjAddr: 0x28, symBinAddr: 0x65D0, symSize: 0x30 }
  - { offset: 0x1785C, size: 0x8, addend: 0x0, symName: '__ZN58_$LT$alloc..string..String$u20$as$u20$core..fmt..Write$GT$9write_str17h9f52298126e9cdd5E', symObjAddr: 0x58, symBinAddr: 0x6600, symSize: 0x38 }
  - { offset: 0x17925, size: 0x8, addend: 0x0, symName: '__ZN63_$LT$alloc..string..String$u20$as$u20$core..cmp..PartialOrd$GT$11partial_cmp17h7dfcde4734d953a0E', symObjAddr: 0x280, symBinAddr: 0x6828, symSize: 0x2C }
  - { offset: 0x17968, size: 0x8, addend: 0x0, symName: '__ZN65_$LT$alloc..string..String$u20$as$u20$core..ops..deref..Deref$GT$5deref17h06bc65645c2a638cE', symObjAddr: 0x2AC, symBinAddr: 0x6854, symSize: 0x20 }
  - { offset: 0x17EF3, size: 0x8, addend: 0x0, symName: __ZN5alloc6string6String4push17he2d9a9feb31406feE, symObjAddr: 0x90, symBinAddr: 0x6638, symSize: 0x114 }
  - { offset: 0x182DA, size: 0x8, addend: 0x0, symName: __ZN5alloc6string6String8push_str17he01593f2799a046cE, symObjAddr: 0x1A4, symBinAddr: 0x674C, symSize: 0xDC }
  - { offset: 0x18723, size: 0x8, addend: 0x0, symName: '__ZN185_$LT$core..ops..control_flow..ControlFlow$LT$B$C$C$GT$$u20$as$u20$core..ops..try_trait..FromResidual$LT$core..ops..control_flow..ControlFlow$LT$B$C$core..convert..Infallible$GT$$GT$$GT$13from_residual17h8d2405133e50cafdE', symObjAddr: 0x0, symBinAddr: 0x6874, symSize: 0x48 }
  - { offset: 0x18744, size: 0x8, addend: 0x0, symName: '__ZN185_$LT$core..ops..control_flow..ControlFlow$LT$B$C$C$GT$$u20$as$u20$core..ops..try_trait..FromResidual$LT$core..ops..control_flow..ControlFlow$LT$B$C$core..convert..Infallible$GT$$GT$$GT$13from_residual17h8d2405133e50cafdE', symObjAddr: 0x0, symBinAddr: 0x6874, symSize: 0x48 }
  - { offset: 0x18789, size: 0x8, addend: 0x0, symName: '__ZN95_$LT$core..ops..control_flow..ControlFlow$LT$B$C$C$GT$$u20$as$u20$core..ops..try_trait..Try$GT$11from_output17hd71a15a37e14242fE', symObjAddr: 0x48, symBinAddr: 0x68BC, symSize: 0x20 }
  - { offset: 0x187C7, size: 0x8, addend: 0x0, symName: '__ZN95_$LT$core..ops..control_flow..ControlFlow$LT$B$C$C$GT$$u20$as$u20$core..ops..try_trait..Try$GT$6branch17hfbb88fe6a8956f20E', symObjAddr: 0x68, symBinAddr: 0x68DC, symSize: 0x98 }
  - { offset: 0x191D7, size: 0x8, addend: 0x0, symName: '__ZN106_$LT$core..ops..range..Range$LT$usize$GT$$u20$as$u20$core..slice..index..SliceIndex$LT$$u5b$T$u5d$$GT$$GT$9index_mut17h68a8c4154a315944E', symObjAddr: 0x0, symBinAddr: 0x6974, symSize: 0xBC }
  - { offset: 0x19399, size: 0x8, addend: 0x0, symName: '__ZN106_$LT$core..ops..range..Range$LT$usize$GT$$u20$as$u20$core..slice..index..SliceIndex$LT$$u5b$T$u5d$$GT$$GT$9index_mut17h68a8c4154a315944E', symObjAddr: 0x0, symBinAddr: 0x6974, symSize: 0xBC }
  - { offset: 0x1944A, size: 0x8, addend: 0x0, symName: '__ZN108_$LT$core..ops..range..RangeTo$LT$usize$GT$$u20$as$u20$core..slice..index..SliceIndex$LT$$u5b$T$u5d$$GT$$GT$9index_mut17h998d3dd783e41298E', symObjAddr: 0xBC, symBinAddr: 0x6A30, symSize: 0x54 }
  - { offset: 0x194D1, size: 0x8, addend: 0x0, symName: '__ZN110_$LT$core..ops..range..RangeFrom$LT$usize$GT$$u20$as$u20$core..slice..index..SliceIndex$LT$$u5b$T$u5d$$GT$$GT$5index17heaf278964f53de8eE', symObjAddr: 0x110, symBinAddr: 0x6A84, symSize: 0x70 }
  - { offset: 0x198C0, size: 0x8, addend: 0x0, symName: __ZN7ndarray14free_functions6aview117h3bf3536806e3bb01E, symObjAddr: 0x0, symBinAddr: 0x6AF4, symSize: 0x11C }
  - { offset: 0x19923, size: 0x8, addend: 0x0, symName: __ZN7ndarray14free_functions6aview117h3bf3536806e3bb01E, symObjAddr: 0x0, symBinAddr: 0x6AF4, symSize: 0x11C }
  - { offset: 0x19992, size: 0x8, addend: 0x0, symName: __ZN7ndarray14free_functions6aview117h42ca4b547aa9fa27E, symObjAddr: 0x11C, symBinAddr: 0x6C10, symSize: 0x11C }
  - { offset: 0x19A01, size: 0x8, addend: 0x0, symName: __ZN7ndarray14free_functions6aview117h83f9915cd2e5aa50E, symObjAddr: 0x238, symBinAddr: 0x6D2C, symSize: 0x11C }
  - { offset: 0x19A70, size: 0x8, addend: 0x0, symName: __ZN7ndarray14free_functions6aview117h8c49fab7ead3c489E, symObjAddr: 0x354, symBinAddr: 0x6E48, symSize: 0x11C }
  - { offset: 0x19ADF, size: 0x8, addend: 0x0, symName: __ZN7ndarray14free_functions6aview117h915a7649ad99e32dE, symObjAddr: 0x470, symBinAddr: 0x6F64, symSize: 0x11C }
  - { offset: 0x19B4E, size: 0x8, addend: 0x0, symName: __ZN7ndarray14free_functions6aview117h94afd67555d2068cE, symObjAddr: 0x58C, symBinAddr: 0x7080, symSize: 0x11C }
  - { offset: 0x19BBD, size: 0x8, addend: 0x0, symName: __ZN7ndarray14free_functions6aview117ha38ff81d21ad88f5E, symObjAddr: 0x6A8, symBinAddr: 0x719C, symSize: 0x11C }
  - { offset: 0x19C2C, size: 0x8, addend: 0x0, symName: __ZN7ndarray14free_functions6aview117ha635caf34de5add9E, symObjAddr: 0x7C4, symBinAddr: 0x72B8, symSize: 0x11C }
  - { offset: 0x19C9B, size: 0x8, addend: 0x0, symName: __ZN7ndarray14free_functions6aview117hdb590d1bc3783c7eE, symObjAddr: 0x8E0, symBinAddr: 0x73D4, symSize: 0x11C }
  - { offset: 0x19D0A, size: 0x8, addend: 0x0, symName: __ZN7ndarray14free_functions6aview117hf0bf089698264ed4E, symObjAddr: 0x9FC, symBinAddr: 0x74F0, symSize: 0x11C }
  - { offset: 0x1A696, size: 0x8, addend: 0x0, symName: '__ZN4pyo36pycell14PyRef$LT$T$GT$10try_borrow17h684f8bc32296847aE', symObjAddr: 0x0, symBinAddr: 0x760C, symSize: 0x4C }
  - { offset: 0x1B05F, size: 0x8, addend: 0x0, symName: '__ZN50_$LT$T$u20$as$u20$core..convert..Into$LT$U$GT$$GT$4into17hf483907a0368e7ebE', symObjAddr: 0xB0, symBinAddr: 0x76BC, symSize: 0x1C }
  - { offset: 0x1B643, size: 0x8, addend: 0x0, symName: '__ZN4pyo36pycell14PyRef$LT$T$GT$10try_borrow28_$u7b$$u7b$closure$u7d$$u7d$17h9d671b67c37f84baE', symObjAddr: 0x4C, symBinAddr: 0x7658, symSize: 0x24 }
  - { offset: 0x1B68E, size: 0x8, addend: 0x0, symName: '__ZN72_$LT$pyo3..pycell..PyRef$LT$T$GT$$u20$as$u20$core..ops..deref..Deref$GT$5deref17h2fd1771103c758fdE', symObjAddr: 0x100, symBinAddr: 0x770C, symSize: 0x74 }
  - { offset: 0x1B9BB, size: 0x8, addend: 0x0, symName: '__ZN57_$LT$T$u20$as$u20$pyo3..conversion..FromPyObjectBound$GT$20from_py_object_bound17hfb04bc9598209ac4E', symObjAddr: 0xCC, symBinAddr: 0x76D8, symSize: 0x34 }
  - { offset: 0x1B9F8, size: 0x8, addend: 0x0, symName: '__ZN79_$LT$pyo3..pycell..PyRef$LT$T$GT$$u20$as$u20$pyo3..conversion..FromPyObject$GT$13extract_bound17h704d6487db6e3919E', symObjAddr: 0x174, symBinAddr: 0x7780, symSize: 0xA4 }
  - { offset: 0x1C784, size: 0x8, addend: 0x0, symName: '__ZN4pyo36pycell14PyRef$LT$T$GT$10try_borrow17h684f8bc32296847aE', symObjAddr: 0x0, symBinAddr: 0x760C, symSize: 0x4C }
  - { offset: 0x1C820, size: 0x8, addend: 0x0, symName: '__ZN4pyo36pycell14PyRef$LT$T$GT$6borrow17hebc08f40c063e81fE', symObjAddr: 0x70, symBinAddr: 0x767C, symSize: 0x40 }
  - { offset: 0x1C965, size: 0x8, addend: 0x0, symName: '__ZN106_$LT$core..result..Result$LT$T$C$E$GT$$u20$as$u20$pyo3..impl_..callback..IntoPyCallbackOutput$LT$U$GT$$GT$7convert17hb42785fa22b3b0c5E', symObjAddr: 0x0, symBinAddr: 0x7824, symSize: 0xBC }
  - { offset: 0x1C9F9, size: 0x8, addend: 0x0, symName: '__ZN106_$LT$core..result..Result$LT$T$C$E$GT$$u20$as$u20$pyo3..impl_..callback..IntoPyCallbackOutput$LT$U$GT$$GT$7convert17hb42785fa22b3b0c5E', symObjAddr: 0x0, symBinAddr: 0x7824, symSize: 0xBC }
  - { offset: 0x1D76E, size: 0x8, addend: 0x0, symName: '__ZN153_$LT$core..result..Result$LT$T$C$F$GT$$u20$as$u20$core..ops..try_trait..FromResidual$LT$core..result..Result$LT$core..convert..Infallible$C$E$GT$$GT$$GT$13from_residual17h04b7fe21eb175ad6E', symObjAddr: 0xBC, symBinAddr: 0x78E0, symSize: 0x20 }
  - { offset: 0x1D7D5, size: 0x8, addend: 0x0, symName: '__ZN153_$LT$core..result..Result$LT$T$C$F$GT$$u20$as$u20$core..ops..try_trait..FromResidual$LT$core..result..Result$LT$core..convert..Infallible$C$E$GT$$GT$$GT$13from_residual17h12564f179fb0d5ebE', symObjAddr: 0xDC, symBinAddr: 0x7900, symSize: 0x6C }
  - { offset: 0x1D85B, size: 0x8, addend: 0x0, symName: '__ZN153_$LT$core..result..Result$LT$T$C$F$GT$$u20$as$u20$core..ops..try_trait..FromResidual$LT$core..result..Result$LT$core..convert..Infallible$C$E$GT$$GT$$GT$13from_residual17h1862cc94e23ae8c6E', symObjAddr: 0x148, symBinAddr: 0x796C, symSize: 0x3C }
  - { offset: 0x1D8E0, size: 0x8, addend: 0x0, symName: '__ZN153_$LT$core..result..Result$LT$T$C$F$GT$$u20$as$u20$core..ops..try_trait..FromResidual$LT$core..result..Result$LT$core..convert..Infallible$C$E$GT$$GT$$GT$13from_residual17h24964d13c3477ea5E', symObjAddr: 0x184, symBinAddr: 0x79A8, symSize: 0x20 }
  - { offset: 0x1D947, size: 0x8, addend: 0x0, symName: '__ZN153_$LT$core..result..Result$LT$T$C$F$GT$$u20$as$u20$core..ops..try_trait..FromResidual$LT$core..result..Result$LT$core..convert..Infallible$C$E$GT$$GT$$GT$13from_residual17h2590001a34c708f9E', symObjAddr: 0x1A4, symBinAddr: 0x79C8, symSize: 0x20 }
  - { offset: 0x1D9AE, size: 0x8, addend: 0x0, symName: '__ZN153_$LT$core..result..Result$LT$T$C$F$GT$$u20$as$u20$core..ops..try_trait..FromResidual$LT$core..result..Result$LT$core..convert..Infallible$C$E$GT$$GT$$GT$13from_residual17h25f912da9a960942E', symObjAddr: 0x1C4, symBinAddr: 0x79E8, symSize: 0x20 }
  - { offset: 0x1DA15, size: 0x8, addend: 0x0, symName: '__ZN153_$LT$core..result..Result$LT$T$C$F$GT$$u20$as$u20$core..ops..try_trait..FromResidual$LT$core..result..Result$LT$core..convert..Infallible$C$E$GT$$GT$$GT$13from_residual17h4a74ed1757e4c447E', symObjAddr: 0x1E4, symBinAddr: 0x7A08, symSize: 0x18 }
  - { offset: 0x1DA5E, size: 0x8, addend: 0x0, symName: '__ZN153_$LT$core..result..Result$LT$T$C$F$GT$$u20$as$u20$core..ops..try_trait..FromResidual$LT$core..result..Result$LT$core..convert..Infallible$C$E$GT$$GT$$GT$13from_residual17h53c8e53d48e53c79E', symObjAddr: 0x1FC, symBinAddr: 0x7A20, symSize: 0x6C }
  - { offset: 0x1DAE4, size: 0x8, addend: 0x0, symName: '__ZN153_$LT$core..result..Result$LT$T$C$F$GT$$u20$as$u20$core..ops..try_trait..FromResidual$LT$core..result..Result$LT$core..convert..Infallible$C$E$GT$$GT$$GT$13from_residual17h5b10651aafd76532E', symObjAddr: 0x270, symBinAddr: 0x7A8C, symSize: 0x6C }
  - { offset: 0x1DB6A, size: 0x8, addend: 0x0, symName: '__ZN153_$LT$core..result..Result$LT$T$C$F$GT$$u20$as$u20$core..ops..try_trait..FromResidual$LT$core..result..Result$LT$core..convert..Infallible$C$E$GT$$GT$$GT$13from_residual17h60abdf721920f883E', symObjAddr: 0x2DC, symBinAddr: 0x7AF8, symSize: 0x28 }
  - { offset: 0x1DBD1, size: 0x8, addend: 0x0, symName: '__ZN153_$LT$core..result..Result$LT$T$C$F$GT$$u20$as$u20$core..ops..try_trait..FromResidual$LT$core..result..Result$LT$core..convert..Infallible$C$E$GT$$GT$$GT$13from_residual17h839dd6182960d1e3E', symObjAddr: 0x304, symBinAddr: 0x7B20, symSize: 0x20 }
  - { offset: 0x1DC38, size: 0x8, addend: 0x0, symName: '__ZN153_$LT$core..result..Result$LT$T$C$F$GT$$u20$as$u20$core..ops..try_trait..FromResidual$LT$core..result..Result$LT$core..convert..Infallible$C$E$GT$$GT$$GT$13from_residual17h8c01d193ac3e9659E', symObjAddr: 0x324, symBinAddr: 0x7B40, symSize: 0x20 }
  - { offset: 0x1DC9F, size: 0x8, addend: 0x0, symName: '__ZN153_$LT$core..result..Result$LT$T$C$F$GT$$u20$as$u20$core..ops..try_trait..FromResidual$LT$core..result..Result$LT$core..convert..Infallible$C$E$GT$$GT$$GT$13from_residual17h9822c37652af1bcbE', symObjAddr: 0x344, symBinAddr: 0x7B60, symSize: 0x20 }
  - { offset: 0x1DD06, size: 0x8, addend: 0x0, symName: '__ZN153_$LT$core..result..Result$LT$T$C$F$GT$$u20$as$u20$core..ops..try_trait..FromResidual$LT$core..result..Result$LT$core..convert..Infallible$C$E$GT$$GT$$GT$13from_residual17h9c00cab4af489a94E', symObjAddr: 0x364, symBinAddr: 0x7B80, symSize: 0x20 }
  - { offset: 0x1DD6D, size: 0x8, addend: 0x0, symName: '__ZN153_$LT$core..result..Result$LT$T$C$F$GT$$u20$as$u20$core..ops..try_trait..FromResidual$LT$core..result..Result$LT$core..convert..Infallible$C$E$GT$$GT$$GT$13from_residual17hb2a806b849dbc042E', symObjAddr: 0x384, symBinAddr: 0x7BA0, symSize: 0x64 }
  - { offset: 0x1DDD5, size: 0x8, addend: 0x0, symName: '__ZN153_$LT$core..result..Result$LT$T$C$F$GT$$u20$as$u20$core..ops..try_trait..FromResidual$LT$core..result..Result$LT$core..convert..Infallible$C$E$GT$$GT$$GT$13from_residual17hbe3a24ef946e055cE', symObjAddr: 0x3E8, symBinAddr: 0x7C04, symSize: 0x20 }
  - { offset: 0x1DE3C, size: 0x8, addend: 0x0, symName: '__ZN153_$LT$core..result..Result$LT$T$C$F$GT$$u20$as$u20$core..ops..try_trait..FromResidual$LT$core..result..Result$LT$core..convert..Infallible$C$E$GT$$GT$$GT$13from_residual17hdb4a5d64e4fdc451E', symObjAddr: 0x408, symBinAddr: 0x7C24, symSize: 0x6C }
  - { offset: 0x1DEC2, size: 0x8, addend: 0x0, symName: '__ZN153_$LT$core..result..Result$LT$T$C$F$GT$$u20$as$u20$core..ops..try_trait..FromResidual$LT$core..result..Result$LT$core..convert..Infallible$C$E$GT$$GT$$GT$13from_residual17hddf55698e4293977E', symObjAddr: 0x474, symBinAddr: 0x7C90, symSize: 0x6C }
  - { offset: 0x1DF48, size: 0x8, addend: 0x0, symName: '__ZN153_$LT$core..result..Result$LT$T$C$F$GT$$u20$as$u20$core..ops..try_trait..FromResidual$LT$core..result..Result$LT$core..convert..Infallible$C$E$GT$$GT$$GT$13from_residual17he11c8f682f66ff4dE', symObjAddr: 0x4E0, symBinAddr: 0x7CFC, symSize: 0x20 }
  - { offset: 0x2046D, size: 0x8, addend: 0x0, symName: '__ZN79_$LT$core..result..Result$LT$T$C$E$GT$$u20$as$u20$core..ops..try_trait..Try$GT$11from_output17h4c8ba662d9c9f2bbE', symObjAddr: 0x21B0, symBinAddr: 0x99CC, symSize: 0x1C }
  - { offset: 0x204AD, size: 0x8, addend: 0x0, symName: '__ZN79_$LT$core..result..Result$LT$T$C$E$GT$$u20$as$u20$core..ops..try_trait..Try$GT$11from_output17hdbb9392794163bacE', symObjAddr: 0x21CC, symBinAddr: 0x99E8, symSize: 0x18 }
  - { offset: 0x204ED, size: 0x8, addend: 0x0, symName: '__ZN79_$LT$core..result..Result$LT$T$C$E$GT$$u20$as$u20$core..ops..try_trait..Try$GT$6branch17h248c7d6c5c8e67eeE', symObjAddr: 0x21E4, symBinAddr: 0x9A00, symSize: 0xA0 }
  - { offset: 0x2056A, size: 0x8, addend: 0x0, symName: '__ZN79_$LT$core..result..Result$LT$T$C$E$GT$$u20$as$u20$core..ops..try_trait..Try$GT$6branch17h2716f1125293b651E', symObjAddr: 0x2284, symBinAddr: 0x9AA0, symSize: 0x5C }
  - { offset: 0x205E7, size: 0x8, addend: 0x0, symName: '__ZN79_$LT$core..result..Result$LT$T$C$E$GT$$u20$as$u20$core..ops..try_trait..Try$GT$6branch17h335e22370aa94304E', symObjAddr: 0x22E0, symBinAddr: 0x9AFC, symSize: 0xA0 }
  - { offset: 0x20664, size: 0x8, addend: 0x0, symName: '__ZN79_$LT$core..result..Result$LT$T$C$E$GT$$u20$as$u20$core..ops..try_trait..Try$GT$6branch17h3db7a4ee4e061268E', symObjAddr: 0x2380, symBinAddr: 0x9B9C, symSize: 0x28 }
  - { offset: 0x206C2, size: 0x8, addend: 0x0, symName: '__ZN79_$LT$core..result..Result$LT$T$C$E$GT$$u20$as$u20$core..ops..try_trait..Try$GT$6branch17h54cff6aad8d3e354E', symObjAddr: 0x23A8, symBinAddr: 0x9BC4, symSize: 0xA0 }
  - { offset: 0x2073F, size: 0x8, addend: 0x0, symName: '__ZN79_$LT$core..result..Result$LT$T$C$E$GT$$u20$as$u20$core..ops..try_trait..Try$GT$6branch17h54dd42dddf43a69dE', symObjAddr: 0x2448, symBinAddr: 0x9C64, symSize: 0xA0 }
  - { offset: 0x207BC, size: 0x8, addend: 0x0, symName: '__ZN79_$LT$core..result..Result$LT$T$C$E$GT$$u20$as$u20$core..ops..try_trait..Try$GT$6branch17h561f7a2abd8e77bdE', symObjAddr: 0x24E8, symBinAddr: 0x9D04, symSize: 0xC4 }
  - { offset: 0x2083A, size: 0x8, addend: 0x0, symName: '__ZN79_$LT$core..result..Result$LT$T$C$E$GT$$u20$as$u20$core..ops..try_trait..Try$GT$6branch17h56a800d486d8a63aE', symObjAddr: 0x25AC, symBinAddr: 0x9DC8, symSize: 0x88 }
  - { offset: 0x208B8, size: 0x8, addend: 0x0, symName: '__ZN79_$LT$core..result..Result$LT$T$C$E$GT$$u20$as$u20$core..ops..try_trait..Try$GT$6branch17h5f2b9c362e13b6b6E', symObjAddr: 0x2634, symBinAddr: 0x9E50, symSize: 0xC4 }
  - { offset: 0x20936, size: 0x8, addend: 0x0, symName: '__ZN79_$LT$core..result..Result$LT$T$C$E$GT$$u20$as$u20$core..ops..try_trait..Try$GT$6branch17h60ebb81b24885377E', symObjAddr: 0x26F8, symBinAddr: 0x9F14, symSize: 0xC4 }
  - { offset: 0x209B4, size: 0x8, addend: 0x0, symName: '__ZN79_$LT$core..result..Result$LT$T$C$E$GT$$u20$as$u20$core..ops..try_trait..Try$GT$6branch17h65e221f0dc2674abE', symObjAddr: 0x27BC, symBinAddr: 0x9FD8, symSize: 0x40 }
  - { offset: 0x20A30, size: 0x8, addend: 0x0, symName: '__ZN79_$LT$core..result..Result$LT$T$C$E$GT$$u20$as$u20$core..ops..try_trait..Try$GT$6branch17h67739d04e041f329E', symObjAddr: 0x27FC, symBinAddr: 0xA018, symSize: 0xC4 }
  - { offset: 0x20AAE, size: 0x8, addend: 0x0, symName: '__ZN79_$LT$core..result..Result$LT$T$C$E$GT$$u20$as$u20$core..ops..try_trait..Try$GT$6branch17h67b77fad99db93adE', symObjAddr: 0x28C0, symBinAddr: 0xA0DC, symSize: 0x28 }
  - { offset: 0x20B0C, size: 0x8, addend: 0x0, symName: '__ZN79_$LT$core..result..Result$LT$T$C$E$GT$$u20$as$u20$core..ops..try_trait..Try$GT$6branch17h6e0ee9e31da6f42eE', symObjAddr: 0x28E8, symBinAddr: 0xA104, symSize: 0xB4 }
  - { offset: 0x20B8A, size: 0x8, addend: 0x0, symName: '__ZN79_$LT$core..result..Result$LT$T$C$E$GT$$u20$as$u20$core..ops..try_trait..Try$GT$6branch17h71b24cb92c54f10dE', symObjAddr: 0x299C, symBinAddr: 0xA1B8, symSize: 0xC4 }
  - { offset: 0x20C08, size: 0x8, addend: 0x0, symName: '__ZN79_$LT$core..result..Result$LT$T$C$E$GT$$u20$as$u20$core..ops..try_trait..Try$GT$6branch17h970ca3e51d01edd9E', symObjAddr: 0x2A60, symBinAddr: 0xA27C, symSize: 0xC4 }
  - { offset: 0x20C86, size: 0x8, addend: 0x0, symName: '__ZN79_$LT$core..result..Result$LT$T$C$E$GT$$u20$as$u20$core..ops..try_trait..Try$GT$6branch17ha0c4b4d547c471c1E', symObjAddr: 0x2B24, symBinAddr: 0xA340, symSize: 0x3C }
  - { offset: 0x20CE4, size: 0x8, addend: 0x0, symName: '__ZN79_$LT$core..result..Result$LT$T$C$E$GT$$u20$as$u20$core..ops..try_trait..Try$GT$6branch17ha1f5043174cc85e9E', symObjAddr: 0x2B60, symBinAddr: 0xA37C, symSize: 0x90 }
  - { offset: 0x20D61, size: 0x8, addend: 0x0, symName: '__ZN79_$LT$core..result..Result$LT$T$C$E$GT$$u20$as$u20$core..ops..try_trait..Try$GT$6branch17hadfa1253f2b396f9E', symObjAddr: 0x2BF0, symBinAddr: 0xA40C, symSize: 0xA0 }
  - { offset: 0x20DDE, size: 0x8, addend: 0x0, symName: '__ZN79_$LT$core..result..Result$LT$T$C$E$GT$$u20$as$u20$core..ops..try_trait..Try$GT$6branch17hc3fc69cf6f24e4efE', symObjAddr: 0x2C90, symBinAddr: 0xA4AC, symSize: 0xC4 }
  - { offset: 0x20E5C, size: 0x8, addend: 0x0, symName: '__ZN79_$LT$core..result..Result$LT$T$C$E$GT$$u20$as$u20$core..ops..try_trait..Try$GT$6branch17hc6fb30e8f12e7453E', symObjAddr: 0x2D54, symBinAddr: 0xA570, symSize: 0xC8 }
  - { offset: 0x20EDA, size: 0x8, addend: 0x0, symName: '__ZN79_$LT$core..result..Result$LT$T$C$E$GT$$u20$as$u20$core..ops..try_trait..Try$GT$6branch17hd02f9ef9eb21fe68E', symObjAddr: 0x2E1C, symBinAddr: 0xA638, symSize: 0xA0 }
  - { offset: 0x20F57, size: 0x8, addend: 0x0, symName: '__ZN79_$LT$core..result..Result$LT$T$C$E$GT$$u20$as$u20$core..ops..try_trait..Try$GT$6branch17he19d069fa1fa7879E', symObjAddr: 0x2EBC, symBinAddr: 0xA6D8, symSize: 0xA0 }
  - { offset: 0x20FD4, size: 0x8, addend: 0x0, symName: '__ZN79_$LT$core..result..Result$LT$T$C$E$GT$$u20$as$u20$core..ops..try_trait..Try$GT$6branch17hfc88b12b8b3868f1E', symObjAddr: 0x2F5C, symBinAddr: 0xA778, symSize: 0xC4 }
  - { offset: 0x21052, size: 0x8, addend: 0x0, symName: '__ZN79_$LT$core..result..Result$LT$T$C$E$GT$$u20$as$u20$core..ops..try_trait..Try$GT$6branch17hfe3e9880aeffcf15E', symObjAddr: 0x3020, symBinAddr: 0xA83C, symSize: 0xC4 }
  - { offset: 0x210D0, size: 0x8, addend: 0x0, symName: '__ZN79_$LT$core..result..Result$LT$T$C$E$GT$$u20$as$u20$core..ops..try_trait..Try$GT$6branch17hffce0641c8874ad5E', symObjAddr: 0x30E4, symBinAddr: 0xA900, symSize: 0xC4 }
  - { offset: 0x24861, size: 0x8, addend: 0x0, symName: '__ZN4core6result19Result$LT$T$C$E$GT$14unwrap_or_else17he8175b54ec331906E', symObjAddr: 0x500, symBinAddr: 0x7D1C, symSize: 0x8C }
  - { offset: 0x248E5, size: 0x8, addend: 0x0, symName: '__ZN4core6result19Result$LT$T$C$E$GT$3map17h08feb7200328cd78E', symObjAddr: 0x58C, symBinAddr: 0x7DA8, symSize: 0x90 }
  - { offset: 0x2499D, size: 0x8, addend: 0x0, symName: '__ZN4core6result19Result$LT$T$C$E$GT$3map17h2acf3054c284132fE', symObjAddr: 0x61C, symBinAddr: 0x7E38, symSize: 0x38 }
  - { offset: 0x24A29, size: 0x8, addend: 0x0, symName: '__ZN4core6result19Result$LT$T$C$E$GT$3map17h3646a976b532b114E', symObjAddr: 0x654, symBinAddr: 0x7E70, symSize: 0x38 }
  - { offset: 0x24AB5, size: 0x8, addend: 0x0, symName: '__ZN4core6result19Result$LT$T$C$E$GT$3map17h8457652707e5a70dE', symObjAddr: 0x68C, symBinAddr: 0x7EA8, symSize: 0x38 }
  - { offset: 0x24B29, size: 0x8, addend: 0x0, symName: '__ZN4core6result19Result$LT$T$C$E$GT$3map17h85e2ec4d38d36e98E', symObjAddr: 0x6C4, symBinAddr: 0x7EE0, symSize: 0x90 }
  - { offset: 0x25149, size: 0x8, addend: 0x0, symName: '__ZN4core6result19Result$LT$T$C$E$GT$3map17h98117482041d5e94E', symObjAddr: 0x754, symBinAddr: 0x7F70, symSize: 0x88 }
  - { offset: 0x251DC, size: 0x8, addend: 0x0, symName: '__ZN4core6result19Result$LT$T$C$E$GT$3map17hcc526ad5ef26c02eE', symObjAddr: 0x7DC, symBinAddr: 0x7FF8, symSize: 0x4C }
  - { offset: 0x25286, size: 0x8, addend: 0x0, symName: '__ZN4core6result19Result$LT$T$C$E$GT$3map17hfc46bcfc2199a4e1E', symObjAddr: 0x828, symBinAddr: 0x8044, symSize: 0x90 }
  - { offset: 0x25319, size: 0x8, addend: 0x0, symName: '__ZN4core6result19Result$LT$T$C$E$GT$6expect17h923e703ee589e182E', symObjAddr: 0x8B8, symBinAddr: 0x80D4, symSize: 0x8C }
  - { offset: 0x253AD, size: 0x8, addend: 0x0, symName: '__ZN4core6result19Result$LT$T$C$E$GT$6is_err17h22f2cf6e41626f3aE', symObjAddr: 0x944, symBinAddr: 0x8160, symSize: 0x20 }
  - { offset: 0x25425, size: 0x8, addend: 0x0, symName: '__ZN4core6result19Result$LT$T$C$E$GT$7map_err17h0a9f45e53720e7b0E', symObjAddr: 0x964, symBinAddr: 0x8180, symSize: 0xAC }
  - { offset: 0x254D0, size: 0x8, addend: 0x0, symName: '__ZN4core6result19Result$LT$T$C$E$GT$7map_err17h0d1f75e1006e3764E', symObjAddr: 0xA10, symBinAddr: 0x822C, symSize: 0xB8 }
  - { offset: 0x2558A, size: 0x8, addend: 0x0, symName: '__ZN4core6result19Result$LT$T$C$E$GT$7map_err17h16b55993af624307E', symObjAddr: 0xAC8, symBinAddr: 0x82E4, symSize: 0xB4 }
  - { offset: 0x25637, size: 0x8, addend: 0x0, symName: '__ZN4core6result19Result$LT$T$C$E$GT$7map_err17h27df7ab5ed711db2E', symObjAddr: 0xB7C, symBinAddr: 0x8398, symSize: 0xB4 }
  - { offset: 0x256CA, size: 0x8, addend: 0x0, symName: '__ZN4core6result19Result$LT$T$C$E$GT$7map_err17h412317ac958c77f7E', symObjAddr: 0xC30, symBinAddr: 0x844C, symSize: 0xB4 }
  - { offset: 0x2575D, size: 0x8, addend: 0x0, symName: '__ZN4core6result19Result$LT$T$C$E$GT$7map_err17h445b551e49a3933bE', symObjAddr: 0xCE4, symBinAddr: 0x8500, symSize: 0xD8 }
  - { offset: 0x25828, size: 0x8, addend: 0x0, symName: '__ZN4core6result19Result$LT$T$C$E$GT$7map_err17h4a58357ac5658dc2E', symObjAddr: 0xDBC, symBinAddr: 0x85D8, symSize: 0x60 }
  - { offset: 0x258BE, size: 0x8, addend: 0x0, symName: '__ZN4core6result19Result$LT$T$C$E$GT$7map_err17h4f8c9707287be756E', symObjAddr: 0xE1C, symBinAddr: 0x8638, symSize: 0xB4 }
  - { offset: 0x25969, size: 0x8, addend: 0x0, symName: '__ZN4core6result19Result$LT$T$C$E$GT$7map_err17h6826a4552cc3b291E', symObjAddr: 0xED0, symBinAddr: 0x86EC, symSize: 0xB0 }
  - { offset: 0x25A09, size: 0x8, addend: 0x0, symName: '__ZN4core6result19Result$LT$T$C$E$GT$7map_err17h756742cf43491d7aE', symObjAddr: 0xF80, symBinAddr: 0x879C, symSize: 0xB4 }
  - { offset: 0x25A9C, size: 0x8, addend: 0x0, symName: '__ZN4core6result19Result$LT$T$C$E$GT$7map_err17h7735c16739947744E', symObjAddr: 0x1034, symBinAddr: 0x8850, symSize: 0x7C }
  - { offset: 0x25B48, size: 0x8, addend: 0x0, symName: '__ZN4core6result19Result$LT$T$C$E$GT$7map_err17h7a5d94212790f784E', symObjAddr: 0x10B0, symBinAddr: 0x88CC, symSize: 0xB4 }
  - { offset: 0x25BFC, size: 0x8, addend: 0x0, symName: '__ZN4core6result19Result$LT$T$C$E$GT$7map_err17h7bc05066148b7e71E', symObjAddr: 0x1164, symBinAddr: 0x8980, symSize: 0xB4 }
  - { offset: 0x25C8F, size: 0x8, addend: 0x0, symName: '__ZN4core6result19Result$LT$T$C$E$GT$7map_err17h94c54b644b491ed3E', symObjAddr: 0x1218, symBinAddr: 0x8A34, symSize: 0x30 }
  - { offset: 0x25D05, size: 0x8, addend: 0x0, symName: '__ZN4core6result19Result$LT$T$C$E$GT$7map_err17hb148e1cf380b8f39E', symObjAddr: 0x1248, symBinAddr: 0x8A64, symSize: 0x48 }
  - { offset: 0x25D95, size: 0x8, addend: 0x0, symName: '__ZN4core6result19Result$LT$T$C$E$GT$7map_err17hbbfd36dee5054640E', symObjAddr: 0x1290, symBinAddr: 0x8AAC, symSize: 0xB4 }
  - { offset: 0x25E42, size: 0x8, addend: 0x0, symName: '__ZN4core6result19Result$LT$T$C$E$GT$7map_err17hbc93d1bcf99d19a9E', symObjAddr: 0x1344, symBinAddr: 0x8B60, symSize: 0xB4 }
  - { offset: 0x25ED5, size: 0x8, addend: 0x0, symName: '__ZN4core6result19Result$LT$T$C$E$GT$7map_err17hcf3d482f8ba91c33E', symObjAddr: 0x13F8, symBinAddr: 0x8C14, symSize: 0xB4 }
  - { offset: 0x25F82, size: 0x8, addend: 0x0, symName: '__ZN4core6result19Result$LT$T$C$E$GT$7map_err17hd1436ee88e877549E', symObjAddr: 0x14AC, symBinAddr: 0x8CC8, symSize: 0xB4 }
  - { offset: 0x26015, size: 0x8, addend: 0x0, symName: '__ZN4core6result19Result$LT$T$C$E$GT$7map_err17hdb7c321136661306E', symObjAddr: 0x1560, symBinAddr: 0x8D7C, symSize: 0x30 }
  - { offset: 0x2608B, size: 0x8, addend: 0x0, symName: '__ZN4core6result19Result$LT$T$C$E$GT$7map_err17heaf1ce889c293f57E', symObjAddr: 0x1590, symBinAddr: 0x8DAC, symSize: 0xD8 }
  - { offset: 0x26137, size: 0x8, addend: 0x0, symName: '__ZN4core6result19Result$LT$T$C$E$GT$7map_err17hf4811023ff280cceE', symObjAddr: 0x1668, symBinAddr: 0x8E84, symSize: 0x84 }
  - { offset: 0x261C9, size: 0x8, addend: 0x0, symName: '__ZN4core6result19Result$LT$T$C$E$GT$7map_err17hfd8be2ad84ce666eE', symObjAddr: 0x16EC, symBinAddr: 0x8F08, symSize: 0xB4 }
  - { offset: 0x26276, size: 0x8, addend: 0x0, symName: '__ZN4core6result19Result$LT$T$C$E$GT$7map_err17hfdca969e3d0cca41E', symObjAddr: 0x17A0, symBinAddr: 0x8FBC, symSize: 0xB4 }
  - { offset: 0x26309, size: 0x8, addend: 0x0, symName: '__ZN4core6result19Result$LT$T$C$E$GT$8and_then17h0ce92ee5bd277129E', symObjAddr: 0x1854, symBinAddr: 0x9070, symSize: 0x88 }
  - { offset: 0x2639C, size: 0x8, addend: 0x0, symName: '__ZN4core6result19Result$LT$T$C$E$GT$8and_then17h1aa0ca1d310b4772E', symObjAddr: 0x18DC, symBinAddr: 0x90F8, symSize: 0x88 }
  - { offset: 0x2642F, size: 0x8, addend: 0x0, symName: '__ZN4core6result19Result$LT$T$C$E$GT$8and_then17h2de013cf3e92f657E', symObjAddr: 0x1964, symBinAddr: 0x9180, symSize: 0x88 }
  - { offset: 0x264C2, size: 0x8, addend: 0x0, symName: '__ZN4core6result19Result$LT$T$C$E$GT$8and_then17h40ee1c207aa406c4E', symObjAddr: 0x19EC, symBinAddr: 0x9208, symSize: 0x88 }
  - { offset: 0x26555, size: 0x8, addend: 0x0, symName: '__ZN4core6result19Result$LT$T$C$E$GT$8and_then17h62fd7b74599ff56eE', symObjAddr: 0x1A74, symBinAddr: 0x9290, symSize: 0x88 }
  - { offset: 0x265E8, size: 0x8, addend: 0x0, symName: '__ZN4core6result19Result$LT$T$C$E$GT$8and_then17h67ac555b6331241aE', symObjAddr: 0x1AFC, symBinAddr: 0x9318, symSize: 0x88 }
  - { offset: 0x2667B, size: 0x8, addend: 0x0, symName: '__ZN4core6result19Result$LT$T$C$E$GT$8and_then17h73826a11d9631996E', symObjAddr: 0x1B84, symBinAddr: 0x93A0, symSize: 0xC8 }
  - { offset: 0x26710, size: 0x8, addend: 0x0, symName: '__ZN4core6result19Result$LT$T$C$E$GT$8and_then17h8c18183bca2180b2E', symObjAddr: 0x1C4C, symBinAddr: 0x9468, symSize: 0x88 }
  - { offset: 0x267A3, size: 0x8, addend: 0x0, symName: '__ZN4core6result19Result$LT$T$C$E$GT$8and_then17h91d608d7070f8aa3E', symObjAddr: 0x1CD4, symBinAddr: 0x94F0, symSize: 0xB0 }
  - { offset: 0x26864, size: 0x8, addend: 0x0, symName: '__ZN4core6result19Result$LT$T$C$E$GT$8and_then17hb34e7ffe24812a69E', symObjAddr: 0x1D84, symBinAddr: 0x95A0, symSize: 0xA4 }
  - { offset: 0x268F9, size: 0x8, addend: 0x0, symName: '__ZN4core6result19Result$LT$T$C$E$GT$8and_then17hd923f05306a7c705E', symObjAddr: 0x1E28, symBinAddr: 0x9644, symSize: 0x94 }
  - { offset: 0x2698C, size: 0x8, addend: 0x0, symName: '__ZN4core6result19Result$LT$T$C$E$GT$8and_then17he60d087a275e9abbE', symObjAddr: 0x1EBC, symBinAddr: 0x96D8, symSize: 0xD4 }
  - { offset: 0x26A21, size: 0x8, addend: 0x0, symName: '__ZN4core6result19Result$LT$T$C$E$GT$8and_then17he949e68e4e3cebfbE', symObjAddr: 0x1F90, symBinAddr: 0x97AC, symSize: 0x88 }
  - { offset: 0x26AB4, size: 0x8, addend: 0x0, symName: '__ZN4core6result19Result$LT$T$C$E$GT$8and_then17hed9afaa4a71a1009E', symObjAddr: 0x2018, symBinAddr: 0x9834, symSize: 0x88 }
  - { offset: 0x26B47, size: 0x8, addend: 0x0, symName: '__ZN4core6result19Result$LT$T$C$E$GT$8and_then17hf17f56474b152cd1E', symObjAddr: 0x20A0, symBinAddr: 0x98BC, symSize: 0x88 }
  - { offset: 0x26BDA, size: 0x8, addend: 0x0, symName: '__ZN4core6result19Result$LT$T$C$E$GT$8and_then17hf45e351df901171bE', symObjAddr: 0x2128, symBinAddr: 0x9944, symSize: 0x88 }
  - { offset: 0x26CDD, size: 0x8, addend: 0x0, symName: '__ZN103_$LT$pyo3..instance..Bound$LT$pyo3..types..any..PyAny$GT$$u20$as$u20$pyo3..types..any..PyAnyMethods$GT$11call_method28_$u7b$$u7b$closure$u7d$$u7d$17hcdb0b4fcb6b18928E', symObjAddr: 0x0, symBinAddr: 0xA9C4, symSize: 0x6C }
  - { offset: 0x26D6A, size: 0x8, addend: 0x0, symName: '__ZN103_$LT$pyo3..instance..Bound$LT$pyo3..types..any..PyAny$GT$$u20$as$u20$pyo3..types..any..PyAnyMethods$GT$11call_method28_$u7b$$u7b$closure$u7d$$u7d$17hcdb0b4fcb6b18928E', symObjAddr: 0x0, symBinAddr: 0xA9C4, symSize: 0x6C }
  - { offset: 0x2789A, size: 0x8, addend: 0x0, symName: '__ZN4pyo311conversions3std6string68_$LT$impl$u20$pyo3..conversion..IntoPyObject$u20$for$u20$$RF$str$GT$13into_pyobject17h800eb4dea18faa9dE', symObjAddr: 0x0, symBinAddr: 0xAA30, symSize: 0x28 }
  - { offset: 0x27927, size: 0x8, addend: 0x0, symName: '__ZN4pyo311conversions3std6string68_$LT$impl$u20$pyo3..conversion..IntoPyObject$u20$for$u20$$RF$str$GT$13into_pyobject17h800eb4dea18faa9dE', symObjAddr: 0x0, symBinAddr: 0xAA30, symSize: 0x28 }
  - { offset: 0x27CBE, size: 0x8, addend: 0x0, symName: __ZN4core3ptr9alignment9Alignment13new_unchecked18precondition_check17h77b47631700c4d1aE, symObjAddr: 0x0, symBinAddr: 0xAA58, symSize: 0x70 }
  - { offset: 0x27D2A, size: 0x8, addend: 0x0, symName: __ZN4core3ptr9alignment9Alignment13new_unchecked18precondition_check17h77b47631700c4d1aE, symObjAddr: 0x0, symBinAddr: 0xAA58, symSize: 0x70 }
  - { offset: 0x27E10, size: 0x8, addend: 0x0, symName: __ZN8bytemuck8internal13is_aligned_to17h093952e517337136E, symObjAddr: 0x0, symBinAddr: 0xAAC8, symSize: 0x58 }
  - { offset: 0x27E27, size: 0x8, addend: 0x0, symName: __ZN8bytemuck8internal13is_aligned_to17h093952e517337136E, symObjAddr: 0x0, symBinAddr: 0xAAC8, symSize: 0x58 }
  - { offset: 0x27EA3, size: 0x8, addend: 0x0, symName: '__ZN4pyo35impl_4wrap30IntoPyObjectConverter$LT$T$GT$4wrap17h5f0071c21ee295a2E', symObjAddr: 0x0, symBinAddr: 0xAB20, symSize: 0x34 }
  - { offset: 0x292EC, size: 0x8, addend: 0x0, symName: '__ZN4pyo35impl_4wrap62IntoPyObjectConverter$LT$core..result..Result$LT$T$C$E$GT$$GT$12map_into_ptr28_$u7b$$u7b$closure$u7d$$u7d$17h2efc6a4bd0f1631cE', symObjAddr: 0x1B0, symBinAddr: 0xACD0, symSize: 0x40 }
  - { offset: 0x29344, size: 0x8, addend: 0x0, symName: '__ZN4pyo35impl_4wrap62IntoPyObjectConverter$LT$core..result..Result$LT$T$C$E$GT$$GT$12map_into_ptr28_$u7b$$u7b$closure$u7d$$u7d$17h2ff06add9a6c56f8E', symObjAddr: 0x1F0, symBinAddr: 0xAD10, symSize: 0x34 }
  - { offset: 0x2939C, size: 0x8, addend: 0x0, symName: '__ZN4pyo35impl_4wrap62IntoPyObjectConverter$LT$core..result..Result$LT$T$C$E$GT$$GT$12map_into_ptr28_$u7b$$u7b$closure$u7d$$u7d$17h4fda0907aa1784b3E', symObjAddr: 0x224, symBinAddr: 0xAD44, symSize: 0x48 }
  - { offset: 0x293F4, size: 0x8, addend: 0x0, symName: '__ZN4pyo35impl_4wrap62IntoPyObjectConverter$LT$core..result..Result$LT$T$C$E$GT$$GT$12map_into_ptr28_$u7b$$u7b$closure$u7d$$u7d$17h7e486fc56435bafeE', symObjAddr: 0x26C, symBinAddr: 0xAD8C, symSize: 0x30 }
  - { offset: 0x29499, size: 0x8, addend: 0x0, symName: __ZN4pyo35impl_4wrap9converter17h12dadcd31950f355E, symObjAddr: 0x304, symBinAddr: 0xAE24, symSize: 0x10 }
  - { offset: 0x294C6, size: 0x8, addend: 0x0, symName: __ZN4pyo35impl_4wrap9converter17h2500c98e2f958328E, symObjAddr: 0x314, symBinAddr: 0xAE34, symSize: 0x10 }
  - { offset: 0x294F3, size: 0x8, addend: 0x0, symName: __ZN4pyo35impl_4wrap9converter17h4f73a7e003324041E, symObjAddr: 0x324, symBinAddr: 0xAE44, symSize: 0x10 }
  - { offset: 0x29520, size: 0x8, addend: 0x0, symName: __ZN4pyo35impl_4wrap9converter17h7a43a6301d6ca491E, symObjAddr: 0x334, symBinAddr: 0xAE54, symSize: 0x10 }
  - { offset: 0x2954D, size: 0x8, addend: 0x0, symName: __ZN4pyo35impl_4wrap9converter17hdb4f69a2fd8c896fE, symObjAddr: 0x344, symBinAddr: 0xAE64, symSize: 0x10 }
  - { offset: 0x2957A, size: 0x8, addend: 0x0, symName: __ZN4pyo35impl_4wrap9converter17he44a70b2b19e43c1E, symObjAddr: 0x354, symBinAddr: 0xAE74, symSize: 0x10 }
  - { offset: 0x295AC, size: 0x8, addend: 0x0, symName: '__ZN81_$LT$pyo3..impl_..wrap..Converter$LT$T$GT$$u20$as$u20$core..ops..deref..Deref$GT$5deref17h022169ab3249ae29E', symObjAddr: 0x364, symBinAddr: 0xAE84, symSize: 0x14 }
  - { offset: 0x295E1, size: 0x8, addend: 0x0, symName: '__ZN81_$LT$pyo3..impl_..wrap..Converter$LT$T$GT$$u20$as$u20$core..ops..deref..Deref$GT$5deref17h177a2e0cc6905df7E', symObjAddr: 0x378, symBinAddr: 0xAE98, symSize: 0x14 }
  - { offset: 0x29616, size: 0x8, addend: 0x0, symName: '__ZN81_$LT$pyo3..impl_..wrap..Converter$LT$T$GT$$u20$as$u20$core..ops..deref..Deref$GT$5deref17h1afb1d2f4a6be362E', symObjAddr: 0x38C, symBinAddr: 0xAEAC, symSize: 0x14 }
  - { offset: 0x2964B, size: 0x8, addend: 0x0, symName: '__ZN81_$LT$pyo3..impl_..wrap..Converter$LT$T$GT$$u20$as$u20$core..ops..deref..Deref$GT$5deref17h5c77b021082a531cE', symObjAddr: 0x3A0, symBinAddr: 0xAEC0, symSize: 0x14 }
  - { offset: 0x29680, size: 0x8, addend: 0x0, symName: '__ZN81_$LT$pyo3..impl_..wrap..Converter$LT$T$GT$$u20$as$u20$core..ops..deref..Deref$GT$5deref17h9b13ee3666a33b9aE', symObjAddr: 0x3B4, symBinAddr: 0xAED4, symSize: 0x14 }
  - { offset: 0x296B5, size: 0x8, addend: 0x0, symName: '__ZN81_$LT$pyo3..impl_..wrap..Converter$LT$T$GT$$u20$as$u20$core..ops..deref..Deref$GT$5deref17hdae3d00dd530ceaeE', symObjAddr: 0x3C8, symBinAddr: 0xAEE8, symSize: 0x14 }
  - { offset: 0x296F0, size: 0x8, addend: 0x0, symName: '__ZN91_$LT$pyo3..impl_..wrap..EmptyTupleConverter$LT$T$GT$$u20$as$u20$core..ops..deref..Deref$GT$5deref17h154d5898a350021aE', symObjAddr: 0x3DC, symBinAddr: 0xAEFC, symSize: 0x14 }
  - { offset: 0x29725, size: 0x8, addend: 0x0, symName: '__ZN91_$LT$pyo3..impl_..wrap..EmptyTupleConverter$LT$T$GT$$u20$as$u20$core..ops..deref..Deref$GT$5deref17h38d0f6e7aa5985a9E', symObjAddr: 0x3F0, symBinAddr: 0xAF10, symSize: 0x14 }
  - { offset: 0x2975A, size: 0x8, addend: 0x0, symName: '__ZN91_$LT$pyo3..impl_..wrap..EmptyTupleConverter$LT$T$GT$$u20$as$u20$core..ops..deref..Deref$GT$5deref17h772d1853e9ba8f7aE', symObjAddr: 0x404, symBinAddr: 0xAF24, symSize: 0x14 }
  - { offset: 0x2978F, size: 0x8, addend: 0x0, symName: '__ZN91_$LT$pyo3..impl_..wrap..EmptyTupleConverter$LT$T$GT$$u20$as$u20$core..ops..deref..Deref$GT$5deref17h77d2706eaf444934E', symObjAddr: 0x418, symBinAddr: 0xAF38, symSize: 0x14 }
  - { offset: 0x297C4, size: 0x8, addend: 0x0, symName: '__ZN91_$LT$pyo3..impl_..wrap..EmptyTupleConverter$LT$T$GT$$u20$as$u20$core..ops..deref..Deref$GT$5deref17h805caa4e305b107fE', symObjAddr: 0x42C, symBinAddr: 0xAF4C, symSize: 0x14 }
  - { offset: 0x297F9, size: 0x8, addend: 0x0, symName: '__ZN91_$LT$pyo3..impl_..wrap..EmptyTupleConverter$LT$T$GT$$u20$as$u20$core..ops..deref..Deref$GT$5deref17hd9185d072b5f406fE', symObjAddr: 0x440, symBinAddr: 0xAF60, symSize: 0x14 }
  - { offset: 0x2A4AE, size: 0x8, addend: 0x0, symName: '__ZN4pyo35impl_4wrap30IntoPyObjectConverter$LT$T$GT$4wrap17h5f0071c21ee295a2E', symObjAddr: 0x0, symBinAddr: 0xAB20, symSize: 0x34 }
  - { offset: 0x2A4F5, size: 0x8, addend: 0x0, symName: '__ZN4pyo35impl_4wrap30IntoPyObjectConverter$LT$T$GT$4wrap17hfc619935eb0311e9E', symObjAddr: 0x34, symBinAddr: 0xAB54, symSize: 0x24 }
  - { offset: 0x2A67D, size: 0x8, addend: 0x0, symName: '__ZN4pyo35impl_4wrap62IntoPyObjectConverter$LT$core..result..Result$LT$T$C$E$GT$$GT$12map_into_ptr17h5ef59a0f40db60adE', symObjAddr: 0x58, symBinAddr: 0xAB78, symSize: 0x54 }
  - { offset: 0x2A6E8, size: 0x8, addend: 0x0, symName: '__ZN4pyo35impl_4wrap62IntoPyObjectConverter$LT$core..result..Result$LT$T$C$E$GT$$GT$12map_into_ptr17h8ce745f2021f7788E', symObjAddr: 0xAC, symBinAddr: 0xABCC, symSize: 0x54 }
  - { offset: 0x2A753, size: 0x8, addend: 0x0, symName: '__ZN4pyo35impl_4wrap62IntoPyObjectConverter$LT$core..result..Result$LT$T$C$E$GT$$GT$12map_into_ptr17ha78449cb48447e46E', symObjAddr: 0x100, symBinAddr: 0xAC20, symSize: 0x54 }
  - { offset: 0x2AB6A, size: 0x8, addend: 0x0, symName: '__ZN4pyo35impl_4wrap62IntoPyObjectConverter$LT$core..result..Result$LT$T$C$E$GT$$GT$12map_into_ptr17hd49f57a06038f62bE', symObjAddr: 0x154, symBinAddr: 0xAC74, symSize: 0x5C }
  - { offset: 0x2ABC8, size: 0x8, addend: 0x0, symName: '__ZN4pyo35impl_4wrap62IntoPyObjectConverter$LT$core..result..Result$LT$T$C$E$GT$$GT$4wrap17h4220e4338d0a10e6E', symObjAddr: 0x29C, symBinAddr: 0xADBC, symSize: 0x34 }
  - { offset: 0x2AC0B, size: 0x8, addend: 0x0, symName: '__ZN4pyo35impl_4wrap62IntoPyObjectConverter$LT$core..result..Result$LT$T$C$E$GT$$GT$4wrap17h6ac04265d81927afE', symObjAddr: 0x2D0, symBinAddr: 0xADF0, symSize: 0x34 }
  - { offset: 0x2AD63, size: 0x8, addend: 0x0, symName: '__ZN103_$LT$pyo3..instance..Bound$LT$pyo3..types..any..PyAny$GT$$u20$as$u20$pyo3..types..any..PyAnyMethods$GT$11call_method17h82f9bf2525115e8bE', symObjAddr: 0x0, symBinAddr: 0xAF74, symSize: 0xB4 }
  - { offset: 0x2AE1E, size: 0x8, addend: 0x0, symName: '__ZN4core5slice29_$LT$impl$u20$$u5b$T$u5d$$GT$4iter17h292f70c10af01964E', symObjAddr: 0x1D30, symBinAddr: 0xCCA4, symSize: 0x28 }
  - { offset: 0x2C8F7, size: 0x8, addend: 0x0, symName: '__ZN50_$LT$T$u20$as$u20$core..convert..Into$LT$U$GT$$GT$4into17h16254de1751f00fcE', symObjAddr: 0x3388, symBinAddr: 0xE2FC, symSize: 0x24 }
  - { offset: 0x2C937, size: 0x8, addend: 0x0, symName: '__ZN50_$LT$T$u20$as$u20$core..convert..Into$LT$U$GT$$GT$4into17h5070262b4f212cdeE', symObjAddr: 0x33AC, symBinAddr: 0xE320, symSize: 0x24 }
  - { offset: 0x2C977, size: 0x8, addend: 0x0, symName: '__ZN50_$LT$T$u20$as$u20$core..convert..Into$LT$U$GT$$GT$4into17h58cf2befdd7e0601E', symObjAddr: 0x33D0, symBinAddr: 0xE344, symSize: 0x24 }
  - { offset: 0x2C9B7, size: 0x8, addend: 0x0, symName: '__ZN50_$LT$T$u20$as$u20$core..convert..Into$LT$U$GT$$GT$4into17h8c4ac3b75b8742deE', symObjAddr: 0x33F4, symBinAddr: 0xE368, symSize: 0x24 }
  - { offset: 0x2C9F7, size: 0x8, addend: 0x0, symName: '__ZN50_$LT$T$u20$as$u20$core..convert..Into$LT$U$GT$$GT$4into17h99b98b9d444c7fc7E', symObjAddr: 0x3418, symBinAddr: 0xE38C, symSize: 0x24 }
  - { offset: 0x2CA37, size: 0x8, addend: 0x0, symName: '__ZN50_$LT$T$u20$as$u20$core..convert..Into$LT$U$GT$$GT$4into17hc63272dcfc69604bE', symObjAddr: 0x343C, symBinAddr: 0xE3B0, symSize: 0x24 }
  - { offset: 0x2CA7D, size: 0x8, addend: 0x0, symName: '__ZN53_$LT$T$u20$as$u20$core..convert..TryFrom$LT$U$GT$$GT$8try_from17h2ba540d35621f1f4E', symObjAddr: 0x3460, symBinAddr: 0xE3D4, symSize: 0x2C }
  - { offset: 0x2CE64, size: 0x8, addend: 0x0, symName: '__ZN103_$LT$pyo3..instance..Bound$LT$pyo3..types..any..PyAny$GT$$u20$as$u20$pyo3..types..any..PyAnyMethods$GT$11call_method17h82f9bf2525115e8bE', symObjAddr: 0x0, symBinAddr: 0xAF74, symSize: 0xB4 }
  - { offset: 0x2CED1, size: 0x8, addend: 0x0, symName: '__ZN103_$LT$pyo3..instance..Bound$LT$pyo3..types..any..PyAny$GT$$u20$as$u20$pyo3..types..any..PyAnyMethods$GT$12call_method117h74d963b5fdab2ea0E', symObjAddr: 0xB4, symBinAddr: 0xB028, symSize: 0x40 }
  - { offset: 0x2CF2F, size: 0x8, addend: 0x0, symName: '__ZN103_$LT$pyo3..instance..Bound$LT$pyo3..types..any..PyAny$GT$$u20$as$u20$pyo3..types..any..PyAnyMethods$GT$18downcast_unchecked17h2dd0b8e51feab6fcE', symObjAddr: 0xF4, symBinAddr: 0xB068, symSize: 0x74 }
  - { offset: 0x2CF66, size: 0x8, addend: 0x0, symName: '__ZN103_$LT$pyo3..instance..Bound$LT$pyo3..types..any..PyAny$GT$$u20$as$u20$pyo3..types..any..PyAnyMethods$GT$23downcast_into_unchecked17h0f046983b1da147aE', symObjAddr: 0x168, symBinAddr: 0xB0DC, symSize: 0x14 }
  - { offset: 0x2CF9D, size: 0x8, addend: 0x0, symName: '__ZN103_$LT$pyo3..instance..Bound$LT$pyo3..types..any..PyAny$GT$$u20$as$u20$pyo3..types..any..PyAnyMethods$GT$23downcast_into_unchecked17h12bf0b284f6be050E', symObjAddr: 0x17C, symBinAddr: 0xB0F0, symSize: 0x14 }
  - { offset: 0x2CFD4, size: 0x8, addend: 0x0, symName: '__ZN103_$LT$pyo3..instance..Bound$LT$pyo3..types..any..PyAny$GT$$u20$as$u20$pyo3..types..any..PyAnyMethods$GT$23downcast_into_unchecked17h1b5550584188ea8dE', symObjAddr: 0x190, symBinAddr: 0xB104, symSize: 0x14 }
  - { offset: 0x2D00B, size: 0x8, addend: 0x0, symName: '__ZN103_$LT$pyo3..instance..Bound$LT$pyo3..types..any..PyAny$GT$$u20$as$u20$pyo3..types..any..PyAnyMethods$GT$23downcast_into_unchecked17h22289fdbeca969f8E', symObjAddr: 0x1A4, symBinAddr: 0xB118, symSize: 0x14 }
  - { offset: 0x2D042, size: 0x8, addend: 0x0, symName: '__ZN103_$LT$pyo3..instance..Bound$LT$pyo3..types..any..PyAny$GT$$u20$as$u20$pyo3..types..any..PyAnyMethods$GT$23downcast_into_unchecked17h2dbcef1707120d5eE', symObjAddr: 0x1B8, symBinAddr: 0xB12C, symSize: 0x14 }
  - { offset: 0x2D079, size: 0x8, addend: 0x0, symName: '__ZN103_$LT$pyo3..instance..Bound$LT$pyo3..types..any..PyAny$GT$$u20$as$u20$pyo3..types..any..PyAnyMethods$GT$23downcast_into_unchecked17h339832fb050f2c6fE', symObjAddr: 0x1CC, symBinAddr: 0xB140, symSize: 0x14 }
  - { offset: 0x2D0B0, size: 0x8, addend: 0x0, symName: '__ZN103_$LT$pyo3..instance..Bound$LT$pyo3..types..any..PyAny$GT$$u20$as$u20$pyo3..types..any..PyAnyMethods$GT$23downcast_into_unchecked17h3407b4d6ae12d835E', symObjAddr: 0x1E0, symBinAddr: 0xB154, symSize: 0x14 }
  - { offset: 0x2D0E7, size: 0x8, addend: 0x0, symName: '__ZN103_$LT$pyo3..instance..Bound$LT$pyo3..types..any..PyAny$GT$$u20$as$u20$pyo3..types..any..PyAnyMethods$GT$23downcast_into_unchecked17h34ed3b6f60e09dafE', symObjAddr: 0x1F4, symBinAddr: 0xB168, symSize: 0x14 }
  - { offset: 0x2D11E, size: 0x8, addend: 0x0, symName: '__ZN103_$LT$pyo3..instance..Bound$LT$pyo3..types..any..PyAny$GT$$u20$as$u20$pyo3..types..any..PyAnyMethods$GT$23downcast_into_unchecked17h533d277436755331E', symObjAddr: 0x208, symBinAddr: 0xB17C, symSize: 0x14 }
  - { offset: 0x2D155, size: 0x8, addend: 0x0, symName: '__ZN103_$LT$pyo3..instance..Bound$LT$pyo3..types..any..PyAny$GT$$u20$as$u20$pyo3..types..any..PyAnyMethods$GT$23downcast_into_unchecked17h63a386824617f3ddE', symObjAddr: 0x21C, symBinAddr: 0xB190, symSize: 0x14 }
  - { offset: 0x2D18C, size: 0x8, addend: 0x0, symName: '__ZN103_$LT$pyo3..instance..Bound$LT$pyo3..types..any..PyAny$GT$$u20$as$u20$pyo3..types..any..PyAnyMethods$GT$23downcast_into_unchecked17h64835f999dedcda9E', symObjAddr: 0x230, symBinAddr: 0xB1A4, symSize: 0x14 }
  - { offset: 0x2D1C3, size: 0x8, addend: 0x0, symName: '__ZN103_$LT$pyo3..instance..Bound$LT$pyo3..types..any..PyAny$GT$$u20$as$u20$pyo3..types..any..PyAnyMethods$GT$23downcast_into_unchecked17h64abd8de2f7dbbc6E', symObjAddr: 0x244, symBinAddr: 0xB1B8, symSize: 0x14 }
  - { offset: 0x2D1FA, size: 0x8, addend: 0x0, symName: '__ZN103_$LT$pyo3..instance..Bound$LT$pyo3..types..any..PyAny$GT$$u20$as$u20$pyo3..types..any..PyAnyMethods$GT$23downcast_into_unchecked17h7dd9c8d6c23b852aE', symObjAddr: 0x258, symBinAddr: 0xB1CC, symSize: 0x14 }
  - { offset: 0x2D231, size: 0x8, addend: 0x0, symName: '__ZN103_$LT$pyo3..instance..Bound$LT$pyo3..types..any..PyAny$GT$$u20$as$u20$pyo3..types..any..PyAnyMethods$GT$23downcast_into_unchecked17h9e7f52e021472320E', symObjAddr: 0x26C, symBinAddr: 0xB1E0, symSize: 0x14 }
  - { offset: 0x2D268, size: 0x8, addend: 0x0, symName: '__ZN103_$LT$pyo3..instance..Bound$LT$pyo3..types..any..PyAny$GT$$u20$as$u20$pyo3..types..any..PyAnyMethods$GT$23downcast_into_unchecked17ha621678e899cd20fE', symObjAddr: 0x280, symBinAddr: 0xB1F4, symSize: 0x14 }
  - { offset: 0x2D29F, size: 0x8, addend: 0x0, symName: '__ZN103_$LT$pyo3..instance..Bound$LT$pyo3..types..any..PyAny$GT$$u20$as$u20$pyo3..types..any..PyAnyMethods$GT$23downcast_into_unchecked17hae377e5bc59d51e8E', symObjAddr: 0x294, symBinAddr: 0xB208, symSize: 0x14 }
  - { offset: 0x2D2D6, size: 0x8, addend: 0x0, symName: '__ZN103_$LT$pyo3..instance..Bound$LT$pyo3..types..any..PyAny$GT$$u20$as$u20$pyo3..types..any..PyAnyMethods$GT$23downcast_into_unchecked17hb5067266826b1f5cE', symObjAddr: 0x2A8, symBinAddr: 0xB21C, symSize: 0x14 }
  - { offset: 0x2D30D, size: 0x8, addend: 0x0, symName: '__ZN103_$LT$pyo3..instance..Bound$LT$pyo3..types..any..PyAny$GT$$u20$as$u20$pyo3..types..any..PyAnyMethods$GT$23downcast_into_unchecked17hbfe7829d10874dc0E', symObjAddr: 0x2BC, symBinAddr: 0xB230, symSize: 0x14 }
  - { offset: 0x2D344, size: 0x8, addend: 0x0, symName: '__ZN103_$LT$pyo3..instance..Bound$LT$pyo3..types..any..PyAny$GT$$u20$as$u20$pyo3..types..any..PyAnyMethods$GT$23downcast_into_unchecked17hd095a1d32fced140E', symObjAddr: 0x2D0, symBinAddr: 0xB244, symSize: 0x14 }
  - { offset: 0x2D37B, size: 0x8, addend: 0x0, symName: '__ZN103_$LT$pyo3..instance..Bound$LT$pyo3..types..any..PyAny$GT$$u20$as$u20$pyo3..types..any..PyAnyMethods$GT$23downcast_into_unchecked17hefe1031ba37143a6E', symObjAddr: 0x2E4, symBinAddr: 0xB258, symSize: 0x14 }
  - { offset: 0x2D3B2, size: 0x8, addend: 0x0, symName: '__ZN103_$LT$pyo3..instance..Bound$LT$pyo3..types..any..PyAny$GT$$u20$as$u20$pyo3..types..any..PyAnyMethods$GT$23downcast_into_unchecked17hfbe701d897d40a3bE', symObjAddr: 0x2F8, symBinAddr: 0xB26C, symSize: 0x14 }
  - { offset: 0x2D3E9, size: 0x8, addend: 0x0, symName: '__ZN103_$LT$pyo3..instance..Bound$LT$pyo3..types..any..PyAny$GT$$u20$as$u20$pyo3..types..any..PyAnyMethods$GT$4call17h0f0ee59c39c1aa80E', symObjAddr: 0x30C, symBinAddr: 0xB280, symSize: 0x168 }
  - { offset: 0x2D48E, size: 0x8, addend: 0x0, symName: '__ZN103_$LT$pyo3..instance..Bound$LT$pyo3..types..any..PyAny$GT$$u20$as$u20$pyo3..types..any..PyAnyMethods$GT$7extract17h7205868d0b66c9fdE', symObjAddr: 0x474, symBinAddr: 0xB3E8, symSize: 0x30 }
  - { offset: 0x2D4C5, size: 0x8, addend: 0x0, symName: '__ZN103_$LT$pyo3..instance..Bound$LT$pyo3..types..any..PyAny$GT$$u20$as$u20$pyo3..types..any..PyAnyMethods$GT$7extract17h77c83ed19391b1d4E', symObjAddr: 0x4A4, symBinAddr: 0xB418, symSize: 0x30 }
  - { offset: 0x2D4FC, size: 0x8, addend: 0x0, symName: '__ZN103_$LT$pyo3..instance..Bound$LT$pyo3..types..any..PyAny$GT$$u20$as$u20$pyo3..types..any..PyAnyMethods$GT$7extract17hafed680a7a1e73c0E', symObjAddr: 0x4D4, symBinAddr: 0xB448, symSize: 0x30 }
  - { offset: 0x2D533, size: 0x8, addend: 0x0, symName: '__ZN103_$LT$pyo3..instance..Bound$LT$pyo3..types..any..PyAny$GT$$u20$as$u20$pyo3..types..any..PyAnyMethods$GT$7setattr17h88e84750304522c3E', symObjAddr: 0x504, symBinAddr: 0xB478, symSize: 0x25C }
  - { offset: 0x2D600, size: 0x8, addend: 0x0, symName: '__ZN103_$LT$pyo3..instance..Bound$LT$pyo3..types..any..PyAny$GT$$u20$as$u20$pyo3..types..any..PyAnyMethods$GT$8downcast17h2e1c239726ddf8d5E', symObjAddr: 0x760, symBinAddr: 0xB6D4, symSize: 0x84 }
  - { offset: 0x2D658, size: 0x8, addend: 0x0, symName: '__ZN107_$LT$pyo3..instance..Bound$LT$pyo3..types..dict..PyDict$GT$$u20$as$u20$pyo3..types..dict..PyDictMethods$GT$8set_item17h3c4890ace72373afE', symObjAddr: 0x7E4, symBinAddr: 0xB758, symSize: 0x2A4 }
  - { offset: 0x2D706, size: 0x8, addend: 0x0, symName: '__ZN107_$LT$pyo3..instance..Bound$LT$pyo3..types..dict..PyDict$GT$$u20$as$u20$pyo3..types..dict..PyDictMethods$GT$8set_item17h61cc2bb9461db87eE', symObjAddr: 0xA88, symBinAddr: 0xB9FC, symSize: 0x298 }
  - { offset: 0x2D7B4, size: 0x8, addend: 0x0, symName: '__ZN107_$LT$pyo3..instance..Bound$LT$pyo3..types..dict..PyDict$GT$$u20$as$u20$pyo3..types..dict..PyDictMethods$GT$8set_item17h762ac07148ce0929E', symObjAddr: 0xD20, symBinAddr: 0xBC94, symSize: 0x28C }
  - { offset: 0x2D862, size: 0x8, addend: 0x0, symName: '__ZN107_$LT$pyo3..instance..Bound$LT$pyo3..types..dict..PyDict$GT$$u20$as$u20$pyo3..types..dict..PyDictMethods$GT$8set_item17h998f5e7e6eb8769dE', symObjAddr: 0xFAC, symBinAddr: 0xBF20, symSize: 0x27C }
  - { offset: 0x2D910, size: 0x8, addend: 0x0, symName: '__ZN107_$LT$pyo3..instance..Bound$LT$pyo3..types..dict..PyDict$GT$$u20$as$u20$pyo3..types..dict..PyDictMethods$GT$8set_item17hb3fc14566434d8ceE', symObjAddr: 0x1228, symBinAddr: 0xC19C, symSize: 0x2C8 }
  - { offset: 0x2D9BE, size: 0x8, addend: 0x0, symName: '__ZN107_$LT$pyo3..instance..Bound$LT$pyo3..types..dict..PyDict$GT$$u20$as$u20$pyo3..types..dict..PyDictMethods$GT$8set_item17hfd713ecf378933a6E', symObjAddr: 0x14F0, symBinAddr: 0xC464, symSize: 0x2A4 }
  - { offset: 0x2DA8D, size: 0x8, addend: 0x0, symName: '__ZN107_$LT$pyo3..instance..Bound$LT$pyo3..types..list..PyList$GT$$u20$as$u20$pyo3..types..list..PyListMethods$GT$6append17h1303eba508a33762E', symObjAddr: 0x1794, symBinAddr: 0xC708, symSize: 0x164 }
  - { offset: 0x2DB24, size: 0x8, addend: 0x0, symName: '__ZN115_$LT$pyo3..instance..Bound$LT$pyo3..types..module..PyModule$GT$$u20$as$u20$pyo3..types..module..PyModuleMethods$GT$3add17haff8cb53f538a177E', symObjAddr: 0x192C, symBinAddr: 0xC8A0, symSize: 0x25C }
  - { offset: 0x2DBF1, size: 0x8, addend: 0x0, symName: '__ZN115_$LT$pyo3..instance..Bound$LT$pyo3..types..module..PyModule$GT$$u20$as$u20$pyo3..types..module..PyModuleMethods$GT$9add_class17h9e61cc5547972fa1E', symObjAddr: 0x1B88, symBinAddr: 0xCAFC, symSize: 0xD0 }
  - { offset: 0x2DD4B, size: 0x8, addend: 0x0, symName: '__ZN111_$LT$T$u20$as$u20$pyo3..impl_..callback..IntoPyCallbackOutput$LT$$BP$mut$u20$pyo3_ffi..object..PyObject$GT$$GT$7convert17h381d71408f2664a8E', symObjAddr: 0x18F8, symBinAddr: 0xC86C, symSize: 0x34 }
  - { offset: 0x2DDA5, size: 0x8, addend: 0x0, symName: '__ZN4pyo35impl_9pymethods129_$LT$impl$u20$core..convert..From$LT$pyo3..impl_..pymethods..BoundRef$LT$T$GT$$GT$$u20$for$u20$pyo3..instance..Bound$LT$T$GT$$GT$4from17h0ddbb608e6183ce4E', symObjAddr: 0x1E30, symBinAddr: 0xCDA4, symSize: 0x24 }
  - { offset: 0x2DDE2, size: 0x8, addend: 0x0, symName: '__ZN4pyo35impl_9pymethods133_$LT$impl$u20$core..convert..From$LT$pyo3..impl_..pymethods..BoundRef$LT$T$GT$$GT$$u20$for$u20$$RF$pyo3..instance..Bound$LT$T$GT$$GT$4from17hd290595aeefc4ca6E', symObjAddr: 0x1E54, symBinAddr: 0xCDC8, symSize: 0x14 }
  - { offset: 0x2DEA9, size: 0x8, addend: 0x0, symName: '__ZN124_$LT$pyo3..instance..Py$LT$pyo3..types..any..PyAny$GT$$u20$as$u20$core..convert..From$LT$pyo3..instance..Py$LT$T$GT$$GT$$GT$4from17h259aee3e4031f8a7E', symObjAddr: 0x1C58, symBinAddr: 0xCBCC, symSize: 0x24 }
  - { offset: 0x2DEE0, size: 0x8, addend: 0x0, symName: '__ZN124_$LT$pyo3..instance..Py$LT$pyo3..types..any..PyAny$GT$$u20$as$u20$core..convert..From$LT$pyo3..instance..Py$LT$T$GT$$GT$$GT$4from17h388f707ae12cfbc0E', symObjAddr: 0x1C7C, symBinAddr: 0xCBF0, symSize: 0x24 }
  - { offset: 0x2DF17, size: 0x8, addend: 0x0, symName: '__ZN124_$LT$pyo3..instance..Py$LT$pyo3..types..any..PyAny$GT$$u20$as$u20$core..convert..From$LT$pyo3..instance..Py$LT$T$GT$$GT$$GT$4from17h39053064a4fc6deaE', symObjAddr: 0x1CA0, symBinAddr: 0xCC14, symSize: 0x24 }
  - { offset: 0x2DF4E, size: 0x8, addend: 0x0, symName: '__ZN124_$LT$pyo3..instance..Py$LT$pyo3..types..any..PyAny$GT$$u20$as$u20$core..convert..From$LT$pyo3..instance..Py$LT$T$GT$$GT$$GT$4from17h648931f9ceea6775E', symObjAddr: 0x1CC4, symBinAddr: 0xCC38, symSize: 0x24 }
  - { offset: 0x2DF85, size: 0x8, addend: 0x0, symName: '__ZN124_$LT$pyo3..instance..Py$LT$pyo3..types..any..PyAny$GT$$u20$as$u20$core..convert..From$LT$pyo3..instance..Py$LT$T$GT$$GT$$GT$4from17hbcd77689f63e1ac7E', symObjAddr: 0x1CE8, symBinAddr: 0xCC5C, symSize: 0x24 }
  - { offset: 0x2DFBC, size: 0x8, addend: 0x0, symName: '__ZN124_$LT$pyo3..instance..Py$LT$pyo3..types..any..PyAny$GT$$u20$as$u20$core..convert..From$LT$pyo3..instance..Py$LT$T$GT$$GT$$GT$4from17hc3d59affbbaca448E', symObjAddr: 0x1D0C, symBinAddr: 0xCC80, symSize: 0x24 }
  - { offset: 0x2F77E, size: 0x8, addend: 0x0, symName: '__ZN69_$LT$pyo3..instance..Bound$LT$T$GT$$u20$as$u20$core..clone..Clone$GT$5clone17h78cfc246dfbfa1fbE', symObjAddr: 0x348C, symBinAddr: 0xE400, symSize: 0x34 }
  - { offset: 0x2F7B5, size: 0x8, addend: 0x0, symName: '__ZN69_$LT$pyo3..instance..Bound$LT$T$GT$$u20$as$u20$core..clone..Clone$GT$5clone17hd588edd78d73eb3cE', symObjAddr: 0x34C0, symBinAddr: 0xE434, symSize: 0x34 }
  - { offset: 0x2F7F2, size: 0x8, addend: 0x0, symName: '__ZN77_$LT$pyo3..instance..Borrowed$LT$T$GT$$u20$as$u20$core..ops..deref..Deref$GT$5deref17h66906d325d51bd47E', symObjAddr: 0x34F4, symBinAddr: 0xE468, symSize: 0x74 }
  - { offset: 0x2F82F, size: 0x8, addend: 0x0, symName: '__ZN87_$LT$pyo3..instance..Bound$LT$T$GT$$u20$as$u20$pyo3..instance..BoundObject$LT$T$GT$$GT$8into_any17h0016d80f13678643E', symObjAddr: 0x357C, symBinAddr: 0xE4F0, symSize: 0x24 }
  - { offset: 0x2F866, size: 0x8, addend: 0x0, symName: '__ZN87_$LT$pyo3..instance..Bound$LT$T$GT$$u20$as$u20$pyo3..instance..BoundObject$LT$T$GT$$GT$8into_any17h28ce2519157f2134E', symObjAddr: 0x35A0, symBinAddr: 0xE514, symSize: 0x24 }
  - { offset: 0x2F89D, size: 0x8, addend: 0x0, symName: '__ZN87_$LT$pyo3..instance..Bound$LT$T$GT$$u20$as$u20$pyo3..instance..BoundObject$LT$T$GT$$GT$8into_ptr17h2f82f8f828ceaf7fE', symObjAddr: 0x35C4, symBinAddr: 0xE538, symSize: 0x24 }
  - { offset: 0x2F8D4, size: 0x8, addend: 0x0, symName: '__ZN87_$LT$pyo3..instance..Bound$LT$T$GT$$u20$as$u20$pyo3..instance..BoundObject$LT$T$GT$$GT$8into_ptr17h4d3de70233347e8bE', symObjAddr: 0x35E8, symBinAddr: 0xE55C, symSize: 0x24 }
  - { offset: 0x2F90B, size: 0x8, addend: 0x0, symName: '__ZN87_$LT$pyo3..instance..Bound$LT$T$GT$$u20$as$u20$pyo3..instance..BoundObject$LT$T$GT$$GT$8into_ptr17h57bb620cda7fc2a7E', symObjAddr: 0x360C, symBinAddr: 0xE580, symSize: 0x24 }
  - { offset: 0x2F948, size: 0x8, addend: 0x0, symName: '__ZN90_$LT$pyo3..instance..Borrowed$LT$T$GT$$u20$as$u20$pyo3..instance..BoundObject$LT$T$GT$$GT$8into_any17hf3a98f988dbf09acE', symObjAddr: 0x3630, symBinAddr: 0xE5A4, symSize: 0x24 }
  - { offset: 0x2FA93, size: 0x8, addend: 0x0, symName: __ZN4pyo310conversion15IntoPyObjectExt22into_pyobject_or_pyerr17h08461cedcf7fc1fdE, symObjAddr: 0x1D58, symBinAddr: 0xCCCC, symSize: 0x48 }
  - { offset: 0x2FB03, size: 0x8, addend: 0x0, symName: __ZN4pyo310conversion15IntoPyObjectExt22into_pyobject_or_pyerr17ha189446840c0da7fE, symObjAddr: 0x1DA0, symBinAddr: 0xCD14, symSize: 0x48 }
  - { offset: 0x2FB73, size: 0x8, addend: 0x0, symName: __ZN4pyo310conversion15IntoPyObjectExt22into_pyobject_or_pyerr17ha37c37547324b63bE, symObjAddr: 0x1DE8, symBinAddr: 0xCD5C, symSize: 0x48 }
  - { offset: 0x2FBE9, size: 0x8, addend: 0x0, symName: '__ZN81_$LT$pyo3..instance..Bound$LT$T$GT$$u20$as$u20$pyo3..conversion..IntoPyObject$GT$13into_pyobject17h73f38c84cc2c5dacE', symObjAddr: 0x3568, symBinAddr: 0xE4DC, symSize: 0x14 }
  - { offset: 0x30B26, size: 0x8, addend: 0x0, symName: '__ZN4pyo38instance11Py$LT$T$GT$10into_bound17h94819854aac338b3E', symObjAddr: 0x1E68, symBinAddr: 0xCDDC, symSize: 0x1C }
  - { offset: 0x310C0, size: 0x8, addend: 0x0, symName: '__ZN4pyo38instance11Py$LT$T$GT$13from_non_null17h08da48495b7aefc6E', symObjAddr: 0x1E84, symBinAddr: 0xCDF8, symSize: 0x14 }
  - { offset: 0x310F9, size: 0x8, addend: 0x0, symName: '__ZN4pyo38instance11Py$LT$T$GT$13from_non_null17h0c565e08d6507a65E', symObjAddr: 0x1E98, symBinAddr: 0xCE0C, symSize: 0x14 }
  - { offset: 0x31125, size: 0x8, addend: 0x0, symName: '__ZN4pyo38instance11Py$LT$T$GT$13from_non_null17h16cd6976ef424a38E', symObjAddr: 0x1EAC, symBinAddr: 0xCE20, symSize: 0x14 }
  - { offset: 0x31158, size: 0x8, addend: 0x0, symName: '__ZN4pyo38instance11Py$LT$T$GT$13from_non_null17h186d4ec72e3b4039E', symObjAddr: 0x1EC0, symBinAddr: 0xCE34, symSize: 0x14 }
  - { offset: 0x31184, size: 0x8, addend: 0x0, symName: '__ZN4pyo38instance11Py$LT$T$GT$13from_non_null17h232494657d338fe2E', symObjAddr: 0x1ED4, symBinAddr: 0xCE48, symSize: 0x14 }
  - { offset: 0x311B0, size: 0x8, addend: 0x0, symName: '__ZN4pyo38instance11Py$LT$T$GT$13from_non_null17h25356aaa1b2a88d2E', symObjAddr: 0x1EE8, symBinAddr: 0xCE5C, symSize: 0x14 }
  - { offset: 0x311E3, size: 0x8, addend: 0x0, symName: '__ZN4pyo38instance11Py$LT$T$GT$13from_non_null17h52951ec1744f83b0E', symObjAddr: 0x1EFC, symBinAddr: 0xCE70, symSize: 0x14 }
  - { offset: 0x3120F, size: 0x8, addend: 0x0, symName: '__ZN4pyo38instance11Py$LT$T$GT$13from_non_null17h65cce9dd50da48c9E', symObjAddr: 0x1F10, symBinAddr: 0xCE84, symSize: 0x14 }
  - { offset: 0x3123B, size: 0x8, addend: 0x0, symName: '__ZN4pyo38instance11Py$LT$T$GT$13from_non_null17h686290f70536c62aE', symObjAddr: 0x1F24, symBinAddr: 0xCE98, symSize: 0x14 }
  - { offset: 0x31267, size: 0x8, addend: 0x0, symName: '__ZN4pyo38instance11Py$LT$T$GT$13from_non_null17h6bd8a6563b4b6f7aE', symObjAddr: 0x1F38, symBinAddr: 0xCEAC, symSize: 0x14 }
  - { offset: 0x31293, size: 0x8, addend: 0x0, symName: '__ZN4pyo38instance11Py$LT$T$GT$13from_non_null17h6be9152660f2e7a6E', symObjAddr: 0x1F4C, symBinAddr: 0xCEC0, symSize: 0x14 }
  - { offset: 0x312BF, size: 0x8, addend: 0x0, symName: '__ZN4pyo38instance11Py$LT$T$GT$13from_non_null17h709e2951e47e44f3E', symObjAddr: 0x1F60, symBinAddr: 0xCED4, symSize: 0x14 }
  - { offset: 0x312EB, size: 0x8, addend: 0x0, symName: '__ZN4pyo38instance11Py$LT$T$GT$13from_non_null17h7525a97d9ca878a6E', symObjAddr: 0x1F74, symBinAddr: 0xCEE8, symSize: 0x14 }
  - { offset: 0x31317, size: 0x8, addend: 0x0, symName: '__ZN4pyo38instance11Py$LT$T$GT$13from_non_null17h7d10a7e4246aad80E', symObjAddr: 0x1F88, symBinAddr: 0xCEFC, symSize: 0x14 }
  - { offset: 0x31343, size: 0x8, addend: 0x0, symName: '__ZN4pyo38instance11Py$LT$T$GT$13from_non_null17h8ce822816024b24dE', symObjAddr: 0x1F9C, symBinAddr: 0xCF10, symSize: 0x14 }
  - { offset: 0x31376, size: 0x8, addend: 0x0, symName: '__ZN4pyo38instance11Py$LT$T$GT$13from_non_null17h8d456e33dfd5c8e1E', symObjAddr: 0x1FB0, symBinAddr: 0xCF24, symSize: 0x14 }
  - { offset: 0x313A2, size: 0x8, addend: 0x0, symName: '__ZN4pyo38instance11Py$LT$T$GT$13from_non_null17h8e601b7718e60e1aE', symObjAddr: 0x1FC4, symBinAddr: 0xCF38, symSize: 0x14 }
  - { offset: 0x313CE, size: 0x8, addend: 0x0, symName: '__ZN4pyo38instance11Py$LT$T$GT$13from_non_null17h9235dcfb5a764e7bE', symObjAddr: 0x1FD8, symBinAddr: 0xCF4C, symSize: 0x14 }
  - { offset: 0x313FA, size: 0x8, addend: 0x0, symName: '__ZN4pyo38instance11Py$LT$T$GT$13from_non_null17h9c594cf26e7147caE', symObjAddr: 0x1FEC, symBinAddr: 0xCF60, symSize: 0x14 }
  - { offset: 0x31426, size: 0x8, addend: 0x0, symName: '__ZN4pyo38instance11Py$LT$T$GT$13from_non_null17hc0088db39279f040E', symObjAddr: 0x2000, symBinAddr: 0xCF74, symSize: 0x14 }
  - { offset: 0x31452, size: 0x8, addend: 0x0, symName: '__ZN4pyo38instance11Py$LT$T$GT$13from_non_null17hd202658d698818b2E', symObjAddr: 0x2014, symBinAddr: 0xCF88, symSize: 0x14 }
  - { offset: 0x3147E, size: 0x8, addend: 0x0, symName: '__ZN4pyo38instance11Py$LT$T$GT$13from_non_null17hfabc36143cd7b431E', symObjAddr: 0x2028, symBinAddr: 0xCF9C, symSize: 0x14 }
  - { offset: 0x314AA, size: 0x8, addend: 0x0, symName: '__ZN4pyo38instance11Py$LT$T$GT$13from_non_null17hff3f4c27a001446cE', symObjAddr: 0x203C, symBinAddr: 0xCFB0, symSize: 0x14 }
  - { offset: 0x314F0, size: 0x8, addend: 0x0, symName: '__ZN4pyo38instance11Py$LT$T$GT$16get_class_object17h09cec70a5d3db8b1E', symObjAddr: 0x2050, symBinAddr: 0xCFC4, symSize: 0x78 }
  - { offset: 0x3153F, size: 0x8, addend: 0x0, symName: '__ZN4pyo38instance11Py$LT$T$GT$6as_ptr17h6e26ceb694bfa533E', symObjAddr: 0x20C8, symBinAddr: 0xD03C, symSize: 0x1C }
  - { offset: 0x3156B, size: 0x8, addend: 0x0, symName: '__ZN4pyo38instance11Py$LT$T$GT$8into_any17h04b757652a201829E', symObjAddr: 0x20E4, symBinAddr: 0xD058, symSize: 0x3C }
  - { offset: 0x31597, size: 0x8, addend: 0x0, symName: '__ZN4pyo38instance11Py$LT$T$GT$8into_any17h06a3d727a332067cE', symObjAddr: 0x2120, symBinAddr: 0xD094, symSize: 0x3C }
  - { offset: 0x315C3, size: 0x8, addend: 0x0, symName: '__ZN4pyo38instance11Py$LT$T$GT$8into_any17h076effe1153a073cE', symObjAddr: 0x215C, symBinAddr: 0xD0D0, symSize: 0x3C }
  - { offset: 0x315EF, size: 0x8, addend: 0x0, symName: '__ZN4pyo38instance11Py$LT$T$GT$8into_any17h08e535c321da0194E', symObjAddr: 0x2198, symBinAddr: 0xD10C, symSize: 0x3C }
  - { offset: 0x3161B, size: 0x8, addend: 0x0, symName: '__ZN4pyo38instance11Py$LT$T$GT$8into_any17h0a4b5e910269bc86E', symObjAddr: 0x21D4, symBinAddr: 0xD148, symSize: 0x3C }
  - { offset: 0x31647, size: 0x8, addend: 0x0, symName: '__ZN4pyo38instance11Py$LT$T$GT$8into_any17h2da7b1c5950e3425E', symObjAddr: 0x2210, symBinAddr: 0xD184, symSize: 0x3C }
  - { offset: 0x31673, size: 0x8, addend: 0x0, symName: '__ZN4pyo38instance11Py$LT$T$GT$8into_any17h3c50b68f8c7d4a1dE', symObjAddr: 0x224C, symBinAddr: 0xD1C0, symSize: 0x3C }
  - { offset: 0x3169F, size: 0x8, addend: 0x0, symName: '__ZN4pyo38instance11Py$LT$T$GT$8into_any17h47347ab9fde27d67E', symObjAddr: 0x2288, symBinAddr: 0xD1FC, symSize: 0x3C }
  - { offset: 0x316CB, size: 0x8, addend: 0x0, symName: '__ZN4pyo38instance11Py$LT$T$GT$8into_any17h4f7994f3074cfec9E', symObjAddr: 0x22C4, symBinAddr: 0xD238, symSize: 0x3C }
  - { offset: 0x316F7, size: 0x8, addend: 0x0, symName: '__ZN4pyo38instance11Py$LT$T$GT$8into_any17h57b6df5a98551d20E', symObjAddr: 0x2300, symBinAddr: 0xD274, symSize: 0x3C }
  - { offset: 0x31723, size: 0x8, addend: 0x0, symName: '__ZN4pyo38instance11Py$LT$T$GT$8into_any17h57f6832fe2b6d249E', symObjAddr: 0x233C, symBinAddr: 0xD2B0, symSize: 0x3C }
  - { offset: 0x3174F, size: 0x8, addend: 0x0, symName: '__ZN4pyo38instance11Py$LT$T$GT$8into_any17h65ac7026b2035b4aE', symObjAddr: 0x2378, symBinAddr: 0xD2EC, symSize: 0x3C }
  - { offset: 0x3177B, size: 0x8, addend: 0x0, symName: '__ZN4pyo38instance11Py$LT$T$GT$8into_any17h66c1e6a11ac23b3dE', symObjAddr: 0x23B4, symBinAddr: 0xD328, symSize: 0x3C }
  - { offset: 0x317A7, size: 0x8, addend: 0x0, symName: '__ZN4pyo38instance11Py$LT$T$GT$8into_any17h6c7f9138359863c4E', symObjAddr: 0x23F0, symBinAddr: 0xD364, symSize: 0x3C }
  - { offset: 0x317D3, size: 0x8, addend: 0x0, symName: '__ZN4pyo38instance11Py$LT$T$GT$8into_any17h7babd3afc6252e36E', symObjAddr: 0x242C, symBinAddr: 0xD3A0, symSize: 0x3C }
  - { offset: 0x317FF, size: 0x8, addend: 0x0, symName: '__ZN4pyo38instance11Py$LT$T$GT$8into_any17h8108ca959a3417f0E', symObjAddr: 0x2468, symBinAddr: 0xD3DC, symSize: 0x3C }
  - { offset: 0x3182B, size: 0x8, addend: 0x0, symName: '__ZN4pyo38instance11Py$LT$T$GT$8into_any17h9ef5a464f25c4cebE', symObjAddr: 0x24A4, symBinAddr: 0xD418, symSize: 0x3C }
  - { offset: 0x31857, size: 0x8, addend: 0x0, symName: '__ZN4pyo38instance11Py$LT$T$GT$8into_any17ha0a2936665b534b5E', symObjAddr: 0x24E0, symBinAddr: 0xD454, symSize: 0x3C }
  - { offset: 0x31883, size: 0x8, addend: 0x0, symName: '__ZN4pyo38instance11Py$LT$T$GT$8into_any17hab82f9e3f3a1f1fcE', symObjAddr: 0x251C, symBinAddr: 0xD490, symSize: 0x3C }
  - { offset: 0x318AF, size: 0x8, addend: 0x0, symName: '__ZN4pyo38instance11Py$LT$T$GT$8into_any17hb8d0a1b11dde88ecE', symObjAddr: 0x2558, symBinAddr: 0xD4CC, symSize: 0x3C }
  - { offset: 0x318DB, size: 0x8, addend: 0x0, symName: '__ZN4pyo38instance11Py$LT$T$GT$8into_any17hd0284e736248c87aE', symObjAddr: 0x2594, symBinAddr: 0xD508, symSize: 0x3C }
  - { offset: 0x31907, size: 0x8, addend: 0x0, symName: '__ZN4pyo38instance11Py$LT$T$GT$8into_any17hf0de497e999c0a66E', symObjAddr: 0x25D0, symBinAddr: 0xD544, symSize: 0x3C }
  - { offset: 0x31933, size: 0x8, addend: 0x0, symName: '__ZN4pyo38instance11Py$LT$T$GT$8into_any17hffd22dca38987461E', symObjAddr: 0x260C, symBinAddr: 0xD580, symSize: 0x3C }
  - { offset: 0x3195F, size: 0x8, addend: 0x0, symName: '__ZN4pyo38instance11Py$LT$T$GT$8into_ptr17h05547a4c36fc83c5E', symObjAddr: 0x2648, symBinAddr: 0xD5BC, symSize: 0x30 }
  - { offset: 0x31998, size: 0x8, addend: 0x0, symName: '__ZN4pyo38instance11Py$LT$T$GT$9clone_ref17h5ee37afac452212aE', symObjAddr: 0x2678, symBinAddr: 0xD5EC, symSize: 0x40 }
  - { offset: 0x319FD, size: 0x8, addend: 0x0, symName: '__ZN4pyo38instance11Py$LT$T$GT$9clone_ref17hd0c49b3bfeaf877aE', symObjAddr: 0x26B8, symBinAddr: 0xD62C, symSize: 0x40 }
  - { offset: 0x31A6F, size: 0x8, addend: 0x0, symName: '__ZN4pyo38instance14Bound$LT$T$GT$10try_borrow17h48f8eb252b19ab4eE', symObjAddr: 0x26F8, symBinAddr: 0xD66C, symSize: 0x24 }
  - { offset: 0x31A9B, size: 0x8, addend: 0x0, symName: '__ZN4pyo38instance14Bound$LT$T$GT$16get_class_object17h892e0937fef24574E', symObjAddr: 0x271C, symBinAddr: 0xD690, symSize: 0x2C }
  - { offset: 0x31B81, size: 0x8, addend: 0x0, symName: '__ZN4pyo38instance14Bound$LT$T$GT$3new17h5316313a55607bc6E', symObjAddr: 0x2748, symBinAddr: 0xD6BC, symSize: 0x60 }
  - { offset: 0x31BD1, size: 0x8, addend: 0x0, symName: '__ZN4pyo38instance14Bound$LT$T$GT$6as_ptr17h0a503be4a8e9d526E', symObjAddr: 0x27A8, symBinAddr: 0xD71C, symSize: 0x2C }
  - { offset: 0x31C4F, size: 0x8, addend: 0x0, symName: '__ZN4pyo38instance14Bound$LT$T$GT$6borrow17h0a254832514a714eE', symObjAddr: 0x27D4, symBinAddr: 0xD748, symSize: 0x24 }
  - { offset: 0x31C7B, size: 0x8, addend: 0x0, symName: '__ZN4pyo38instance14Bound$LT$T$GT$6unbind17h15293a382919a2a3E', symObjAddr: 0x27F8, symBinAddr: 0xD76C, symSize: 0x48 }
  - { offset: 0x31CC5, size: 0x8, addend: 0x0, symName: '__ZN4pyo38instance14Bound$LT$T$GT$6unbind17h1ba8dbacbce909f5E', symObjAddr: 0x2840, symBinAddr: 0xD7B4, symSize: 0x48 }
  - { offset: 0x31D0F, size: 0x8, addend: 0x0, symName: '__ZN4pyo38instance14Bound$LT$T$GT$6unbind17h1e16db7a81524288E', symObjAddr: 0x2888, symBinAddr: 0xD7FC, symSize: 0x48 }
  - { offset: 0x31D59, size: 0x8, addend: 0x0, symName: '__ZN4pyo38instance14Bound$LT$T$GT$6unbind17h20917c725c5ce78fE', symObjAddr: 0x28D0, symBinAddr: 0xD844, symSize: 0x48 }
  - { offset: 0x31DA3, size: 0x8, addend: 0x0, symName: '__ZN4pyo38instance14Bound$LT$T$GT$6unbind17h226d5d18d6b53e56E', symObjAddr: 0x2918, symBinAddr: 0xD88C, symSize: 0x48 }
  - { offset: 0x31DED, size: 0x8, addend: 0x0, symName: '__ZN4pyo38instance14Bound$LT$T$GT$6unbind17h27ff43a8288cd498E', symObjAddr: 0x2960, symBinAddr: 0xD8D4, symSize: 0x48 }
  - { offset: 0x31E37, size: 0x8, addend: 0x0, symName: '__ZN4pyo38instance14Bound$LT$T$GT$6unbind17h29f53c2c7e88cc63E', symObjAddr: 0x29A8, symBinAddr: 0xD91C, symSize: 0x48 }
  - { offset: 0x31E81, size: 0x8, addend: 0x0, symName: '__ZN4pyo38instance14Bound$LT$T$GT$6unbind17h48dd96f67eadeb35E', symObjAddr: 0x29F0, symBinAddr: 0xD964, symSize: 0x48 }
  - { offset: 0x31ECB, size: 0x8, addend: 0x0, symName: '__ZN4pyo38instance14Bound$LT$T$GT$6unbind17h546de13a88c2635fE', symObjAddr: 0x2A38, symBinAddr: 0xD9AC, symSize: 0x48 }
  - { offset: 0x31F15, size: 0x8, addend: 0x0, symName: '__ZN4pyo38instance14Bound$LT$T$GT$6unbind17h56ce290843cbf02dE', symObjAddr: 0x2A80, symBinAddr: 0xD9F4, symSize: 0x48 }
  - { offset: 0x31F5F, size: 0x8, addend: 0x0, symName: '__ZN4pyo38instance14Bound$LT$T$GT$6unbind17h611d55eccdc0d667E', symObjAddr: 0x2AC8, symBinAddr: 0xDA3C, symSize: 0x48 }
  - { offset: 0x31FA9, size: 0x8, addend: 0x0, symName: '__ZN4pyo38instance14Bound$LT$T$GT$6unbind17h6635e8ec7c70744cE', symObjAddr: 0x2B10, symBinAddr: 0xDA84, symSize: 0x48 }
  - { offset: 0x31FF3, size: 0x8, addend: 0x0, symName: '__ZN4pyo38instance14Bound$LT$T$GT$6unbind17h73dd881ac58705fdE', symObjAddr: 0x2B58, symBinAddr: 0xDACC, symSize: 0x48 }
  - { offset: 0x3203D, size: 0x8, addend: 0x0, symName: '__ZN4pyo38instance14Bound$LT$T$GT$6unbind17h834c95fd2a0377b5E', symObjAddr: 0x2BA0, symBinAddr: 0xDB14, symSize: 0x48 }
  - { offset: 0x32087, size: 0x8, addend: 0x0, symName: '__ZN4pyo38instance14Bound$LT$T$GT$6unbind17h908d0d77d4853a8bE', symObjAddr: 0x2BE8, symBinAddr: 0xDB5C, symSize: 0x48 }
  - { offset: 0x320D1, size: 0x8, addend: 0x0, symName: '__ZN4pyo38instance14Bound$LT$T$GT$6unbind17h91b5026cb5e81563E', symObjAddr: 0x2C30, symBinAddr: 0xDBA4, symSize: 0x48 }
  - { offset: 0x3211B, size: 0x8, addend: 0x0, symName: '__ZN4pyo38instance14Bound$LT$T$GT$6unbind17ha1d4b7e979c540a8E', symObjAddr: 0x2C78, symBinAddr: 0xDBEC, symSize: 0x48 }
  - { offset: 0x32165, size: 0x8, addend: 0x0, symName: '__ZN4pyo38instance14Bound$LT$T$GT$6unbind17hbedaad49adad44b8E', symObjAddr: 0x2CC0, symBinAddr: 0xDC34, symSize: 0x48 }
  - { offset: 0x321AF, size: 0x8, addend: 0x0, symName: '__ZN4pyo38instance14Bound$LT$T$GT$6unbind17hc6b4dcc4ee3538ddE', symObjAddr: 0x2D08, symBinAddr: 0xDC7C, symSize: 0x48 }
  - { offset: 0x321F9, size: 0x8, addend: 0x0, symName: '__ZN4pyo38instance14Bound$LT$T$GT$6unbind17hd4ef357c0e33e414E', symObjAddr: 0x2D50, symBinAddr: 0xDCC4, symSize: 0x48 }
  - { offset: 0x32243, size: 0x8, addend: 0x0, symName: '__ZN4pyo38instance14Bound$LT$T$GT$6unbind17he1ca986489d69250E', symObjAddr: 0x2D98, symBinAddr: 0xDD0C, symSize: 0x48 }
  - { offset: 0x3228D, size: 0x8, addend: 0x0, symName: '__ZN4pyo38instance14Bound$LT$T$GT$6unbind17he7756a29eddc7d67E', symObjAddr: 0x2DE0, symBinAddr: 0xDD54, symSize: 0x48 }
  - { offset: 0x322D7, size: 0x8, addend: 0x0, symName: '__ZN4pyo38instance14Bound$LT$T$GT$6unbind17hf845ef7a08ed92e3E', symObjAddr: 0x2E28, symBinAddr: 0xDD9C, symSize: 0x48 }
  - { offset: 0x32321, size: 0x8, addend: 0x0, symName: '__ZN4pyo38instance14Bound$LT$T$GT$8into_any17h058658e2f4a8707eE', symObjAddr: 0x2E70, symBinAddr: 0xDDE4, symSize: 0x30 }
  - { offset: 0x3234D, size: 0x8, addend: 0x0, symName: '__ZN4pyo38instance14Bound$LT$T$GT$8into_any17h0ad3d005f8eb085bE', symObjAddr: 0x2EA0, symBinAddr: 0xDE14, symSize: 0x30 }
  - { offset: 0x32379, size: 0x8, addend: 0x0, symName: '__ZN4pyo38instance14Bound$LT$T$GT$8into_any17h1c36af954ae17425E', symObjAddr: 0x2ED0, symBinAddr: 0xDE44, symSize: 0x30 }
  - { offset: 0x323A5, size: 0x8, addend: 0x0, symName: '__ZN4pyo38instance14Bound$LT$T$GT$8into_any17h1ccfd60e5512dc13E', symObjAddr: 0x2F00, symBinAddr: 0xDE74, symSize: 0x30 }
  - { offset: 0x323D1, size: 0x8, addend: 0x0, symName: '__ZN4pyo38instance14Bound$LT$T$GT$8into_any17h1f06e0714b86760dE', symObjAddr: 0x2F30, symBinAddr: 0xDEA4, symSize: 0x30 }
  - { offset: 0x323FD, size: 0x8, addend: 0x0, symName: '__ZN4pyo38instance14Bound$LT$T$GT$8into_any17h35343a1f730b3bf7E', symObjAddr: 0x2F60, symBinAddr: 0xDED4, symSize: 0x30 }
  - { offset: 0x32429, size: 0x8, addend: 0x0, symName: '__ZN4pyo38instance14Bound$LT$T$GT$8into_any17h4dd13c1aa0d0caf0E', symObjAddr: 0x2F90, symBinAddr: 0xDF04, symSize: 0x30 }
  - { offset: 0x32455, size: 0x8, addend: 0x0, symName: '__ZN4pyo38instance14Bound$LT$T$GT$8into_any17h58bce392e97e44caE', symObjAddr: 0x2FC0, symBinAddr: 0xDF34, symSize: 0x30 }
  - { offset: 0x32481, size: 0x8, addend: 0x0, symName: '__ZN4pyo38instance14Bound$LT$T$GT$8into_any17h5ae72e895057de50E', symObjAddr: 0x2FF0, symBinAddr: 0xDF64, symSize: 0x30 }
  - { offset: 0x324AD, size: 0x8, addend: 0x0, symName: '__ZN4pyo38instance14Bound$LT$T$GT$8into_any17h61f9507122bd612cE', symObjAddr: 0x3020, symBinAddr: 0xDF94, symSize: 0x30 }
  - { offset: 0x324D9, size: 0x8, addend: 0x0, symName: '__ZN4pyo38instance14Bound$LT$T$GT$8into_any17h755bd64f6c37c4c3E', symObjAddr: 0x3050, symBinAddr: 0xDFC4, symSize: 0x30 }
  - { offset: 0x32505, size: 0x8, addend: 0x0, symName: '__ZN4pyo38instance14Bound$LT$T$GT$8into_any17h7769e720e7e26174E', symObjAddr: 0x3080, symBinAddr: 0xDFF4, symSize: 0x30 }
  - { offset: 0x32531, size: 0x8, addend: 0x0, symName: '__ZN4pyo38instance14Bound$LT$T$GT$8into_any17h7ef31b893118c818E', symObjAddr: 0x30B0, symBinAddr: 0xE024, symSize: 0x30 }
  - { offset: 0x3255D, size: 0x8, addend: 0x0, symName: '__ZN4pyo38instance14Bound$LT$T$GT$8into_any17h97aaa42e7c0f9bdcE', symObjAddr: 0x30E0, symBinAddr: 0xE054, symSize: 0x30 }
  - { offset: 0x32589, size: 0x8, addend: 0x0, symName: '__ZN4pyo38instance14Bound$LT$T$GT$8into_any17ha853608e1cdd4fa9E', symObjAddr: 0x3110, symBinAddr: 0xE084, symSize: 0x30 }
  - { offset: 0x325B5, size: 0x8, addend: 0x0, symName: '__ZN4pyo38instance14Bound$LT$T$GT$8into_any17hb689952c4be83513E', symObjAddr: 0x3140, symBinAddr: 0xE0B4, symSize: 0x30 }
  - { offset: 0x325E1, size: 0x8, addend: 0x0, symName: '__ZN4pyo38instance14Bound$LT$T$GT$8into_any17hbc18df469ab1f998E', symObjAddr: 0x3170, symBinAddr: 0xE0E4, symSize: 0x30 }
  - { offset: 0x3260D, size: 0x8, addend: 0x0, symName: '__ZN4pyo38instance14Bound$LT$T$GT$8into_any17hbe42f11b258a434eE', symObjAddr: 0x31A0, symBinAddr: 0xE114, symSize: 0x30 }
  - { offset: 0x32639, size: 0x8, addend: 0x0, symName: '__ZN4pyo38instance14Bound$LT$T$GT$8into_any17hc111710dfd9d28c7E', symObjAddr: 0x31D0, symBinAddr: 0xE144, symSize: 0x30 }
  - { offset: 0x32665, size: 0x8, addend: 0x0, symName: '__ZN4pyo38instance14Bound$LT$T$GT$8into_any17he8d8b3e9c691c3b3E', symObjAddr: 0x3200, symBinAddr: 0xE174, symSize: 0x30 }
  - { offset: 0x32691, size: 0x8, addend: 0x0, symName: '__ZN4pyo38instance14Bound$LT$T$GT$8into_any17hecf927bafd62434bE', symObjAddr: 0x3230, symBinAddr: 0xE1A4, symSize: 0x30 }
  - { offset: 0x326BD, size: 0x8, addend: 0x0, symName: '__ZN4pyo38instance14Bound$LT$T$GT$8into_ptr17h256b0f0c31c6103dE', symObjAddr: 0x3260, symBinAddr: 0xE1D4, symSize: 0x40 }
  - { offset: 0x326E9, size: 0x8, addend: 0x0, symName: '__ZN4pyo38instance14Bound$LT$T$GT$8into_ptr17h9856e5b74a202f65E', symObjAddr: 0x32A0, symBinAddr: 0xE214, symSize: 0x40 }
  - { offset: 0x32715, size: 0x8, addend: 0x0, symName: '__ZN4pyo38instance14Bound$LT$T$GT$8into_ptr17hfaccee81931998f7E', symObjAddr: 0x32E0, symBinAddr: 0xE254, symSize: 0x40 }
  - { offset: 0x3274E, size: 0x8, addend: 0x0, symName: '__ZN4pyo38instance17Borrowed$LT$T$GT$6to_any17h7723c70a008230c6E', symObjAddr: 0x3320, symBinAddr: 0xE294, symSize: 0x14 }
  - { offset: 0x3277A, size: 0x8, addend: 0x0, symName: '__ZN4pyo38instance17Borrowed$LT$T$GT$8to_owned17hb72519cd11fe9155E', symObjAddr: 0x3334, symBinAddr: 0xE2A8, symSize: 0x2C }
  - { offset: 0x327B3, size: 0x8, addend: 0x0, symName: '__ZN4pyo38instance39Borrowed$LT$pyo3..types..any..PyAny$GT$18downcast_unchecked17h040945c4e95db28eE', symObjAddr: 0x3360, symBinAddr: 0xE2D4, symSize: 0x14 }
  - { offset: 0x327DF, size: 0x8, addend: 0x0, symName: '__ZN4pyo38instance39Borrowed$LT$pyo3..types..any..PyAny$GT$18downcast_unchecked17h442b330d72318a30E', symObjAddr: 0x3374, symBinAddr: 0xE2E8, symSize: 0x14 }
  - { offset: 0x328FF, size: 0x8, addend: 0x0, symName: _PyInit__core, symObjAddr: 0x0, symBinAddr: 0xE5C8, symSize: 0x34 }
  - { offset: 0x32923, size: 0x8, addend: 0x0, symName: __ZN5_core5_core9_PYO3_DEF17hc972dd1c36e41461E, symObjAddr: 0x50, symBinAddr: 0x1F0480, symSize: 0x0 }
  - { offset: 0x32930, size: 0x8, addend: 0x0, symName: _PyInit__core, symObjAddr: 0x0, symBinAddr: 0xE5C8, symSize: 0x34 }
  - { offset: 0x33936, size: 0x8, addend: 0x0, symName: __ZN8bytemuck8internal10cast_slice17h0a679c14af3734f7E, symObjAddr: 0x0, symBinAddr: 0xE5FC, symSize: 0x70 }
  - { offset: 0x33971, size: 0x8, addend: 0x0, symName: __ZN8bytemuck8internal10cast_slice17h0a679c14af3734f7E, symObjAddr: 0x0, symBinAddr: 0xE5FC, symSize: 0x70 }
  - { offset: 0x339CD, size: 0x8, addend: 0x0, symName: __ZN8bytemuck8internal10cast_slice17h508e3b7e19a717c7E, symObjAddr: 0x70, symBinAddr: 0xE66C, symSize: 0x70 }
  - { offset: 0x33A29, size: 0x8, addend: 0x0, symName: __ZN8bytemuck8internal10cast_slice17haa1f6e6820a8e31cE, symObjAddr: 0xE0, symBinAddr: 0xE6DC, symSize: 0x70 }
  - { offset: 0x33A85, size: 0x8, addend: 0x0, symName: __ZN8bytemuck8internal10cast_slice17hccce09a6e8801747E, symObjAddr: 0x150, symBinAddr: 0xE74C, symSize: 0x70 }
  - { offset: 0x33AE1, size: 0x8, addend: 0x0, symName: __ZN8bytemuck8internal14try_cast_slice17h33927403de9a033fE, symObjAddr: 0x1C0, symBinAddr: 0xE7BC, symSize: 0x1A0 }
  - { offset: 0x33B55, size: 0x8, addend: 0x0, symName: __ZN8bytemuck8internal14try_cast_slice17h9b157ac05c430d34E, symObjAddr: 0x360, symBinAddr: 0xE95C, symSize: 0x1A0 }
  - { offset: 0x33BC9, size: 0x8, addend: 0x0, symName: __ZN8bytemuck8internal14try_cast_slice17ha6c851989d06af94E, symObjAddr: 0x500, symBinAddr: 0xEAFC, symSize: 0x1A0 }
  - { offset: 0x33C3D, size: 0x8, addend: 0x0, symName: __ZN8bytemuck8internal14try_cast_slice17hde0ed8d5a6f1cd6aE, symObjAddr: 0x6A0, symBinAddr: 0xEC9C, symSize: 0x1A0 }
  - { offset: 0x34091, size: 0x8, addend: 0x0, symName: __ZN5alloc3vec16in_place_collect13needs_realloc17h77740010807ccf83E, symObjAddr: 0x0, symBinAddr: 0xEE3C, symSize: 0x2C }
  - { offset: 0x34B92, size: 0x8, addend: 0x0, symName: __ZN5alloc3vec16in_place_collect13needs_realloc17h77740010807ccf83E, symObjAddr: 0x0, symBinAddr: 0xEE3C, symSize: 0x2C }
  - { offset: 0x34BDE, size: 0x8, addend: 0x0, symName: __ZN5alloc3vec16in_place_collect13needs_realloc17h86bd08dffa18dc18E, symObjAddr: 0x2C, symBinAddr: 0xEE68, symSize: 0x2C }
  - { offset: 0x34C2A, size: 0x8, addend: 0x0, symName: __ZN5alloc3vec16in_place_collect18from_iter_in_place17h1cdd55ba830413a4E, symObjAddr: 0x58, symBinAddr: 0xEE94, symSize: 0x398 }
  - { offset: 0x351AE, size: 0x8, addend: 0x0, symName: __ZN5alloc3vec16in_place_collect18from_iter_in_place17h38cbcdca2e026c80E, symObjAddr: 0x3F0, symBinAddr: 0xF22C, symSize: 0x398 }
  - { offset: 0x35732, size: 0x8, addend: 0x0, symName: __ZN5alloc3vec16in_place_collect18from_iter_in_place17h8e466caa95af7456E, symObjAddr: 0x788, symBinAddr: 0xF5C4, symSize: 0x398 }
  - { offset: 0x35CB6, size: 0x8, addend: 0x0, symName: __ZN5alloc3vec16in_place_collect18from_iter_in_place17hb7508c995c537fc0E, symObjAddr: 0xB20, symBinAddr: 0xF95C, symSize: 0x398 }
  - { offset: 0x3623F, size: 0x8, addend: 0x0, symName: '__ZN5alloc3vec16in_place_collect24write_in_place_with_drop28_$u7b$$u7b$closure$u7d$$u7d$17h4b2d999c814c627cE', symObjAddr: 0xEB8, symBinAddr: 0xFCF4, symSize: 0x40 }
  - { offset: 0x3718E, size: 0x8, addend: 0x0, symName: '__ZN5numpy5array20PyArray$LT$T$C$D$GT$13new_with_data17h00dd4021f1f92b34E', symObjAddr: 0x0, symBinAddr: 0xFD34, symSize: 0x134 }
  - { offset: 0x39EA9, size: 0x8, addend: 0x0, symName: '__ZN5numpy5array20PyArray$LT$T$C$D$GT$13new_with_data17h00dd4021f1f92b34E', symObjAddr: 0x0, symBinAddr: 0xFD34, symSize: 0x134 }
  - { offset: 0x39FAF, size: 0x8, addend: 0x0, symName: '__ZN5numpy5array20PyArray$LT$T$C$D$GT$13new_with_data17h29a3c67549a87265E', symObjAddr: 0x134, symBinAddr: 0xFE68, symSize: 0x134 }
  - { offset: 0x3A0B5, size: 0x8, addend: 0x0, symName: '__ZN5numpy5array20PyArray$LT$T$C$D$GT$13new_with_data17h2aefdcc2de5f18cbE', symObjAddr: 0x268, symBinAddr: 0xFF9C, symSize: 0x134 }
  - { offset: 0x3A1BB, size: 0x8, addend: 0x0, symName: '__ZN5numpy5array20PyArray$LT$T$C$D$GT$13new_with_data17h4a36c244ee475a86E', symObjAddr: 0x39C, symBinAddr: 0x100D0, symSize: 0x134 }
  - { offset: 0x3A2CE, size: 0x8, addend: 0x0, symName: '__ZN5numpy5array20PyArray$LT$T$C$D$GT$13new_with_data17h4a5137f47d9125b1E', symObjAddr: 0x4D0, symBinAddr: 0x10204, symSize: 0x170 }
  - { offset: 0x3A3D6, size: 0x8, addend: 0x0, symName: '__ZN5numpy5array20PyArray$LT$T$C$D$GT$13new_with_data17h5089fde0d7134d23E', symObjAddr: 0x640, symBinAddr: 0x10374, symSize: 0x134 }
  - { offset: 0x3A4DC, size: 0x8, addend: 0x0, symName: '__ZN5numpy5array20PyArray$LT$T$C$D$GT$13new_with_data17h532fd28261a037f2E', symObjAddr: 0x774, symBinAddr: 0x104A8, symSize: 0x134 }
  - { offset: 0x3A5CE, size: 0x8, addend: 0x0, symName: '__ZN5numpy5array20PyArray$LT$T$C$D$GT$13new_with_data17h58085491c7544a92E', symObjAddr: 0x8A8, symBinAddr: 0x105DC, symSize: 0x170 }
  - { offset: 0x3A6D6, size: 0x8, addend: 0x0, symName: '__ZN5numpy5array20PyArray$LT$T$C$D$GT$13new_with_data17h62623c3078d5bb54E', symObjAddr: 0xA18, symBinAddr: 0x1074C, symSize: 0x170 }
  - { offset: 0x3A7CA, size: 0x8, addend: 0x0, symName: '__ZN5numpy5array20PyArray$LT$T$C$D$GT$13new_with_data17h6852bc13d0df6e29E', symObjAddr: 0xB88, symBinAddr: 0x108BC, symSize: 0x170 }
  - { offset: 0x3A8BE, size: 0x8, addend: 0x0, symName: '__ZN5numpy5array20PyArray$LT$T$C$D$GT$13new_with_data17h77a550513c7db141E', symObjAddr: 0xCF8, symBinAddr: 0x10A2C, symSize: 0x170 }
  - { offset: 0x3A9BF, size: 0x8, addend: 0x0, symName: '__ZN5numpy5array20PyArray$LT$T$C$D$GT$13new_with_data17ha2d3cfbdea251325E', symObjAddr: 0xE68, symBinAddr: 0x10B9C, symSize: 0x170 }
  - { offset: 0x3AAC7, size: 0x8, addend: 0x0, symName: '__ZN5numpy5array20PyArray$LT$T$C$D$GT$13new_with_data17ha45778c923f3afafE', symObjAddr: 0xFD8, symBinAddr: 0x10D0C, symSize: 0x134 }
  - { offset: 0x3ABB9, size: 0x8, addend: 0x0, symName: '__ZN5numpy5array20PyArray$LT$T$C$D$GT$13new_with_data17ha781c5a18e9a0dcaE', symObjAddr: 0x110C, symBinAddr: 0x10E40, symSize: 0x170 }
  - { offset: 0x3ACAD, size: 0x8, addend: 0x0, symName: '__ZN5numpy5array20PyArray$LT$T$C$D$GT$13new_with_data17ha88f487467461070E', symObjAddr: 0x127C, symBinAddr: 0x10FB0, symSize: 0x134 }
  - { offset: 0x3AD9F, size: 0x8, addend: 0x0, symName: '__ZN5numpy5array20PyArray$LT$T$C$D$GT$13new_with_data17hb2b69f6b68c518e9E', symObjAddr: 0x13B0, symBinAddr: 0x110E4, symSize: 0x134 }
  - { offset: 0x3AE91, size: 0x8, addend: 0x0, symName: '__ZN5numpy5array20PyArray$LT$T$C$D$GT$13new_with_data17hb6be99f0ab00cb91E', symObjAddr: 0x14E4, symBinAddr: 0x11218, symSize: 0x134 }
  - { offset: 0x3AF83, size: 0x8, addend: 0x0, symName: '__ZN5numpy5array20PyArray$LT$T$C$D$GT$13new_with_data17hb7a26eb5886da5f9E', symObjAddr: 0x1618, symBinAddr: 0x1134C, symSize: 0x170 }
  - { offset: 0x3B077, size: 0x8, addend: 0x0, symName: '__ZN5numpy5array20PyArray$LT$T$C$D$GT$13new_with_data17hc09a97d750e4394aE', symObjAddr: 0x1788, symBinAddr: 0x114BC, symSize: 0x170 }
  - { offset: 0x3B16B, size: 0x8, addend: 0x0, symName: '__ZN5numpy5array20PyArray$LT$T$C$D$GT$13new_with_data17hc9d4a4f8635f0522E', symObjAddr: 0x18F8, symBinAddr: 0x1162C, symSize: 0x170 }
  - { offset: 0x3B2CE, size: 0x8, addend: 0x0, symName: '__ZN5numpy5array20PyArray$LT$T$C$D$GT$17borrow_from_array17h0a5cf70c826ae77fE', symObjAddr: 0x1A68, symBinAddr: 0x1179C, symSize: 0x1D4 }
  - { offset: 0x3B415, size: 0x8, addend: 0x0, symName: '__ZN5numpy5array20PyArray$LT$T$C$D$GT$17borrow_from_array17h1caec9e438ab9ab8E', symObjAddr: 0x1C3C, symBinAddr: 0x11970, symSize: 0x1D4 }
  - { offset: 0x3B55C, size: 0x8, addend: 0x0, symName: '__ZN5numpy5array20PyArray$LT$T$C$D$GT$17borrow_from_array17h295e0e1eceaa5266E', symObjAddr: 0x1E10, symBinAddr: 0x11B44, symSize: 0x1D0 }
  - { offset: 0x3B6A1, size: 0x8, addend: 0x0, symName: '__ZN5numpy5array20PyArray$LT$T$C$D$GT$17borrow_from_array17h5e2b6a60bf12ed4dE', symObjAddr: 0x1FE0, symBinAddr: 0x11D14, symSize: 0x1D0 }
  - { offset: 0x3B7E6, size: 0x8, addend: 0x0, symName: '__ZN5numpy5array20PyArray$LT$T$C$D$GT$17borrow_from_array17h6dbfc6943fba98d3E', symObjAddr: 0x21B0, symBinAddr: 0x11EE4, symSize: 0x1D0 }
  - { offset: 0x3B92B, size: 0x8, addend: 0x0, symName: '__ZN5numpy5array20PyArray$LT$T$C$D$GT$17borrow_from_array17h87d4928f91039b87E', symObjAddr: 0x2380, symBinAddr: 0x120B4, symSize: 0x1D0 }
  - { offset: 0x3BA70, size: 0x8, addend: 0x0, symName: '__ZN5numpy5array20PyArray$LT$T$C$D$GT$17borrow_from_array17h898bb22be3b728d6E', symObjAddr: 0x2550, symBinAddr: 0x12284, symSize: 0x1D4 }
  - { offset: 0x3BBB7, size: 0x8, addend: 0x0, symName: '__ZN5numpy5array20PyArray$LT$T$C$D$GT$17borrow_from_array17h9996c791aee790d9E', symObjAddr: 0x2724, symBinAddr: 0x12458, symSize: 0x1D0 }
  - { offset: 0x3BCFC, size: 0x8, addend: 0x0, symName: '__ZN5numpy5array20PyArray$LT$T$C$D$GT$17borrow_from_array17ha0db530fb963a1caE', symObjAddr: 0x28F4, symBinAddr: 0x12628, symSize: 0x1D0 }
  - { offset: 0x3BE34, size: 0x8, addend: 0x0, symName: '__ZN5numpy5array20PyArray$LT$T$C$D$GT$17borrow_from_array17ha3c486e38eb66b5cE', symObjAddr: 0x2AC4, symBinAddr: 0x127F8, symSize: 0x1D0 }
  - { offset: 0x3BF79, size: 0x8, addend: 0x0, symName: '__ZN5numpy5array20PyArray$LT$T$C$D$GT$17borrow_from_array17ha70e1bd83bca8abcE', symObjAddr: 0x2C94, symBinAddr: 0x129C8, symSize: 0x1D0 }
  - { offset: 0x3C0B1, size: 0x8, addend: 0x0, symName: '__ZN5numpy5array20PyArray$LT$T$C$D$GT$17borrow_from_array17ha80c93bdda473fc9E', symObjAddr: 0x2E64, symBinAddr: 0x12B98, symSize: 0x1D4 }
  - { offset: 0x3C1EB, size: 0x8, addend: 0x0, symName: '__ZN5numpy5array20PyArray$LT$T$C$D$GT$17borrow_from_array17ha94fb186d0daadfaE', symObjAddr: 0x3038, symBinAddr: 0x12D6C, symSize: 0x1D4 }
  - { offset: 0x3C325, size: 0x8, addend: 0x0, symName: '__ZN5numpy5array20PyArray$LT$T$C$D$GT$17borrow_from_array17hb5015dc11630e46eE', symObjAddr: 0x320C, symBinAddr: 0x12F40, symSize: 0x1D4 }
  - { offset: 0x3C45F, size: 0x8, addend: 0x0, symName: '__ZN5numpy5array20PyArray$LT$T$C$D$GT$17borrow_from_array17hb81d64332111aa00E', symObjAddr: 0x33E0, symBinAddr: 0x13114, symSize: 0x1D4 }
  - { offset: 0x3C599, size: 0x8, addend: 0x0, symName: '__ZN5numpy5array20PyArray$LT$T$C$D$GT$17borrow_from_array17hc5a034e703e46ca3E', symObjAddr: 0x35B4, symBinAddr: 0x132E8, symSize: 0x1D0 }
  - { offset: 0x3C6D1, size: 0x8, addend: 0x0, symName: '__ZN5numpy5array20PyArray$LT$T$C$D$GT$17borrow_from_array17hc84e5fcc3bf9eefcE', symObjAddr: 0x3784, symBinAddr: 0x134B8, symSize: 0x1D0 }
  - { offset: 0x3C809, size: 0x8, addend: 0x0, symName: '__ZN5numpy5array20PyArray$LT$T$C$D$GT$17borrow_from_array17hcba4ac25880575d6E', symObjAddr: 0x3954, symBinAddr: 0x13688, symSize: 0x1D4 }
  - { offset: 0x3C943, size: 0x8, addend: 0x0, symName: '__ZN5numpy5array20PyArray$LT$T$C$D$GT$17borrow_from_array17hef88099691a92ad5E', symObjAddr: 0x3B28, symBinAddr: 0x1385C, symSize: 0x1D4 }
  - { offset: 0x3CA7D, size: 0x8, addend: 0x0, symName: '__ZN5numpy5array20PyArray$LT$T$C$D$GT$17borrow_from_array17hfcf1307bd99ef88cE', symObjAddr: 0x3CFC, symBinAddr: 0x13A30, symSize: 0x1D4 }
  - { offset: 0x3CBA7, size: 0x8, addend: 0x0, symName: __ZN3std5panic12catch_unwind17h22e13bb9563fa766E, symObjAddr: 0x0, symBinAddr: 0x13C04, symSize: 0xE4 }
  - { offset: 0x3D016, size: 0x8, addend: 0x0, symName: __ZN3std5panic12catch_unwind17h22e13bb9563fa766E, symObjAddr: 0x0, symBinAddr: 0x13C04, symSize: 0xE4 }
  - { offset: 0x3D13B, size: 0x8, addend: 0x0, symName: __ZN3std5panic12catch_unwind17h3ace86ee80b6d94bE, symObjAddr: 0xE4, symBinAddr: 0x13CE8, symSize: 0x10C }
  - { offset: 0x3D297, size: 0x8, addend: 0x0, symName: __ZN3std5panic12catch_unwind17h5b220f2eac0603a4E, symObjAddr: 0x1F0, symBinAddr: 0x13DF4, symSize: 0xD4 }
  - { offset: 0x3D3BC, size: 0x8, addend: 0x0, symName: __ZN3std5panic12catch_unwind17h5f908ed4dcdfc8e0E, symObjAddr: 0x2C4, symBinAddr: 0x13EC8, symSize: 0xE4 }
  - { offset: 0x3D4E1, size: 0x8, addend: 0x0, symName: __ZN3std5panic12catch_unwind17h974966aa51fdbadbE, symObjAddr: 0x3A8, symBinAddr: 0x13FAC, symSize: 0xE4 }
  - { offset: 0x3E864, size: 0x8, addend: 0x0, symName: __ZN4core5alloc6layout6Layout25from_size_align_unchecked18precondition_check17h8877838e820a78dcE, symObjAddr: 0x0, symBinAddr: 0x140E4, symSize: 0xBC }
  - { offset: 0x3EC8C, size: 0x8, addend: 0x0, symName: __ZN4core5alloc6layout6Layout25from_size_align_unchecked18precondition_check17h8877838e820a78dcE, symObjAddr: 0x0, symBinAddr: 0x140E4, symSize: 0xBC }
  - { offset: 0x3EEEF, size: 0x8, addend: 0x0, symName: '__ZN76_$LT$ndarray..ArrayBase$LT$S$C$D$GT$$u20$as$u20$numpy..convert..ArrayExt$GT$11npy_strides17h00acc939b3dc7931E', symObjAddr: 0x0, symBinAddr: 0x141A0, symSize: 0x170 }
  - { offset: 0x400A8, size: 0x8, addend: 0x0, symName: __ZN7ndarray10is_aligned17h00a70721d501c677E, symObjAddr: 0x4A38, symBinAddr: 0x18BD8, symSize: 0x58 }
  - { offset: 0x400DF, size: 0x8, addend: 0x0, symName: __ZN7ndarray10is_aligned17h03bed5803670d13aE, symObjAddr: 0x4A90, symBinAddr: 0x18C30, symSize: 0x58 }
  - { offset: 0x40116, size: 0x8, addend: 0x0, symName: __ZN7ndarray10is_aligned17h155cd13acd90a44eE, symObjAddr: 0x4AE8, symBinAddr: 0x18C88, symSize: 0x58 }
  - { offset: 0x4014D, size: 0x8, addend: 0x0, symName: __ZN7ndarray10is_aligned17h216751b92a0ebb08E, symObjAddr: 0x4B40, symBinAddr: 0x18CE0, symSize: 0x58 }
  - { offset: 0x40184, size: 0x8, addend: 0x0, symName: __ZN7ndarray10is_aligned17h5a8db35d2f7e4216E, symObjAddr: 0x4B98, symBinAddr: 0x18D38, symSize: 0x58 }
  - { offset: 0x401BB, size: 0x8, addend: 0x0, symName: __ZN7ndarray10is_aligned17h6bead950ab9993cfE, symObjAddr: 0x4BF0, symBinAddr: 0x18D90, symSize: 0x58 }
  - { offset: 0x401F2, size: 0x8, addend: 0x0, symName: __ZN7ndarray10is_aligned17h9015b32898480cf1E, symObjAddr: 0x4C48, symBinAddr: 0x18DE8, symSize: 0x58 }
  - { offset: 0x40229, size: 0x8, addend: 0x0, symName: __ZN7ndarray10is_aligned17hcd692e02a9eed066E, symObjAddr: 0x4CA0, symBinAddr: 0x18E40, symSize: 0x58 }
  - { offset: 0x40260, size: 0x8, addend: 0x0, symName: __ZN7ndarray10is_aligned17hdb9834a778d9992bE, symObjAddr: 0x4CF8, symBinAddr: 0x18E98, symSize: 0x58 }
  - { offset: 0x40297, size: 0x8, addend: 0x0, symName: __ZN7ndarray10is_aligned17hdf11d23f44eda71fE, symObjAddr: 0x4D50, symBinAddr: 0x18EF0, symSize: 0x58 }
  - { offset: 0x402D8, size: 0x8, addend: 0x0, symName: '__ZN7ndarray11arraytraits188_$LT$impl$u20$core..convert..From$LT$$RF$Slice$GT$$u20$for$u20$ndarray..ArrayBase$LT$ndarray..ViewRepr$LT$$RF$A$GT$$C$ndarray..dimension..dim..Dim$LT$$u5b$usize$u3b$$u20$1$u5d$$GT$$GT$$GT$4from17h1e15e8a8515a76a9E', symObjAddr: 0x4DA8, symBinAddr: 0x18F48, symSize: 0x34 }
  - { offset: 0x40318, size: 0x8, addend: 0x0, symName: '__ZN7ndarray11arraytraits188_$LT$impl$u20$core..convert..From$LT$$RF$Slice$GT$$u20$for$u20$ndarray..ArrayBase$LT$ndarray..ViewRepr$LT$$RF$A$GT$$C$ndarray..dimension..dim..Dim$LT$$u5b$usize$u3b$$u20$1$u5d$$GT$$GT$$GT$4from17h2fd98cb3088d1df8E', symObjAddr: 0x4DDC, symBinAddr: 0x18F7C, symSize: 0x34 }
  - { offset: 0x40358, size: 0x8, addend: 0x0, symName: '__ZN7ndarray11arraytraits188_$LT$impl$u20$core..convert..From$LT$$RF$Slice$GT$$u20$for$u20$ndarray..ArrayBase$LT$ndarray..ViewRepr$LT$$RF$A$GT$$C$ndarray..dimension..dim..Dim$LT$$u5b$usize$u3b$$u20$1$u5d$$GT$$GT$$GT$4from17h36cd00c93e830c0bE', symObjAddr: 0x4E10, symBinAddr: 0x18FB0, symSize: 0x34 }
  - { offset: 0x40398, size: 0x8, addend: 0x0, symName: '__ZN7ndarray11arraytraits188_$LT$impl$u20$core..convert..From$LT$$RF$Slice$GT$$u20$for$u20$ndarray..ArrayBase$LT$ndarray..ViewRepr$LT$$RF$A$GT$$C$ndarray..dimension..dim..Dim$LT$$u5b$usize$u3b$$u20$1$u5d$$GT$$GT$$GT$4from17h637b31d6a1af958dE', symObjAddr: 0x4E44, symBinAddr: 0x18FE4, symSize: 0x34 }
  - { offset: 0x403D8, size: 0x8, addend: 0x0, symName: '__ZN7ndarray11arraytraits188_$LT$impl$u20$core..convert..From$LT$$RF$Slice$GT$$u20$for$u20$ndarray..ArrayBase$LT$ndarray..ViewRepr$LT$$RF$A$GT$$C$ndarray..dimension..dim..Dim$LT$$u5b$usize$u3b$$u20$1$u5d$$GT$$GT$$GT$4from17h8ac5ba35c647d7caE', symObjAddr: 0x4E78, symBinAddr: 0x19018, symSize: 0x34 }
  - { offset: 0x40418, size: 0x8, addend: 0x0, symName: '__ZN7ndarray11arraytraits188_$LT$impl$u20$core..convert..From$LT$$RF$Slice$GT$$u20$for$u20$ndarray..ArrayBase$LT$ndarray..ViewRepr$LT$$RF$A$GT$$C$ndarray..dimension..dim..Dim$LT$$u5b$usize$u3b$$u20$1$u5d$$GT$$GT$$GT$4from17hae4f7a4570895167E', symObjAddr: 0x4EAC, symBinAddr: 0x1904C, symSize: 0x34 }
  - { offset: 0x40458, size: 0x8, addend: 0x0, symName: '__ZN7ndarray11arraytraits188_$LT$impl$u20$core..convert..From$LT$$RF$Slice$GT$$u20$for$u20$ndarray..ArrayBase$LT$ndarray..ViewRepr$LT$$RF$A$GT$$C$ndarray..dimension..dim..Dim$LT$$u5b$usize$u3b$$u20$1$u5d$$GT$$GT$$GT$4from17hb7a036c2b3efac12E', symObjAddr: 0x4EE0, symBinAddr: 0x19080, symSize: 0x34 }
  - { offset: 0x40498, size: 0x8, addend: 0x0, symName: '__ZN7ndarray11arraytraits188_$LT$impl$u20$core..convert..From$LT$$RF$Slice$GT$$u20$for$u20$ndarray..ArrayBase$LT$ndarray..ViewRepr$LT$$RF$A$GT$$C$ndarray..dimension..dim..Dim$LT$$u5b$usize$u3b$$u20$1$u5d$$GT$$GT$$GT$4from17hbb0190287c55dd04E', symObjAddr: 0x4F14, symBinAddr: 0x190B4, symSize: 0x34 }
  - { offset: 0x404D8, size: 0x8, addend: 0x0, symName: '__ZN7ndarray11arraytraits188_$LT$impl$u20$core..convert..From$LT$$RF$Slice$GT$$u20$for$u20$ndarray..ArrayBase$LT$ndarray..ViewRepr$LT$$RF$A$GT$$C$ndarray..dimension..dim..Dim$LT$$u5b$usize$u3b$$u20$1$u5d$$GT$$GT$$GT$4from17hf8cd83c4df656512E', symObjAddr: 0x4F48, symBinAddr: 0x190E8, symSize: 0x34 }
  - { offset: 0x40518, size: 0x8, addend: 0x0, symName: '__ZN7ndarray11arraytraits188_$LT$impl$u20$core..convert..From$LT$$RF$Slice$GT$$u20$for$u20$ndarray..ArrayBase$LT$ndarray..ViewRepr$LT$$RF$A$GT$$C$ndarray..dimension..dim..Dim$LT$$u5b$usize$u3b$$u20$1$u5d$$GT$$GT$$GT$4from17hfe2cacb40c91cc58E', symObjAddr: 0x4F7C, symBinAddr: 0x1911C, symSize: 0x34 }
  - { offset: 0x420FA, size: 0x8, addend: 0x0, symName: '__ZN76_$LT$ndarray..ArrayBase$LT$S$C$D$GT$$u20$as$u20$numpy..convert..ArrayExt$GT$11npy_strides17h00acc939b3dc7931E', symObjAddr: 0x0, symBinAddr: 0x141A0, symSize: 0x170 }
  - { offset: 0x421AB, size: 0x8, addend: 0x0, symName: '__ZN76_$LT$ndarray..ArrayBase$LT$S$C$D$GT$$u20$as$u20$numpy..convert..ArrayExt$GT$11npy_strides17h12df8fb6a77f982dE', symObjAddr: 0x170, symBinAddr: 0x14310, symSize: 0x170 }
  - { offset: 0x4225C, size: 0x8, addend: 0x0, symName: '__ZN76_$LT$ndarray..ArrayBase$LT$S$C$D$GT$$u20$as$u20$numpy..convert..ArrayExt$GT$11npy_strides17h274bea2e9fc044b8E', symObjAddr: 0x2E0, symBinAddr: 0x14480, symSize: 0x170 }
  - { offset: 0x4230D, size: 0x8, addend: 0x0, symName: '__ZN76_$LT$ndarray..ArrayBase$LT$S$C$D$GT$$u20$as$u20$numpy..convert..ArrayExt$GT$11npy_strides17h4a32fe530c7294d6E', symObjAddr: 0x450, symBinAddr: 0x145F0, symSize: 0x170 }
  - { offset: 0x423BE, size: 0x8, addend: 0x0, symName: '__ZN76_$LT$ndarray..ArrayBase$LT$S$C$D$GT$$u20$as$u20$numpy..convert..ArrayExt$GT$11npy_strides17h4eb69edb45c68b2bE', symObjAddr: 0x5C0, symBinAddr: 0x14760, symSize: 0x170 }
  - { offset: 0x4246F, size: 0x8, addend: 0x0, symName: '__ZN76_$LT$ndarray..ArrayBase$LT$S$C$D$GT$$u20$as$u20$numpy..convert..ArrayExt$GT$11npy_strides17h53d1b560faabfac5E', symObjAddr: 0x730, symBinAddr: 0x148D0, symSize: 0x170 }
  - { offset: 0x42520, size: 0x8, addend: 0x0, symName: '__ZN76_$LT$ndarray..ArrayBase$LT$S$C$D$GT$$u20$as$u20$numpy..convert..ArrayExt$GT$11npy_strides17h5a06e4c7efe663fcE', symObjAddr: 0x8A0, symBinAddr: 0x14A40, symSize: 0x170 }
  - { offset: 0x425D1, size: 0x8, addend: 0x0, symName: '__ZN76_$LT$ndarray..ArrayBase$LT$S$C$D$GT$$u20$as$u20$numpy..convert..ArrayExt$GT$11npy_strides17h66fc389eeda0c1faE', symObjAddr: 0xA10, symBinAddr: 0x14BB0, symSize: 0x170 }
  - { offset: 0x42682, size: 0x8, addend: 0x0, symName: '__ZN76_$LT$ndarray..ArrayBase$LT$S$C$D$GT$$u20$as$u20$numpy..convert..ArrayExt$GT$11npy_strides17h683df367b3091fa3E', symObjAddr: 0xB80, symBinAddr: 0x14D20, symSize: 0x170 }
  - { offset: 0x42733, size: 0x8, addend: 0x0, symName: '__ZN76_$LT$ndarray..ArrayBase$LT$S$C$D$GT$$u20$as$u20$numpy..convert..ArrayExt$GT$11npy_strides17h6bf62e7fc47aee3fE', symObjAddr: 0xCF0, symBinAddr: 0x14E90, symSize: 0x170 }
  - { offset: 0x427E4, size: 0x8, addend: 0x0, symName: '__ZN76_$LT$ndarray..ArrayBase$LT$S$C$D$GT$$u20$as$u20$numpy..convert..ArrayExt$GT$11npy_strides17h7a1c303636ed8672E', symObjAddr: 0xE60, symBinAddr: 0x15000, symSize: 0x170 }
  - { offset: 0x42895, size: 0x8, addend: 0x0, symName: '__ZN76_$LT$ndarray..ArrayBase$LT$S$C$D$GT$$u20$as$u20$numpy..convert..ArrayExt$GT$11npy_strides17h9afbe4bd69336250E', symObjAddr: 0xFD0, symBinAddr: 0x15170, symSize: 0x170 }
  - { offset: 0x42946, size: 0x8, addend: 0x0, symName: '__ZN76_$LT$ndarray..ArrayBase$LT$S$C$D$GT$$u20$as$u20$numpy..convert..ArrayExt$GT$11npy_strides17ha3e84173ab68b112E', symObjAddr: 0x1140, symBinAddr: 0x152E0, symSize: 0x170 }
  - { offset: 0x429F7, size: 0x8, addend: 0x0, symName: '__ZN76_$LT$ndarray..ArrayBase$LT$S$C$D$GT$$u20$as$u20$numpy..convert..ArrayExt$GT$11npy_strides17ha7d965f2cd4c6c71E', symObjAddr: 0x12B0, symBinAddr: 0x15450, symSize: 0x170 }
  - { offset: 0x42AA8, size: 0x8, addend: 0x0, symName: '__ZN76_$LT$ndarray..ArrayBase$LT$S$C$D$GT$$u20$as$u20$numpy..convert..ArrayExt$GT$11npy_strides17hb85d6e1df17d7434E', symObjAddr: 0x1420, symBinAddr: 0x155C0, symSize: 0x170 }
  - { offset: 0x42B59, size: 0x8, addend: 0x0, symName: '__ZN76_$LT$ndarray..ArrayBase$LT$S$C$D$GT$$u20$as$u20$numpy..convert..ArrayExt$GT$11npy_strides17hc5a4e74a67c9970fE', symObjAddr: 0x1590, symBinAddr: 0x15730, symSize: 0x170 }
  - { offset: 0x42C0A, size: 0x8, addend: 0x0, symName: '__ZN76_$LT$ndarray..ArrayBase$LT$S$C$D$GT$$u20$as$u20$numpy..convert..ArrayExt$GT$11npy_strides17hc853304cda66b724E', symObjAddr: 0x1700, symBinAddr: 0x158A0, symSize: 0x170 }
  - { offset: 0x42CBB, size: 0x8, addend: 0x0, symName: '__ZN76_$LT$ndarray..ArrayBase$LT$S$C$D$GT$$u20$as$u20$numpy..convert..ArrayExt$GT$11npy_strides17hd0f8e94b436b13bbE', symObjAddr: 0x1870, symBinAddr: 0x15A10, symSize: 0x170 }
  - { offset: 0x42D6C, size: 0x8, addend: 0x0, symName: '__ZN76_$LT$ndarray..ArrayBase$LT$S$C$D$GT$$u20$as$u20$numpy..convert..ArrayExt$GT$11npy_strides17hd6669f7965ec73a4E', symObjAddr: 0x19E0, symBinAddr: 0x15B80, symSize: 0x170 }
  - { offset: 0x42E1D, size: 0x8, addend: 0x0, symName: '__ZN76_$LT$ndarray..ArrayBase$LT$S$C$D$GT$$u20$as$u20$numpy..convert..ArrayExt$GT$11npy_strides17he6604526908e9e6fE', symObjAddr: 0x1B50, symBinAddr: 0x15CF0, symSize: 0x170 }
  - { offset: 0x42F52, size: 0x8, addend: 0x0, symName: '__ZN7ndarray10impl_views12constructors78_$LT$impl$u20$ndarray..ArrayBase$LT$ndarray..ViewRepr$LT$$RF$A$GT$$C$D$GT$$GT$10from_shape17h0debd72566cbdad5E', symObjAddr: 0x1CC0, symBinAddr: 0x15E60, symSize: 0x5C }
  - { offset: 0x42FDE, size: 0x8, addend: 0x0, symName: '__ZN7ndarray10impl_views12constructors78_$LT$impl$u20$ndarray..ArrayBase$LT$ndarray..ViewRepr$LT$$RF$A$GT$$C$D$GT$$GT$10from_shape17h15552907c3e1e3a6E', symObjAddr: 0x1D1C, symBinAddr: 0x15EBC, symSize: 0x5C }
  - { offset: 0x43071, size: 0x8, addend: 0x0, symName: '__ZN7ndarray10impl_views12constructors78_$LT$impl$u20$ndarray..ArrayBase$LT$ndarray..ViewRepr$LT$$RF$A$GT$$C$D$GT$$GT$10from_shape17h2813a9b196668d02E', symObjAddr: 0x1D78, symBinAddr: 0x15F18, symSize: 0x5C }
  - { offset: 0x43104, size: 0x8, addend: 0x0, symName: '__ZN7ndarray10impl_views12constructors78_$LT$impl$u20$ndarray..ArrayBase$LT$ndarray..ViewRepr$LT$$RF$A$GT$$C$D$GT$$GT$10from_shape17h464c53e8ebb80789E', symObjAddr: 0x1DD4, symBinAddr: 0x15F74, symSize: 0x5C }
  - { offset: 0x43197, size: 0x8, addend: 0x0, symName: '__ZN7ndarray10impl_views12constructors78_$LT$impl$u20$ndarray..ArrayBase$LT$ndarray..ViewRepr$LT$$RF$A$GT$$C$D$GT$$GT$10from_shape17h619de19f72b71438E', symObjAddr: 0x1E30, symBinAddr: 0x15FD0, symSize: 0x5C }
  - { offset: 0x4322A, size: 0x8, addend: 0x0, symName: '__ZN7ndarray10impl_views12constructors78_$LT$impl$u20$ndarray..ArrayBase$LT$ndarray..ViewRepr$LT$$RF$A$GT$$C$D$GT$$GT$10from_shape17h680abb1d82391a75E', symObjAddr: 0x1E8C, symBinAddr: 0x1602C, symSize: 0x5C }
  - { offset: 0x432BD, size: 0x8, addend: 0x0, symName: '__ZN7ndarray10impl_views12constructors78_$LT$impl$u20$ndarray..ArrayBase$LT$ndarray..ViewRepr$LT$$RF$A$GT$$C$D$GT$$GT$10from_shape17h774033fdcd34394eE', symObjAddr: 0x1EE8, symBinAddr: 0x16088, symSize: 0x5C }
  - { offset: 0x43350, size: 0x8, addend: 0x0, symName: '__ZN7ndarray10impl_views12constructors78_$LT$impl$u20$ndarray..ArrayBase$LT$ndarray..ViewRepr$LT$$RF$A$GT$$C$D$GT$$GT$10from_shape17h9b65ba812b2b15caE', symObjAddr: 0x1F44, symBinAddr: 0x160E4, symSize: 0x5C }
  - { offset: 0x433DC, size: 0x8, addend: 0x0, symName: '__ZN7ndarray10impl_views12constructors78_$LT$impl$u20$ndarray..ArrayBase$LT$ndarray..ViewRepr$LT$$RF$A$GT$$C$D$GT$$GT$10from_shape17hcbe826df1c6489a1E', symObjAddr: 0x1FA0, symBinAddr: 0x16140, symSize: 0x5C }
  - { offset: 0x4346F, size: 0x8, addend: 0x0, symName: '__ZN7ndarray10impl_views12constructors78_$LT$impl$u20$ndarray..ArrayBase$LT$ndarray..ViewRepr$LT$$RF$A$GT$$C$D$GT$$GT$10from_shape17hdecb72d3334d0b4cE', symObjAddr: 0x1FFC, symBinAddr: 0x1619C, symSize: 0x5C }
  - { offset: 0x434BA, size: 0x8, addend: 0x0, symName: '__ZN7ndarray10impl_views12constructors78_$LT$impl$u20$ndarray..ArrayBase$LT$ndarray..ViewRepr$LT$$RF$A$GT$$C$D$GT$$GT$15from_shape_impl17h04af50485396bfbdE', symObjAddr: 0x2058, symBinAddr: 0x161F8, symSize: 0x1F0 }
  - { offset: 0x43589, size: 0x8, addend: 0x0, symName: '__ZN7ndarray10impl_views12constructors78_$LT$impl$u20$ndarray..ArrayBase$LT$ndarray..ViewRepr$LT$$RF$A$GT$$C$D$GT$$GT$15from_shape_impl17h1d8467bddbe56506E', symObjAddr: 0x2248, symBinAddr: 0x163E8, symSize: 0x1F0 }
  - { offset: 0x43658, size: 0x8, addend: 0x0, symName: '__ZN7ndarray10impl_views12constructors78_$LT$impl$u20$ndarray..ArrayBase$LT$ndarray..ViewRepr$LT$$RF$A$GT$$C$D$GT$$GT$15from_shape_impl17h2ad357fcd746118eE', symObjAddr: 0x2438, symBinAddr: 0x165D8, symSize: 0x1F0 }
  - { offset: 0x43727, size: 0x8, addend: 0x0, symName: '__ZN7ndarray10impl_views12constructors78_$LT$impl$u20$ndarray..ArrayBase$LT$ndarray..ViewRepr$LT$$RF$A$GT$$C$D$GT$$GT$15from_shape_impl17h3a2f9653c996f98cE', symObjAddr: 0x2628, symBinAddr: 0x167C8, symSize: 0x1F0 }
  - { offset: 0x437F6, size: 0x8, addend: 0x0, symName: '__ZN7ndarray10impl_views12constructors78_$LT$impl$u20$ndarray..ArrayBase$LT$ndarray..ViewRepr$LT$$RF$A$GT$$C$D$GT$$GT$15from_shape_impl17h4cc083cc9f041a03E', symObjAddr: 0x2818, symBinAddr: 0x169B8, symSize: 0x1F0 }
  - { offset: 0x438C5, size: 0x8, addend: 0x0, symName: '__ZN7ndarray10impl_views12constructors78_$LT$impl$u20$ndarray..ArrayBase$LT$ndarray..ViewRepr$LT$$RF$A$GT$$C$D$GT$$GT$15from_shape_impl17h6695238a93a2e388E', symObjAddr: 0x2A08, symBinAddr: 0x16BA8, symSize: 0x1F0 }
  - { offset: 0x43994, size: 0x8, addend: 0x0, symName: '__ZN7ndarray10impl_views12constructors78_$LT$impl$u20$ndarray..ArrayBase$LT$ndarray..ViewRepr$LT$$RF$A$GT$$C$D$GT$$GT$15from_shape_impl17h9dfc4dfef35b3962E', symObjAddr: 0x2BF8, symBinAddr: 0x16D98, symSize: 0x1F0 }
  - { offset: 0x43A63, size: 0x8, addend: 0x0, symName: '__ZN7ndarray10impl_views12constructors78_$LT$impl$u20$ndarray..ArrayBase$LT$ndarray..ViewRepr$LT$$RF$A$GT$$C$D$GT$$GT$15from_shape_impl17hb8cd0cd5fbad2dd9E', symObjAddr: 0x2DE8, symBinAddr: 0x16F88, symSize: 0x1F0 }
  - { offset: 0x43B32, size: 0x8, addend: 0x0, symName: '__ZN7ndarray10impl_views12constructors78_$LT$impl$u20$ndarray..ArrayBase$LT$ndarray..ViewRepr$LT$$RF$A$GT$$C$D$GT$$GT$15from_shape_impl17hbf44d140106c0abfE', symObjAddr: 0x2FD8, symBinAddr: 0x17178, symSize: 0x1F0 }
  - { offset: 0x43C01, size: 0x8, addend: 0x0, symName: '__ZN7ndarray10impl_views12constructors78_$LT$impl$u20$ndarray..ArrayBase$LT$ndarray..ViewRepr$LT$$RF$A$GT$$C$D$GT$$GT$15from_shape_impl17hd62ab9bfd60a928cE', symObjAddr: 0x31C8, symBinAddr: 0x17368, symSize: 0x1F0 }
  - { offset: 0x43DA6, size: 0x8, addend: 0x0, symName: '__ZN7ndarray10impl_views12constructors78_$LT$impl$u20$ndarray..ArrayBase$LT$ndarray..ViewRepr$LT$$RF$A$GT$$C$D$GT$$GT$4new_17h235e50f6f5e2e6d1E', symObjAddr: 0x33B8, symBinAddr: 0x17558, symSize: 0x240 }
  - { offset: 0x43EBF, size: 0x8, addend: 0x0, symName: '__ZN7ndarray10impl_views12constructors78_$LT$impl$u20$ndarray..ArrayBase$LT$ndarray..ViewRepr$LT$$RF$A$GT$$C$D$GT$$GT$4new_17h2cdf8265d0502efeE', symObjAddr: 0x35F8, symBinAddr: 0x17798, symSize: 0x240 }
  - { offset: 0x43FD8, size: 0x8, addend: 0x0, symName: '__ZN7ndarray10impl_views12constructors78_$LT$impl$u20$ndarray..ArrayBase$LT$ndarray..ViewRepr$LT$$RF$A$GT$$C$D$GT$$GT$4new_17h4cd849135293d43cE', symObjAddr: 0x3838, symBinAddr: 0x179D8, symSize: 0x240 }
  - { offset: 0x440F1, size: 0x8, addend: 0x0, symName: '__ZN7ndarray10impl_views12constructors78_$LT$impl$u20$ndarray..ArrayBase$LT$ndarray..ViewRepr$LT$$RF$A$GT$$C$D$GT$$GT$4new_17h6f3cbc2975d19bedE', symObjAddr: 0x3A78, symBinAddr: 0x17C18, symSize: 0x240 }
  - { offset: 0x4420A, size: 0x8, addend: 0x0, symName: '__ZN7ndarray10impl_views12constructors78_$LT$impl$u20$ndarray..ArrayBase$LT$ndarray..ViewRepr$LT$$RF$A$GT$$C$D$GT$$GT$4new_17h96ccf2fb406fedd6E', symObjAddr: 0x3CB8, symBinAddr: 0x17E58, symSize: 0x240 }
  - { offset: 0x44323, size: 0x8, addend: 0x0, symName: '__ZN7ndarray10impl_views12constructors78_$LT$impl$u20$ndarray..ArrayBase$LT$ndarray..ViewRepr$LT$$RF$A$GT$$C$D$GT$$GT$4new_17h98ca82adc1e26274E', symObjAddr: 0x3EF8, symBinAddr: 0x18098, symSize: 0x240 }
  - { offset: 0x4443C, size: 0x8, addend: 0x0, symName: '__ZN7ndarray10impl_views12constructors78_$LT$impl$u20$ndarray..ArrayBase$LT$ndarray..ViewRepr$LT$$RF$A$GT$$C$D$GT$$GT$4new_17h9dde38c0e03c5b27E', symObjAddr: 0x4138, symBinAddr: 0x182D8, symSize: 0x240 }
  - { offset: 0x44555, size: 0x8, addend: 0x0, symName: '__ZN7ndarray10impl_views12constructors78_$LT$impl$u20$ndarray..ArrayBase$LT$ndarray..ViewRepr$LT$$RF$A$GT$$C$D$GT$$GT$4new_17hb9f6204a51f54d66E', symObjAddr: 0x4378, symBinAddr: 0x18518, symSize: 0x240 }
  - { offset: 0x4466E, size: 0x8, addend: 0x0, symName: '__ZN7ndarray10impl_views12constructors78_$LT$impl$u20$ndarray..ArrayBase$LT$ndarray..ViewRepr$LT$$RF$A$GT$$C$D$GT$$GT$4new_17hc089c1387ae6ae5aE', symObjAddr: 0x45B8, symBinAddr: 0x18758, symSize: 0x240 }
  - { offset: 0x44787, size: 0x8, addend: 0x0, symName: '__ZN7ndarray10impl_views12constructors78_$LT$impl$u20$ndarray..ArrayBase$LT$ndarray..ViewRepr$LT$$RF$A$GT$$C$D$GT$$GT$4new_17hea139243ea2efdf9E', symObjAddr: 0x47F8, symBinAddr: 0x18998, symSize: 0x240 }
  - { offset: 0x448A5, size: 0x8, addend: 0x0, symName: '__ZN7ndarray12impl_methods49_$LT$impl$u20$ndarray..ArrayBase$LT$S$C$D$GT$$GT$19pointer_is_inbounds17h1c1589ca3434c499E', symObjAddr: 0x4FB0, symBinAddr: 0x19150, symSize: 0x38 }
  - { offset: 0x4493C, size: 0x8, addend: 0x0, symName: '__ZN7ndarray12impl_methods49_$LT$impl$u20$ndarray..ArrayBase$LT$S$C$D$GT$$GT$19pointer_is_inbounds17h1edb9658ac6784ebE', symObjAddr: 0x4FE8, symBinAddr: 0x19188, symSize: 0x38 }
  - { offset: 0x449D3, size: 0x8, addend: 0x0, symName: '__ZN7ndarray12impl_methods49_$LT$impl$u20$ndarray..ArrayBase$LT$S$C$D$GT$$GT$19pointer_is_inbounds17h397702246655791aE', symObjAddr: 0x5020, symBinAddr: 0x191C0, symSize: 0x38 }
  - { offset: 0x44A6A, size: 0x8, addend: 0x0, symName: '__ZN7ndarray12impl_methods49_$LT$impl$u20$ndarray..ArrayBase$LT$S$C$D$GT$$GT$19pointer_is_inbounds17h67ce9b4c886bae72E', symObjAddr: 0x5058, symBinAddr: 0x191F8, symSize: 0x38 }
  - { offset: 0x44B01, size: 0x8, addend: 0x0, symName: '__ZN7ndarray12impl_methods49_$LT$impl$u20$ndarray..ArrayBase$LT$S$C$D$GT$$GT$19pointer_is_inbounds17h68158f9e3a1eb55aE', symObjAddr: 0x5090, symBinAddr: 0x19230, symSize: 0x38 }
  - { offset: 0x44B98, size: 0x8, addend: 0x0, symName: '__ZN7ndarray12impl_methods49_$LT$impl$u20$ndarray..ArrayBase$LT$S$C$D$GT$$GT$19pointer_is_inbounds17h803126f1a7e99f09E', symObjAddr: 0x50C8, symBinAddr: 0x19268, symSize: 0x38 }
  - { offset: 0x44C2F, size: 0x8, addend: 0x0, symName: '__ZN7ndarray12impl_methods49_$LT$impl$u20$ndarray..ArrayBase$LT$S$C$D$GT$$GT$19pointer_is_inbounds17h82f3a6b1e3ba9a82E', symObjAddr: 0x5100, symBinAddr: 0x192A0, symSize: 0x38 }
  - { offset: 0x44CC6, size: 0x8, addend: 0x0, symName: '__ZN7ndarray12impl_methods49_$LT$impl$u20$ndarray..ArrayBase$LT$S$C$D$GT$$GT$19pointer_is_inbounds17haacc99698f9f6f96E', symObjAddr: 0x5138, symBinAddr: 0x192D8, symSize: 0x38 }
  - { offset: 0x44D5D, size: 0x8, addend: 0x0, symName: '__ZN7ndarray12impl_methods49_$LT$impl$u20$ndarray..ArrayBase$LT$S$C$D$GT$$GT$19pointer_is_inbounds17hb9513c3f1ab8cc30E', symObjAddr: 0x5170, symBinAddr: 0x19310, symSize: 0x38 }
  - { offset: 0x44DF4, size: 0x8, addend: 0x0, symName: '__ZN7ndarray12impl_methods49_$LT$impl$u20$ndarray..ArrayBase$LT$S$C$D$GT$$GT$19pointer_is_inbounds17hf9685db69cc32a8dE', symObjAddr: 0x51A8, symBinAddr: 0x19348, symSize: 0x38 }
  - { offset: 0x44E50, size: 0x8, addend: 0x0, symName: '__ZN7ndarray12impl_methods49_$LT$impl$u20$ndarray..ArrayBase$LT$S$C$D$GT$$GT$7raw_dim17h03da24566512a0e6E', symObjAddr: 0x51E0, symBinAddr: 0x19380, symSize: 0x34 }
  - { offset: 0x44E8D, size: 0x8, addend: 0x0, symName: '__ZN7ndarray12impl_methods49_$LT$impl$u20$ndarray..ArrayBase$LT$S$C$D$GT$$GT$7raw_dim17h0e35ebba2f3f55beE', symObjAddr: 0x5214, symBinAddr: 0x193B4, symSize: 0x34 }
  - { offset: 0x44ED7, size: 0x8, addend: 0x0, symName: '__ZN7ndarray12impl_methods49_$LT$impl$u20$ndarray..ArrayBase$LT$S$C$D$GT$$GT$7raw_dim17h10324317737de2e5E', symObjAddr: 0x5248, symBinAddr: 0x193E8, symSize: 0x24 }
  - { offset: 0x44F14, size: 0x8, addend: 0x0, symName: '__ZN7ndarray12impl_methods49_$LT$impl$u20$ndarray..ArrayBase$LT$S$C$D$GT$$GT$7raw_dim17h24eb457484970a4fE', symObjAddr: 0x526C, symBinAddr: 0x1940C, symSize: 0x34 }
  - { offset: 0x44F5E, size: 0x8, addend: 0x0, symName: '__ZN7ndarray12impl_methods49_$LT$impl$u20$ndarray..ArrayBase$LT$S$C$D$GT$$GT$7raw_dim17h4d28752b6fcba849E', symObjAddr: 0x52A0, symBinAddr: 0x19440, symSize: 0x24 }
  - { offset: 0x44FA8, size: 0x8, addend: 0x0, symName: '__ZN7ndarray12impl_methods49_$LT$impl$u20$ndarray..ArrayBase$LT$S$C$D$GT$$GT$7raw_dim17h51572d1e645d71a4E', symObjAddr: 0x52C4, symBinAddr: 0x19464, symSize: 0x24 }
  - { offset: 0x44FE5, size: 0x8, addend: 0x0, symName: '__ZN7ndarray12impl_methods49_$LT$impl$u20$ndarray..ArrayBase$LT$S$C$D$GT$$GT$7raw_dim17h5296fc3cc2fecb5eE', symObjAddr: 0x52E8, symBinAddr: 0x19488, symSize: 0x34 }
  - { offset: 0x45022, size: 0x8, addend: 0x0, symName: '__ZN7ndarray12impl_methods49_$LT$impl$u20$ndarray..ArrayBase$LT$S$C$D$GT$$GT$7raw_dim17h67fb19c77b862353E', symObjAddr: 0x531C, symBinAddr: 0x194BC, symSize: 0x34 }
  - { offset: 0x4505F, size: 0x8, addend: 0x0, symName: '__ZN7ndarray12impl_methods49_$LT$impl$u20$ndarray..ArrayBase$LT$S$C$D$GT$$GT$7raw_dim17h737d000fa3bf2cf5E', symObjAddr: 0x5350, symBinAddr: 0x194F0, symSize: 0x34 }
  - { offset: 0x4509C, size: 0x8, addend: 0x0, symName: '__ZN7ndarray12impl_methods49_$LT$impl$u20$ndarray..ArrayBase$LT$S$C$D$GT$$GT$7raw_dim17h7bd5200738606529E', symObjAddr: 0x5384, symBinAddr: 0x19524, symSize: 0x34 }
  - { offset: 0x450E6, size: 0x8, addend: 0x0, symName: '__ZN7ndarray12impl_methods49_$LT$impl$u20$ndarray..ArrayBase$LT$S$C$D$GT$$GT$7raw_dim17h7ca8efb10bfef540E', symObjAddr: 0x53B8, symBinAddr: 0x19558, symSize: 0x24 }
  - { offset: 0x45130, size: 0x8, addend: 0x0, symName: '__ZN7ndarray12impl_methods49_$LT$impl$u20$ndarray..ArrayBase$LT$S$C$D$GT$$GT$7raw_dim17h908bfdbc9ac652ecE', symObjAddr: 0x53DC, symBinAddr: 0x1957C, symSize: 0x24 }
  - { offset: 0x4516D, size: 0x8, addend: 0x0, symName: '__ZN7ndarray12impl_methods49_$LT$impl$u20$ndarray..ArrayBase$LT$S$C$D$GT$$GT$7raw_dim17ha2a2cb9f53b38db3E', symObjAddr: 0x5400, symBinAddr: 0x195A0, symSize: 0x34 }
  - { offset: 0x451B7, size: 0x8, addend: 0x0, symName: '__ZN7ndarray12impl_methods49_$LT$impl$u20$ndarray..ArrayBase$LT$S$C$D$GT$$GT$7raw_dim17hbbc9fe8249e31ef5E', symObjAddr: 0x5434, symBinAddr: 0x195D4, symSize: 0x24 }
  - { offset: 0x451F4, size: 0x8, addend: 0x0, symName: '__ZN7ndarray12impl_methods49_$LT$impl$u20$ndarray..ArrayBase$LT$S$C$D$GT$$GT$7raw_dim17hc80bead4e3ccc2e4E', symObjAddr: 0x5458, symBinAddr: 0x195F8, symSize: 0x34 }
  - { offset: 0x4523E, size: 0x8, addend: 0x0, symName: '__ZN7ndarray12impl_methods49_$LT$impl$u20$ndarray..ArrayBase$LT$S$C$D$GT$$GT$7raw_dim17hca389161e3266cb4E', symObjAddr: 0x548C, symBinAddr: 0x1962C, symSize: 0x24 }
  - { offset: 0x45288, size: 0x8, addend: 0x0, symName: '__ZN7ndarray12impl_methods49_$LT$impl$u20$ndarray..ArrayBase$LT$S$C$D$GT$$GT$7raw_dim17hd32d78a1b52d5919E', symObjAddr: 0x54B0, symBinAddr: 0x19650, symSize: 0x24 }
  - { offset: 0x452C5, size: 0x8, addend: 0x0, symName: '__ZN7ndarray12impl_methods49_$LT$impl$u20$ndarray..ArrayBase$LT$S$C$D$GT$$GT$7raw_dim17he6f502cf86949c93E', symObjAddr: 0x54D4, symBinAddr: 0x19674, symSize: 0x34 }
  - { offset: 0x4530F, size: 0x8, addend: 0x0, symName: '__ZN7ndarray12impl_methods49_$LT$impl$u20$ndarray..ArrayBase$LT$S$C$D$GT$$GT$7raw_dim17hea089bde64682e12E', symObjAddr: 0x5508, symBinAddr: 0x196A8, symSize: 0x24 }
  - { offset: 0x45359, size: 0x8, addend: 0x0, symName: '__ZN7ndarray12impl_methods49_$LT$impl$u20$ndarray..ArrayBase$LT$S$C$D$GT$$GT$7raw_dim17hfb344e32c1e6ace5E', symObjAddr: 0x552C, symBinAddr: 0x196CC, symSize: 0x24 }
  - { offset: 0x453C4, size: 0x8, addend: 0x0, symName: '__ZN7ndarray12impl_methods49_$LT$impl$u20$ndarray..ArrayBase$LT$S$C$D$GT$$GT$7strides17h0b77efbef071052eE', symObjAddr: 0x5550, symBinAddr: 0x196F0, symSize: 0x48 }
  - { offset: 0x4541E, size: 0x8, addend: 0x0, symName: '__ZN7ndarray12impl_methods49_$LT$impl$u20$ndarray..ArrayBase$LT$S$C$D$GT$$GT$7strides17h157f4a43a550302dE', symObjAddr: 0x5598, symBinAddr: 0x19738, symSize: 0x48 }
  - { offset: 0x45478, size: 0x8, addend: 0x0, symName: '__ZN7ndarray12impl_methods49_$LT$impl$u20$ndarray..ArrayBase$LT$S$C$D$GT$$GT$7strides17h1867a8c37ef28504E', symObjAddr: 0x55E0, symBinAddr: 0x19780, symSize: 0x48 }
  - { offset: 0x454D2, size: 0x8, addend: 0x0, symName: '__ZN7ndarray12impl_methods49_$LT$impl$u20$ndarray..ArrayBase$LT$S$C$D$GT$$GT$7strides17h20b81401e0e1370dE', symObjAddr: 0x5628, symBinAddr: 0x197C8, symSize: 0x48 }
  - { offset: 0x4552C, size: 0x8, addend: 0x0, symName: '__ZN7ndarray12impl_methods49_$LT$impl$u20$ndarray..ArrayBase$LT$S$C$D$GT$$GT$7strides17h298cfaa3181f699fE', symObjAddr: 0x5670, symBinAddr: 0x19810, symSize: 0x48 }
  - { offset: 0x45586, size: 0x8, addend: 0x0, symName: '__ZN7ndarray12impl_methods49_$LT$impl$u20$ndarray..ArrayBase$LT$S$C$D$GT$$GT$7strides17h3214d00a21fd2fe3E', symObjAddr: 0x56B8, symBinAddr: 0x19858, symSize: 0x48 }
  - { offset: 0x455E0, size: 0x8, addend: 0x0, symName: '__ZN7ndarray12impl_methods49_$LT$impl$u20$ndarray..ArrayBase$LT$S$C$D$GT$$GT$7strides17h367c413c0943cb65E', symObjAddr: 0x5700, symBinAddr: 0x198A0, symSize: 0x48 }
  - { offset: 0x4563A, size: 0x8, addend: 0x0, symName: '__ZN7ndarray12impl_methods49_$LT$impl$u20$ndarray..ArrayBase$LT$S$C$D$GT$$GT$7strides17h3a4bc345eef0904aE', symObjAddr: 0x5748, symBinAddr: 0x198E8, symSize: 0x48 }
  - { offset: 0x45694, size: 0x8, addend: 0x0, symName: '__ZN7ndarray12impl_methods49_$LT$impl$u20$ndarray..ArrayBase$LT$S$C$D$GT$$GT$7strides17h3f0af5bd6aa9fd2dE', symObjAddr: 0x5790, symBinAddr: 0x19930, symSize: 0x48 }
  - { offset: 0x456EE, size: 0x8, addend: 0x0, symName: '__ZN7ndarray12impl_methods49_$LT$impl$u20$ndarray..ArrayBase$LT$S$C$D$GT$$GT$7strides17h4cd9907ba1393818E', symObjAddr: 0x57D8, symBinAddr: 0x19978, symSize: 0x48 }
  - { offset: 0x45748, size: 0x8, addend: 0x0, symName: '__ZN7ndarray12impl_methods49_$LT$impl$u20$ndarray..ArrayBase$LT$S$C$D$GT$$GT$7strides17h67a7a4fc9e0e0f70E', symObjAddr: 0x5820, symBinAddr: 0x199C0, symSize: 0x48 }
  - { offset: 0x457A2, size: 0x8, addend: 0x0, symName: '__ZN7ndarray12impl_methods49_$LT$impl$u20$ndarray..ArrayBase$LT$S$C$D$GT$$GT$7strides17h6ec5b0be97f311b5E', symObjAddr: 0x5868, symBinAddr: 0x19A08, symSize: 0x48 }
  - { offset: 0x457FC, size: 0x8, addend: 0x0, symName: '__ZN7ndarray12impl_methods49_$LT$impl$u20$ndarray..ArrayBase$LT$S$C$D$GT$$GT$7strides17h7987c4cbbf28f7e8E', symObjAddr: 0x58B0, symBinAddr: 0x19A50, symSize: 0x48 }
  - { offset: 0x45856, size: 0x8, addend: 0x0, symName: '__ZN7ndarray12impl_methods49_$LT$impl$u20$ndarray..ArrayBase$LT$S$C$D$GT$$GT$7strides17hab12d9eda3b373b7E', symObjAddr: 0x58F8, symBinAddr: 0x19A98, symSize: 0x48 }
  - { offset: 0x458B0, size: 0x8, addend: 0x0, symName: '__ZN7ndarray12impl_methods49_$LT$impl$u20$ndarray..ArrayBase$LT$S$C$D$GT$$GT$7strides17hb21036e42e950b7cE', symObjAddr: 0x5940, symBinAddr: 0x19AE0, symSize: 0x48 }
  - { offset: 0x4590A, size: 0x8, addend: 0x0, symName: '__ZN7ndarray12impl_methods49_$LT$impl$u20$ndarray..ArrayBase$LT$S$C$D$GT$$GT$7strides17hb516254cd7980e2dE', symObjAddr: 0x5988, symBinAddr: 0x19B28, symSize: 0x48 }
  - { offset: 0x45964, size: 0x8, addend: 0x0, symName: '__ZN7ndarray12impl_methods49_$LT$impl$u20$ndarray..ArrayBase$LT$S$C$D$GT$$GT$7strides17hbe47e730a805e2e3E', symObjAddr: 0x59D0, symBinAddr: 0x19B70, symSize: 0x48 }
  - { offset: 0x459BE, size: 0x8, addend: 0x0, symName: '__ZN7ndarray12impl_methods49_$LT$impl$u20$ndarray..ArrayBase$LT$S$C$D$GT$$GT$7strides17hc92930b338af060dE', symObjAddr: 0x5A18, symBinAddr: 0x19BB8, symSize: 0x48 }
  - { offset: 0x45A18, size: 0x8, addend: 0x0, symName: '__ZN7ndarray12impl_methods49_$LT$impl$u20$ndarray..ArrayBase$LT$S$C$D$GT$$GT$7strides17he8eabd298a88557eE', symObjAddr: 0x5A60, symBinAddr: 0x19C00, symSize: 0x48 }
  - { offset: 0x45A72, size: 0x8, addend: 0x0, symName: '__ZN7ndarray12impl_methods49_$LT$impl$u20$ndarray..ArrayBase$LT$S$C$D$GT$$GT$7strides17hfdea06057c0de940E', symObjAddr: 0x5AA8, symBinAddr: 0x19C48, symSize: 0x48 }
  - { offset: 0x45ACC, size: 0x8, addend: 0x0, symName: '__ZN7ndarray26impl_internal_constructors110_$LT$impl$u20$ndarray..ArrayBase$LT$S$C$ndarray..dimension..dim..Dim$LT$$u5b$usize$u3b$$u20$1$u5d$$GT$$GT$$GT$13from_data_ptr17h4d8fbbddc58844f3E', symObjAddr: 0x5AF0, symBinAddr: 0x19C90, symSize: 0x15C }
  - { offset: 0x45B5F, size: 0x8, addend: 0x0, symName: '__ZN7ndarray26impl_internal_constructors110_$LT$impl$u20$ndarray..ArrayBase$LT$S$C$ndarray..dimension..dim..Dim$LT$$u5b$usize$u3b$$u20$1$u5d$$GT$$GT$$GT$13from_data_ptr17h74ac89b491faaefdE', symObjAddr: 0x5C4C, symBinAddr: 0x19DEC, symSize: 0x15C }
  - { offset: 0x45BF2, size: 0x8, addend: 0x0, symName: '__ZN7ndarray26impl_internal_constructors110_$LT$impl$u20$ndarray..ArrayBase$LT$S$C$ndarray..dimension..dim..Dim$LT$$u5b$usize$u3b$$u20$1$u5d$$GT$$GT$$GT$13from_data_ptr17h79a53dfefc8b3594E', symObjAddr: 0x5DA8, symBinAddr: 0x19F48, symSize: 0x15C }
  - { offset: 0x45C85, size: 0x8, addend: 0x0, symName: '__ZN7ndarray26impl_internal_constructors110_$LT$impl$u20$ndarray..ArrayBase$LT$S$C$ndarray..dimension..dim..Dim$LT$$u5b$usize$u3b$$u20$1$u5d$$GT$$GT$$GT$13from_data_ptr17h93faec24285f9bffE', symObjAddr: 0x5F04, symBinAddr: 0x1A0A4, symSize: 0x15C }
  - { offset: 0x45D18, size: 0x8, addend: 0x0, symName: '__ZN7ndarray26impl_internal_constructors110_$LT$impl$u20$ndarray..ArrayBase$LT$S$C$ndarray..dimension..dim..Dim$LT$$u5b$usize$u3b$$u20$1$u5d$$GT$$GT$$GT$13from_data_ptr17h9d764ce487f28492E', symObjAddr: 0x6060, symBinAddr: 0x1A200, symSize: 0x15C }
  - { offset: 0x45DAB, size: 0x8, addend: 0x0, symName: '__ZN7ndarray26impl_internal_constructors110_$LT$impl$u20$ndarray..ArrayBase$LT$S$C$ndarray..dimension..dim..Dim$LT$$u5b$usize$u3b$$u20$1$u5d$$GT$$GT$$GT$13from_data_ptr17ha4932af5757420daE', symObjAddr: 0x61BC, symBinAddr: 0x1A35C, symSize: 0x15C }
  - { offset: 0x45E3E, size: 0x8, addend: 0x0, symName: '__ZN7ndarray26impl_internal_constructors110_$LT$impl$u20$ndarray..ArrayBase$LT$S$C$ndarray..dimension..dim..Dim$LT$$u5b$usize$u3b$$u20$1$u5d$$GT$$GT$$GT$13from_data_ptr17haadd46ecd670c697E', symObjAddr: 0x6318, symBinAddr: 0x1A4B8, symSize: 0x15C }
  - { offset: 0x45ED1, size: 0x8, addend: 0x0, symName: '__ZN7ndarray26impl_internal_constructors110_$LT$impl$u20$ndarray..ArrayBase$LT$S$C$ndarray..dimension..dim..Dim$LT$$u5b$usize$u3b$$u20$1$u5d$$GT$$GT$$GT$13from_data_ptr17hc6e4640644e2973cE', symObjAddr: 0x6474, symBinAddr: 0x1A614, symSize: 0x15C }
  - { offset: 0x45F64, size: 0x8, addend: 0x0, symName: '__ZN7ndarray26impl_internal_constructors110_$LT$impl$u20$ndarray..ArrayBase$LT$S$C$ndarray..dimension..dim..Dim$LT$$u5b$usize$u3b$$u20$1$u5d$$GT$$GT$$GT$13from_data_ptr17hd192b0dd90229f74E', symObjAddr: 0x65D0, symBinAddr: 0x1A770, symSize: 0x15C }
  - { offset: 0x45FF7, size: 0x8, addend: 0x0, symName: '__ZN7ndarray26impl_internal_constructors110_$LT$impl$u20$ndarray..ArrayBase$LT$S$C$ndarray..dimension..dim..Dim$LT$$u5b$usize$u3b$$u20$1$u5d$$GT$$GT$$GT$13from_data_ptr17hf9fa3ea9dec2eb72E', symObjAddr: 0x672C, symBinAddr: 0x1A8CC, symSize: 0x15C }
  - { offset: 0x4608A, size: 0x8, addend: 0x0, symName: '__ZN7ndarray26impl_internal_constructors49_$LT$impl$u20$ndarray..ArrayBase$LT$S$C$D$GT$$GT$16with_strides_dim17h0ce10684d10f637dE', symObjAddr: 0x6888, symBinAddr: 0x1AA28, symSize: 0x100 }
  - { offset: 0x46138, size: 0x8, addend: 0x0, symName: '__ZN7ndarray26impl_internal_constructors49_$LT$impl$u20$ndarray..ArrayBase$LT$S$C$D$GT$$GT$16with_strides_dim17h13cb2601836eee9cE', symObjAddr: 0x6988, symBinAddr: 0x1AB28, symSize: 0x100 }
  - { offset: 0x461E6, size: 0x8, addend: 0x0, symName: '__ZN7ndarray26impl_internal_constructors49_$LT$impl$u20$ndarray..ArrayBase$LT$S$C$D$GT$$GT$16with_strides_dim17h5833f013fde920c4E', symObjAddr: 0x6A88, symBinAddr: 0x1AC28, symSize: 0x100 }
  - { offset: 0x46294, size: 0x8, addend: 0x0, symName: '__ZN7ndarray26impl_internal_constructors49_$LT$impl$u20$ndarray..ArrayBase$LT$S$C$D$GT$$GT$16with_strides_dim17h58f52d25bb952befE', symObjAddr: 0x6B88, symBinAddr: 0x1AD28, symSize: 0x100 }
  - { offset: 0x46342, size: 0x8, addend: 0x0, symName: '__ZN7ndarray26impl_internal_constructors49_$LT$impl$u20$ndarray..ArrayBase$LT$S$C$D$GT$$GT$16with_strides_dim17h673f3a7d96767dd9E', symObjAddr: 0x6C88, symBinAddr: 0x1AE28, symSize: 0x100 }
  - { offset: 0x463F0, size: 0x8, addend: 0x0, symName: '__ZN7ndarray26impl_internal_constructors49_$LT$impl$u20$ndarray..ArrayBase$LT$S$C$D$GT$$GT$16with_strides_dim17h73f260cbaa76878fE', symObjAddr: 0x6D88, symBinAddr: 0x1AF28, symSize: 0x100 }
  - { offset: 0x4649E, size: 0x8, addend: 0x0, symName: '__ZN7ndarray26impl_internal_constructors49_$LT$impl$u20$ndarray..ArrayBase$LT$S$C$D$GT$$GT$16with_strides_dim17hbdaa98a6761b8cecE', symObjAddr: 0x6E88, symBinAddr: 0x1B028, symSize: 0x100 }
  - { offset: 0x4654C, size: 0x8, addend: 0x0, symName: '__ZN7ndarray26impl_internal_constructors49_$LT$impl$u20$ndarray..ArrayBase$LT$S$C$D$GT$$GT$16with_strides_dim17he1b4e4528d4fae85E', symObjAddr: 0x6F88, symBinAddr: 0x1B128, symSize: 0x100 }
  - { offset: 0x465FA, size: 0x8, addend: 0x0, symName: '__ZN7ndarray26impl_internal_constructors49_$LT$impl$u20$ndarray..ArrayBase$LT$S$C$D$GT$$GT$16with_strides_dim17hea27a1ca2d4e5792E', symObjAddr: 0x7088, symBinAddr: 0x1B228, symSize: 0x100 }
  - { offset: 0x466A8, size: 0x8, addend: 0x0, symName: '__ZN7ndarray26impl_internal_constructors49_$LT$impl$u20$ndarray..ArrayBase$LT$S$C$D$GT$$GT$16with_strides_dim17hedb9b3a0c4b2b48bE', symObjAddr: 0x7188, symBinAddr: 0x1B328, symSize: 0x100 }
  - { offset: 0x467B5, size: 0x8, addend: 0x0, symName: __ZN4core4char7methods25encode_utf8_raw_unchecked17hf71712ad3592f1d6E, symObjAddr: 0x0, symBinAddr: 0x1B428, symSize: 0x188 }
  - { offset: 0x46835, size: 0x8, addend: 0x0, symName: __ZN4core4char7methods25encode_utf8_raw_unchecked17hf71712ad3592f1d6E, symObjAddr: 0x0, symBinAddr: 0x1B428, symSize: 0x188 }
  - { offset: 0x46A22, size: 0x8, addend: 0x0, symName: '__ZN103_$LT$alloc..vec..into_iter..IntoIter$LT$T$C$A$GT$$u20$as$u20$core..iter..traits..iterator..Iterator$GT$4next17h17c2e37bca4f4d01E', symObjAddr: 0x0, symBinAddr: 0x1B5B0, symSize: 0xAC }
  - { offset: 0x47E8B, size: 0x8, addend: 0x0, symName: __ZN4core4iter6traits10exact_size17ExactSizeIterator3len17h4d91aef65a440e70E, symObjAddr: 0xCB0, symBinAddr: 0x1C260, symSize: 0xB8 }
  - { offset: 0x4810D, size: 0x8, addend: 0x0, symName: __ZN4core4iter6traits8iterator8Iterator3map17h04ecde67095f0457E, symObjAddr: 0xD68, symBinAddr: 0x1C318, symSize: 0x1C }
  - { offset: 0x4817A, size: 0x8, addend: 0x0, symName: __ZN4core4iter6traits8iterator8Iterator3map17h52769505be92ae76E, symObjAddr: 0xD84, symBinAddr: 0x1C334, symSize: 0x1C }
  - { offset: 0x481E7, size: 0x8, addend: 0x0, symName: __ZN4core4iter6traits8iterator8Iterator3map17h9da76d817d224f60E, symObjAddr: 0xDA0, symBinAddr: 0x1C350, symSize: 0x28 }
  - { offset: 0x48254, size: 0x8, addend: 0x0, symName: __ZN4core4iter6traits8iterator8Iterator3map17hb3fe30ec82dbb02dE, symObjAddr: 0xDC8, symBinAddr: 0x1C378, symSize: 0x1C }
  - { offset: 0x482C1, size: 0x8, addend: 0x0, symName: __ZN4core4iter6traits8iterator8Iterator3map17hdd94dee18ac0acfcE, symObjAddr: 0xDE4, symBinAddr: 0x1C394, symSize: 0x1C }
  - { offset: 0x48A11, size: 0x8, addend: 0x0, symName: '__ZN103_$LT$alloc..vec..into_iter..IntoIter$LT$T$C$A$GT$$u20$as$u20$core..iter..traits..iterator..Iterator$GT$4next17h17c2e37bca4f4d01E', symObjAddr: 0x0, symBinAddr: 0x1B5B0, symSize: 0xAC }
  - { offset: 0x48B6F, size: 0x8, addend: 0x0, symName: '__ZN103_$LT$alloc..vec..into_iter..IntoIter$LT$T$C$A$GT$$u20$as$u20$core..iter..traits..iterator..Iterator$GT$4next17hb8adb60e2586a6f1E', symObjAddr: 0xAC, symBinAddr: 0x1B65C, symSize: 0xBC }
  - { offset: 0x48CC7, size: 0x8, addend: 0x0, symName: '__ZN103_$LT$alloc..vec..into_iter..IntoIter$LT$T$C$A$GT$$u20$as$u20$core..iter..traits..iterator..Iterator$GT$8try_fold17h147d66b7711a96dcE', symObjAddr: 0x168, symBinAddr: 0x1B718, symSize: 0x1D8 }
  - { offset: 0x48E8C, size: 0x8, addend: 0x0, symName: '__ZN103_$LT$alloc..vec..into_iter..IntoIter$LT$T$C$A$GT$$u20$as$u20$core..iter..traits..iterator..Iterator$GT$8try_fold17hc785b9b094d082f6E', symObjAddr: 0x340, symBinAddr: 0x1B8F0, symSize: 0x1D8 }
  - { offset: 0x49051, size: 0x8, addend: 0x0, symName: '__ZN103_$LT$alloc..vec..into_iter..IntoIter$LT$T$C$A$GT$$u20$as$u20$core..iter..traits..iterator..Iterator$GT$8try_fold17he4075b30832b303eE', symObjAddr: 0x518, symBinAddr: 0x1BAC8, symSize: 0x1D8 }
  - { offset: 0x49216, size: 0x8, addend: 0x0, symName: '__ZN103_$LT$alloc..vec..into_iter..IntoIter$LT$T$C$A$GT$$u20$as$u20$core..iter..traits..iterator..Iterator$GT$8try_fold17hf5b23b41f90d3c72E', symObjAddr: 0x6F0, symBinAddr: 0x1BCA0, symSize: 0x1D8 }
  - { offset: 0x493DB, size: 0x8, addend: 0x0, symName: '__ZN103_$LT$alloc..vec..into_iter..IntoIter$LT$T$C$A$GT$$u20$as$u20$core..iter..traits..iterator..Iterator$GT$8try_fold17hf8d3d0fbf30f382dE', symObjAddr: 0x8C8, symBinAddr: 0x1BE78, symSize: 0x1A4 }
  - { offset: 0x495BB, size: 0x8, addend: 0x0, symName: '__ZN103_$LT$alloc..vec..into_iter..IntoIter$LT$T$C$A$GT$$u20$as$u20$core..iter..traits..iterator..Iterator$GT$9size_hint17h23fe433fdd39850bE', symObjAddr: 0xA6C, symBinAddr: 0x1C01C, symSize: 0xB4 }
  - { offset: 0x496D4, size: 0x8, addend: 0x0, symName: '__ZN103_$LT$alloc..vec..into_iter..IntoIter$LT$T$C$A$GT$$u20$as$u20$core..iter..traits..iterator..Iterator$GT$9size_hint17he473a3670273ee7eE', symObjAddr: 0xB20, symBinAddr: 0x1C0D0, symSize: 0xB4 }
  - { offset: 0x497ED, size: 0x8, addend: 0x0, symName: '__ZN103_$LT$alloc..vec..into_iter..IntoIter$LT$T$C$A$GT$$u20$as$u20$core..iter..traits..iterator..Iterator$GT$9size_hint17hfd9b5c1abef7f44dE', symObjAddr: 0xBD4, symBinAddr: 0x1C184, symSize: 0xB4 }
  - { offset: 0x4990C, size: 0x8, addend: 0x0, symName: '__ZN104_$LT$alloc..vec..into_iter..IntoIter$LT$T$GT$$u20$as$u20$alloc..vec..in_place_collect..AsVecIntoIter$GT$12as_into_iter17hbdb1c8fd13f67b4eE', symObjAddr: 0xC88, symBinAddr: 0x1C238, symSize: 0x14 }
  - { offset: 0x49943, size: 0x8, addend: 0x0, symName: '__ZN104_$LT$alloc..vec..into_iter..IntoIter$LT$T$GT$$u20$as$u20$alloc..vec..in_place_collect..AsVecIntoIter$GT$12as_into_iter17hdcf09d7e65896497E', symObjAddr: 0xC9C, symBinAddr: 0x1C24C, symSize: 0x14 }
  - { offset: 0x49BC7, size: 0x8, addend: 0x0, symName: '__ZN97_$LT$alloc..vec..into_iter..IntoIter$LT$T$C$A$GT$$u20$as$u20$core..iter..adapters..SourceIter$GT$8as_inner17h1a92be31baa4e343E', symObjAddr: 0x1164, symBinAddr: 0x1C714, symSize: 0x14 }
  - { offset: 0x49C07, size: 0x8, addend: 0x0, symName: '__ZN97_$LT$alloc..vec..into_iter..IntoIter$LT$T$C$A$GT$$u20$as$u20$core..iter..adapters..SourceIter$GT$8as_inner17hd5d88e0a701c8457E', symObjAddr: 0x1178, symBinAddr: 0x1C728, symSize: 0x14 }
  - { offset: 0x4A763, size: 0x8, addend: 0x0, symName: '__ZN5alloc3vec9into_iter21IntoIter$LT$T$C$A$GT$16as_raw_mut_slice17h01f62f7fd5adf962E', symObjAddr: 0xE00, symBinAddr: 0x1C3B0, symSize: 0xCC }
  - { offset: 0x4A8B3, size: 0x8, addend: 0x0, symName: '__ZN5alloc3vec9into_iter21IntoIter$LT$T$C$A$GT$16as_raw_mut_slice17h6ccab7b95243a7f4E', symObjAddr: 0xECC, symBinAddr: 0x1C47C, symSize: 0xCC }
  - { offset: 0x4AA03, size: 0x8, addend: 0x0, symName: '__ZN5alloc3vec9into_iter21IntoIter$LT$T$C$A$GT$16as_raw_mut_slice17h8acbdc6f681e86f7E', symObjAddr: 0xF98, symBinAddr: 0x1C548, symSize: 0xCC }
  - { offset: 0x4AB84, size: 0x8, addend: 0x0, symName: '__ZN5alloc3vec9into_iter21IntoIter$LT$T$C$A$GT$32forget_allocation_drop_remaining17h69132d532e241be2E', symObjAddr: 0x1064, symBinAddr: 0x1C614, symSize: 0x80 }
  - { offset: 0x4ACA3, size: 0x8, addend: 0x0, symName: '__ZN5alloc3vec9into_iter21IntoIter$LT$T$C$A$GT$32forget_allocation_drop_remaining17hf79a3e5aa65ab25eE', symObjAddr: 0x10E4, symBinAddr: 0x1C694, symSize: 0x80 }
  - { offset: 0x4B07B, size: 0x8, addend: 0x0, symName: __ZN5alloc5alloc15exchange_malloc17h7aa0bd1668556c0cE, symObjAddr: 0x0, symBinAddr: 0x1C73C, symSize: 0xB0 }
  - { offset: 0x4BCE1, size: 0x8, addend: 0x0, symName: '__ZN63_$LT$alloc..alloc..Global$u20$as$u20$core..alloc..Allocator$GT$10deallocate17h481774ee17200cebE', symObjAddr: 0x548, symBinAddr: 0x1CC84, symSize: 0x58 }
  - { offset: 0x4BE4F, size: 0x8, addend: 0x0, symName: __ZN5alloc5alloc15exchange_malloc17h7aa0bd1668556c0cE, symObjAddr: 0x0, symBinAddr: 0x1C73C, symSize: 0xB0 }
  - { offset: 0x4C1FE, size: 0x8, addend: 0x0, symName: __ZN5alloc5alloc6Global18alloc_impl_runtime17h0011c62bc6d1dfb7E, symObjAddr: 0xB0, symBinAddr: 0x1C7EC, symSize: 0x194 }
  - { offset: 0x4C739, size: 0x8, addend: 0x0, symName: __ZN5alloc5alloc6Global19shrink_impl_runtime17h9712c628fa149aa5E, symObjAddr: 0x244, symBinAddr: 0x1C980, symSize: 0x304 }
  - { offset: 0x4CE4C, size: 0x8, addend: 0x0, symName: '__ZN4core3ptr9const_ptr33_$LT$impl$u20$$BP$const$u20$T$GT$20offset_from_unsigned18precondition_check17h085aea52bc26942cE', symObjAddr: 0x0, symBinAddr: 0x1CCDC, symSize: 0x60 }
  - { offset: 0x4CE72, size: 0x8, addend: 0x0, symName: '__ZN4core3ptr9const_ptr33_$LT$impl$u20$$BP$const$u20$T$GT$20offset_from_unsigned18precondition_check17h085aea52bc26942cE', symObjAddr: 0x0, symBinAddr: 0x1CCDC, symSize: 0x60 }
  - { offset: 0x4CF5B, size: 0x8, addend: 0x0, symName: '__ZN4core3ptr9const_ptr33_$LT$impl$u20$$BP$const$u20$T$GT$6offset18precondition_check17ha55f264d6133f29dE', symObjAddr: 0x60, symBinAddr: 0x1CD3C, symSize: 0xC4 }
  - { offset: 0x4D342, size: 0x8, addend: 0x0, symName: '__ZN58_$LT$T$u20$as$u20$ndarray..shape_builder..ShapeBuilder$GT$21into_shape_with_order17hec028ca44c4dcbc8E', symObjAddr: 0x0, symBinAddr: 0x1CE00, symSize: 0x54 }
  - { offset: 0x4D593, size: 0x8, addend: 0x0, symName: '__ZN58_$LT$T$u20$as$u20$ndarray..shape_builder..ShapeBuilder$GT$21into_shape_with_order17hec028ca44c4dcbc8E', symObjAddr: 0x0, symBinAddr: 0x1CE00, symSize: 0x54 }
  - { offset: 0x4D764, size: 0x8, addend: 0x0, symName: '__ZN93_$LT$ndarray..shape_builder..StrideShape$LT$D$GT$$u20$as$u20$core..convert..From$LT$T$GT$$GT$4from17hb07012c002cc89ddE', symObjAddr: 0x228, symBinAddr: 0x1D028, symSize: 0xAC }
  - { offset: 0x4D84E, size: 0x8, addend: 0x0, symName: '__ZN7ndarray13shape_builder14Shape$LT$D$GT$4is_c17hb89a5e6299e3ff27E', symObjAddr: 0x54, symBinAddr: 0x1CE54, symSize: 0x20 }
  - { offset: 0x4D88D, size: 0x8, addend: 0x0, symName: '__ZN7ndarray13shape_builder16Strides$LT$D$GT$15strides_for_dim17h626c63b78e520283E', symObjAddr: 0x74, symBinAddr: 0x1CE74, symSize: 0x1B4 }
  - { offset: 0x4DA49, size: 0x8, addend: 0x0, symName: __ZN4pyo33gil8GILGuard6python17h361ac26b63301d97E, symObjAddr: 0x0, symBinAddr: 0x1D0D4, symSize: 0x20 }
  - { offset: 0x4DAF9, size: 0x8, addend: 0x0, symName: __ZN4pyo33gil8GILGuard6python17h361ac26b63301d97E, symObjAddr: 0x0, symBinAddr: 0x1D0D4, symSize: 0x20 }
  - { offset: 0x4DB39, size: 0x8, addend: 0x0, symName: '__ZN82_$LT$usize$u20$as$u20$pyo3..impl_..callback..IntoPyCallbackOutput$LT$isize$GT$$GT$7convert17hdb40996bd5dce7d9E', symObjAddr: 0x0, symBinAddr: 0x1D0F4, symSize: 0x2C }
  - { offset: 0x4DBC1, size: 0x8, addend: 0x0, symName: '__ZN82_$LT$usize$u20$as$u20$pyo3..impl_..callback..IntoPyCallbackOutput$LT$isize$GT$$GT$7convert17hdb40996bd5dce7d9E', symObjAddr: 0x0, symBinAddr: 0x1D0F4, symSize: 0x2C }
  - { offset: 0x4E4C0, size: 0x8, addend: 0x0, symName: __ZN9hashbrown3raw11TableLayout20calculate_layout_for17h919ea4dd293bed21E, symObjAddr: 0x0, symBinAddr: 0x1D120, symSize: 0x220 }
  - { offset: 0x4FBE8, size: 0x8, addend: 0x0, symName: __ZN9hashbrown3raw11TableLayout20calculate_layout_for17h919ea4dd293bed21E, symObjAddr: 0x0, symBinAddr: 0x1D120, symSize: 0x220 }
  - { offset: 0x50127, size: 0x8, addend: 0x0, symName: __ZN9hashbrown3raw13RawTableInner15rehash_in_place17h95fd0c62cda7a241E, symObjAddr: 0x220, symBinAddr: 0x1D340, symSize: 0x41C }
  - { offset: 0x50A88, size: 0x8, addend: 0x0, symName: __ZN9hashbrown3raw13RawTableInner16fix_insert_index17h1ece27328b813d3fE, symObjAddr: 0x63C, symBinAddr: 0x1D75C, symSize: 0x100 }
  - { offset: 0x50CFA, size: 0x8, addend: 0x0, symName: __ZN9hashbrown3raw13RawTableInner17find_insert_index17hb04f14e6b087daddE, symObjAddr: 0x73C, symBinAddr: 0x1D85C, symSize: 0xFC }
  - { offset: 0x50FF7, size: 0x8, addend: 0x0, symName: __ZN9hashbrown3raw13RawTableInner23prepare_rehash_in_place17h65c80c1c4ef745c7E, symObjAddr: 0x838, symBinAddr: 0x1D958, symSize: 0x204 }
  - { offset: 0x515ED, size: 0x8, addend: 0x0, symName: __ZN9hashbrown3raw13RawTableInner26find_insert_index_in_group17h415dfbec79e2afe8E, symObjAddr: 0xA3C, symBinAddr: 0x1DB5C, symSize: 0x120 }
  - { offset: 0x518AA, size: 0x8, addend: 0x0, symName: __ZN9hashbrown3raw13RawTableInner31find_or_find_insert_index_inner17hb6c5864f9fcd0dfdE, symObjAddr: 0xB5C, symBinAddr: 0x1DC7C, symSize: 0x2A0 }
  - { offset: 0x51C56, size: 0x8, addend: 0x0, symName: __ZN4core9core_arch7aarch644neon9generated7vld1_u817hb3e1c8b4185abc54E, symObjAddr: 0x0, symBinAddr: 0x1DF1C, symSize: 0x34 }
  - { offset: 0x51C7C, size: 0x8, addend: 0x0, symName: __ZN4core9core_arch7aarch644neon9generated7vld1_u817hb3e1c8b4185abc54E, symObjAddr: 0x0, symBinAddr: 0x1DF1C, symSize: 0x34 }
  - { offset: 0x51CAA, size: 0x8, addend: 0x0, symName: __ZN4core9core_arch7aarch644neon9generated7vst1_u817h8339292fba5c7961E, symObjAddr: 0x34, symBinAddr: 0x1DF50, symSize: 0x40 }
  - { offset: 0x51CE4, size: 0x8, addend: 0x0, symName: __ZN4core9core_arch7aarch644neon9generated8vcgez_s817h301c25c1cf886c6eE, symObjAddr: 0x74, symBinAddr: 0x1DF90, symSize: 0x68 }
  - { offset: 0x51D86, size: 0x8, addend: 0x0, symName: __ZN4core9core_arch7aarch644neon9generated8vcltz_s817hfff051c2efc91a07E, symObjAddr: 0xDC, symBinAddr: 0x1DFF8, symSize: 0x68 }
  - { offset: 0x51F7C, size: 0x8, addend: 0x0, symName: __ZN4pyo36marker6Python19assume_gil_acquired17h3f1537c23a62ec4dE, symObjAddr: 0x0, symBinAddr: 0x1E060, symSize: 0x4 }
  - { offset: 0x521C1, size: 0x8, addend: 0x0, symName: __ZN4pyo36marker6Python19assume_gil_acquired17h3f1537c23a62ec4dE, symObjAddr: 0x0, symBinAddr: 0x1E060, symSize: 0x4 }
  - { offset: 0x52210, size: 0x8, addend: 0x0, symName: __ZN4pyo36marker6Python4None17h1863c5774d2e7ea0E, symObjAddr: 0x4, symBinAddr: 0x1E064, symSize: 0x28 }
  - { offset: 0x5225D, size: 0x8, addend: 0x0, symName: '__ZN102_$LT$core..iter..adapters..map..Map$LT$I$C$F$GT$$u20$as$u20$core..iter..traits..iterator..Iterator$GT$4next17hf785c1942fe13f64E', symObjAddr: 0x0, symBinAddr: 0x1E08C, symSize: 0xB0 }
  - { offset: 0x52E30, size: 0x8, addend: 0x0, symName: '__ZN102_$LT$core..iter..adapters..map..Map$LT$I$C$F$GT$$u20$as$u20$core..iter..traits..iterator..Iterator$GT$4next17hf785c1942fe13f64E', symObjAddr: 0x0, symBinAddr: 0x1E08C, symSize: 0xB0 }
  - { offset: 0x52ECC, size: 0x8, addend: 0x0, symName: '__ZN102_$LT$core..iter..adapters..map..Map$LT$I$C$F$GT$$u20$as$u20$core..iter..traits..iterator..Iterator$GT$8try_fold17h01dbc5f6b4e4ffc1E', symObjAddr: 0xB0, symBinAddr: 0x1E13C, symSize: 0x4C }
  - { offset: 0x52F4A, size: 0x8, addend: 0x0, symName: '__ZN102_$LT$core..iter..adapters..map..Map$LT$I$C$F$GT$$u20$as$u20$core..iter..traits..iterator..Iterator$GT$8try_fold17h82da3685dce0b02eE', symObjAddr: 0xFC, symBinAddr: 0x1E188, symSize: 0x4C }
  - { offset: 0x52FC8, size: 0x8, addend: 0x0, symName: '__ZN102_$LT$core..iter..adapters..map..Map$LT$I$C$F$GT$$u20$as$u20$core..iter..traits..iterator..Iterator$GT$8try_fold17h8fbf4b16ea7f0d06E', symObjAddr: 0x148, symBinAddr: 0x1E1D4, symSize: 0x4C }
  - { offset: 0x53046, size: 0x8, addend: 0x0, symName: '__ZN102_$LT$core..iter..adapters..map..Map$LT$I$C$F$GT$$u20$as$u20$core..iter..traits..iterator..Iterator$GT$8try_fold17ha75f999561490328E', symObjAddr: 0x194, symBinAddr: 0x1E220, symSize: 0x58 }
  - { offset: 0x530E9, size: 0x8, addend: 0x0, symName: '__ZN102_$LT$core..iter..adapters..map..Map$LT$I$C$F$GT$$u20$as$u20$core..iter..traits..iterator..Iterator$GT$8try_fold17hd94a89f010ebd8c5E', symObjAddr: 0x1EC, symBinAddr: 0x1E278, symSize: 0x4C }
  - { offset: 0x531E8, size: 0x8, addend: 0x0, symName: '__ZN4core4iter8adapters3map12map_try_fold28_$u7b$$u7b$closure$u7d$$u7d$17h230cc9b20a79d97eE', symObjAddr: 0x2C4, symBinAddr: 0x1E350, symSize: 0x104 }
  - { offset: 0x5327B, size: 0x8, addend: 0x0, symName: '__ZN4core4iter8adapters3map12map_try_fold28_$u7b$$u7b$closure$u7d$$u7d$17hdcd78197173a6c69E', symObjAddr: 0x3C8, symBinAddr: 0x1E454, symSize: 0x104 }
  - { offset: 0x5330E, size: 0x8, addend: 0x0, symName: '__ZN4core4iter8adapters3map12map_try_fold28_$u7b$$u7b$closure$u7d$$u7d$17hf27e951bf226aa97E', symObjAddr: 0x4CC, symBinAddr: 0x1E558, symSize: 0x104 }
  - { offset: 0x533A1, size: 0x8, addend: 0x0, symName: '__ZN4core4iter8adapters3map12map_try_fold28_$u7b$$u7b$closure$u7d$$u7d$17hf48fa349692a07eeE', symObjAddr: 0x5D0, symBinAddr: 0x1E65C, symSize: 0x104 }
  - { offset: 0x53434, size: 0x8, addend: 0x0, symName: '__ZN4core4iter8adapters3map12map_try_fold28_$u7b$$u7b$closure$u7d$$u7d$17hff6bae2bf2d0b0a2E', symObjAddr: 0x6D4, symBinAddr: 0x1E760, symSize: 0xD0 }
  - { offset: 0x534CD, size: 0x8, addend: 0x0, symName: '__ZN113_$LT$core..iter..adapters..map..Map$LT$I$C$F$GT$$u20$as$u20$core..iter..traits..exact_size..ExactSizeIterator$GT$3len17hd813f7ffbd9f591fE', symObjAddr: 0x238, symBinAddr: 0x1E2C4, symSize: 0x24 }
  - { offset: 0x5351A, size: 0x8, addend: 0x0, symName: '__ZN96_$LT$core..iter..adapters..map..Map$LT$I$C$F$GT$$u20$as$u20$core..iter..adapters..SourceIter$GT$8as_inner17h1e0fcbc9f0af7c74E', symObjAddr: 0xC0C, symBinAddr: 0x1EC98, symSize: 0x24 }
  - { offset: 0x53558, size: 0x8, addend: 0x0, symName: '__ZN96_$LT$core..iter..adapters..map..Map$LT$I$C$F$GT$$u20$as$u20$core..iter..adapters..SourceIter$GT$8as_inner17h6873f2545b1c1c6eE', symObjAddr: 0xC30, symBinAddr: 0x1ECBC, symSize: 0x24 }
  - { offset: 0x53596, size: 0x8, addend: 0x0, symName: '__ZN96_$LT$core..iter..adapters..map..Map$LT$I$C$F$GT$$u20$as$u20$core..iter..adapters..SourceIter$GT$8as_inner17hcd0f142bb3af8a93E', symObjAddr: 0xC54, symBinAddr: 0x1ECE0, symSize: 0x24 }
  - { offset: 0x535D4, size: 0x8, addend: 0x0, symName: '__ZN96_$LT$core..iter..adapters..map..Map$LT$I$C$F$GT$$u20$as$u20$core..iter..adapters..SourceIter$GT$8as_inner17hd82a9f13c6565572E', symObjAddr: 0xC78, symBinAddr: 0x1ED04, symSize: 0x24 }
  - { offset: 0x53783, size: 0x8, addend: 0x0, symName: __ZN4core4iter6traits8iterator8Iterator4take17hc4d10db4bffdca05E, symObjAddr: 0x25C, symBinAddr: 0x1E2E8, symSize: 0x18 }
  - { offset: 0x537C9, size: 0x8, addend: 0x0, symName: __ZN4core4iter6traits8iterator8Iterator7collect17h248ad9e278cc23b3E, symObjAddr: 0x274, symBinAddr: 0x1E300, symSize: 0x14 }
  - { offset: 0x5380A, size: 0x8, addend: 0x0, symName: __ZN4core4iter6traits8iterator8Iterator7collect17h418beee3137f8030E, symObjAddr: 0x288, symBinAddr: 0x1E314, symSize: 0x14 }
  - { offset: 0x5384B, size: 0x8, addend: 0x0, symName: __ZN4core4iter6traits8iterator8Iterator7collect17h47ddc6a1afe8bcb5E, symObjAddr: 0x29C, symBinAddr: 0x1E328, symSize: 0x14 }
  - { offset: 0x5388C, size: 0x8, addend: 0x0, symName: __ZN4core4iter6traits8iterator8Iterator7collect17h5ec1d5c4d586caedE, symObjAddr: 0x2B0, symBinAddr: 0x1E33C, symSize: 0x14 }
  - { offset: 0x538D3, size: 0x8, addend: 0x0, symName: '__ZN72_$LT$$RF$mut$u20$I$u20$as$u20$core..iter..traits..iterator..Iterator$GT$4next17h5432bef28b47d4ceE', symObjAddr: 0x7F4, symBinAddr: 0x1E880, symSize: 0x28 }
  - { offset: 0x5390A, size: 0x8, addend: 0x0, symName: '__ZN72_$LT$$RF$mut$u20$I$u20$as$u20$core..iter..traits..iterator..Iterator$GT$8try_fold17hbc5f1d37e8f6e0a9E', symObjAddr: 0x81C, symBinAddr: 0x1E8A8, symSize: 0x38 }
  - { offset: 0x5397A, size: 0x8, addend: 0x0, symName: '__ZN72_$LT$$RF$mut$u20$I$u20$as$u20$core..iter..traits..iterator..Iterator$GT$8try_fold17hd737978432501937E', symObjAddr: 0x854, symBinAddr: 0x1E8E0, symSize: 0x38 }
  - { offset: 0x539F0, size: 0x8, addend: 0x0, symName: '__ZN79_$LT$$RF$mut$u20$I$u20$as$u20$core..iter..traits..iterator..IteratorRefSpec$GT$13spec_try_fold17hb39ce2f1afb11d96E', symObjAddr: 0x88C, symBinAddr: 0x1E918, symSize: 0x3C }
  - { offset: 0x53A60, size: 0x8, addend: 0x0, symName: '__ZN79_$LT$$RF$mut$u20$I$u20$as$u20$core..iter..traits..iterator..IteratorRefSpec$GT$13spec_try_fold17hbf7d2544ee32ae40E', symObjAddr: 0x8C8, symBinAddr: 0x1E954, symSize: 0x3C }
  - { offset: 0x53ADC, size: 0x8, addend: 0x0, symName: '__ZN63_$LT$I$u20$as$u20$core..iter..traits..collect..IntoIterator$GT$9into_iter17h04ae799107acd1f6E', symObjAddr: 0x7A4, symBinAddr: 0x1E830, symSize: 0x14 }
  - { offset: 0x53B13, size: 0x8, addend: 0x0, symName: '__ZN63_$LT$I$u20$as$u20$core..iter..traits..collect..IntoIterator$GT$9into_iter17h3f764dda0da5ea18E', symObjAddr: 0x7B8, symBinAddr: 0x1E844, symSize: 0x14 }
  - { offset: 0x53B4A, size: 0x8, addend: 0x0, symName: '__ZN63_$LT$I$u20$as$u20$core..iter..traits..collect..IntoIterator$GT$9into_iter17h9526b22fa34b944eE', symObjAddr: 0x7CC, symBinAddr: 0x1E858, symSize: 0x14 }
  - { offset: 0x53B81, size: 0x8, addend: 0x0, symName: '__ZN63_$LT$I$u20$as$u20$core..iter..traits..collect..IntoIterator$GT$9into_iter17ha3ef5685288d72f7E', symObjAddr: 0x7E0, symBinAddr: 0x1E86C, symSize: 0x14 }
  - { offset: 0x53BC4, size: 0x8, addend: 0x0, symName: '__ZN83_$LT$$RF$mut$u20$I$u20$as$u20$core..iter..traits..exact_size..ExactSizeIterator$GT$3len17hac0c568e4655be6bE', symObjAddr: 0x904, symBinAddr: 0x1E990, symSize: 0x28 }
  - { offset: 0x53C97, size: 0x8, addend: 0x0, symName: '__ZN83_$LT$I$u20$as$u20$alloc..vec..in_place_collect..SpecInPlaceCollect$LT$T$C$I$GT$$GT$16collect_in_place17h018c502b8baebfdaE', symObjAddr: 0x92C, symBinAddr: 0x1E9B8, symSize: 0xB8 }
  - { offset: 0x53DCB, size: 0x8, addend: 0x0, symName: '__ZN83_$LT$I$u20$as$u20$alloc..vec..in_place_collect..SpecInPlaceCollect$LT$T$C$I$GT$$GT$16collect_in_place17h2eab54c113c6a51cE', symObjAddr: 0x9E4, symBinAddr: 0x1EA70, symSize: 0xB8 }
  - { offset: 0x53EFF, size: 0x8, addend: 0x0, symName: '__ZN83_$LT$I$u20$as$u20$alloc..vec..in_place_collect..SpecInPlaceCollect$LT$T$C$I$GT$$GT$16collect_in_place17h551f424248a67ed5E', symObjAddr: 0xA9C, symBinAddr: 0x1EB28, symSize: 0xB8 }
  - { offset: 0x54033, size: 0x8, addend: 0x0, symName: '__ZN83_$LT$I$u20$as$u20$alloc..vec..in_place_collect..SpecInPlaceCollect$LT$T$C$I$GT$$GT$16collect_in_place17he4493851a3a4e5bfE', symObjAddr: 0xB54, symBinAddr: 0x1EBE0, symSize: 0xB8 }
  - { offset: 0x54CBE, size: 0x8, addend: 0x0, symName: '__ZN106_$LT$core..ops..range..Range$LT$usize$GT$$u20$as$u20$core..slice..index..SliceIndex$LT$$u5b$T$u5d$$GT$$GT$17get_unchecked_mut18precondition_check17ha16065d04f3eca1bE', symObjAddr: 0x0, symBinAddr: 0x1ED28, symSize: 0x80 }
  - { offset: 0x54CE4, size: 0x8, addend: 0x0, symName: '__ZN106_$LT$core..ops..range..Range$LT$usize$GT$$u20$as$u20$core..slice..index..SliceIndex$LT$$u5b$T$u5d$$GT$$GT$17get_unchecked_mut18precondition_check17ha16065d04f3eca1bE', symObjAddr: 0x0, symBinAddr: 0x1ED28, symSize: 0x80 }
  - { offset: 0x54D51, size: 0x8, addend: 0x0, symName: '__ZN75_$LT$usize$u20$as$u20$core..slice..index..SliceIndex$LT$$u5b$T$u5d$$GT$$GT$13get_unchecked18precondition_check17h3cd75eeae949318eE', symObjAddr: 0x80, symBinAddr: 0x1EDA8, symSize: 0x60 }
  - { offset: 0x54DFC, size: 0x8, addend: 0x0, symName: '__ZN108_$LT$alloc..vec..Vec$LT$T$C$A1$GT$$u20$as$u20$core..cmp..PartialOrd$LT$alloc..vec..Vec$LT$T$C$A2$GT$$GT$$GT$11partial_cmp17hdc100194e46de3ccE', symObjAddr: 0x0, symBinAddr: 0x1EE08, symSize: 0x54 }
  - { offset: 0x56125, size: 0x8, addend: 0x0, symName: '__ZN108_$LT$alloc..vec..Vec$LT$T$C$A1$GT$$u20$as$u20$core..cmp..PartialOrd$LT$alloc..vec..Vec$LT$T$C$A2$GT$$GT$$GT$11partial_cmp17hdc100194e46de3ccE', symObjAddr: 0x0, symBinAddr: 0x1EE08, symSize: 0x54 }
  - { offset: 0x563B4, size: 0x8, addend: 0x0, symName: '__ZN5alloc3vec16in_place_collect108_$LT$impl$u20$alloc..vec..spec_from_iter..SpecFromIter$LT$T$C$I$GT$$u20$for$u20$alloc..vec..Vec$LT$T$GT$$GT$9from_iter17h011294a83a682c7fE', symObjAddr: 0x364, symBinAddr: 0x1F16C, symSize: 0x28 }
  - { offset: 0x56410, size: 0x8, addend: 0x0, symName: '__ZN5alloc3vec16in_place_collect108_$LT$impl$u20$alloc..vec..spec_from_iter..SpecFromIter$LT$T$C$I$GT$$u20$for$u20$alloc..vec..Vec$LT$T$GT$$GT$9from_iter17h2a2e9f71065ae99aE', symObjAddr: 0x38C, symBinAddr: 0x1F194, symSize: 0x28 }
  - { offset: 0x5646C, size: 0x8, addend: 0x0, symName: '__ZN5alloc3vec16in_place_collect108_$LT$impl$u20$alloc..vec..spec_from_iter..SpecFromIter$LT$T$C$I$GT$$u20$for$u20$alloc..vec..Vec$LT$T$GT$$GT$9from_iter17h56785658b89f425dE', symObjAddr: 0x3B4, symBinAddr: 0x1F1BC, symSize: 0x28 }
  - { offset: 0x564C8, size: 0x8, addend: 0x0, symName: '__ZN5alloc3vec16in_place_collect108_$LT$impl$u20$alloc..vec..spec_from_iter..SpecFromIter$LT$T$C$I$GT$$u20$for$u20$alloc..vec..Vec$LT$T$GT$$GT$9from_iter17hca24fa67066bc877E', symObjAddr: 0x3DC, symBinAddr: 0x1F1E4, symSize: 0x28 }
  - { offset: 0x5664A, size: 0x8, addend: 0x0, symName: '__ZN75_$LT$alloc..vec..Vec$LT$T$C$A$GT$$u20$as$u20$core..ops..deref..DerefMut$GT$9deref_mut17h12ebd19d051b84dbE', symObjAddr: 0x510, symBinAddr: 0x1F318, symSize: 0x20 }
  - { offset: 0x5670D, size: 0x8, addend: 0x0, symName: '__ZN90_$LT$alloc..vec..Vec$LT$T$C$A$GT$$u20$as$u20$core..iter..traits..collect..IntoIterator$GT$9into_iter17h137056cb154a4730E', symObjAddr: 0x530, symBinAddr: 0x1F338, symSize: 0xB0 }
  - { offset: 0x56904, size: 0x8, addend: 0x0, symName: '__ZN90_$LT$alloc..vec..Vec$LT$T$C$A$GT$$u20$as$u20$core..iter..traits..collect..IntoIterator$GT$9into_iter17h8cc003e058f08dcdE', symObjAddr: 0x5E0, symBinAddr: 0x1F3E8, symSize: 0xB0 }
  - { offset: 0x56AFB, size: 0x8, addend: 0x0, symName: '__ZN90_$LT$alloc..vec..Vec$LT$T$C$A$GT$$u20$as$u20$core..iter..traits..collect..IntoIterator$GT$9into_iter17hfcd06ff5b0d52959E', symObjAddr: 0x690, symBinAddr: 0x1F498, symSize: 0xB0 }
  - { offset: 0x56DAE, size: 0x8, addend: 0x0, symName: '__ZN95_$LT$alloc..vec..Vec$LT$T$GT$$u20$as$u20$core..iter..traits..collect..FromIterator$LT$T$GT$$GT$9from_iter17h41a81483c1ce04caE', symObjAddr: 0x740, symBinAddr: 0x1F548, symSize: 0x34 }
  - { offset: 0x56DEF, size: 0x8, addend: 0x0, symName: '__ZN95_$LT$alloc..vec..Vec$LT$T$GT$$u20$as$u20$core..iter..traits..collect..FromIterator$LT$T$GT$$GT$9from_iter17hc75b0af526eac8cdE', symObjAddr: 0x774, symBinAddr: 0x1F57C, symSize: 0x34 }
  - { offset: 0x56E30, size: 0x8, addend: 0x0, symName: '__ZN95_$LT$alloc..vec..Vec$LT$T$GT$$u20$as$u20$core..iter..traits..collect..FromIterator$LT$T$GT$$GT$9from_iter17hda38d162c96b69a8E', symObjAddr: 0x7A8, symBinAddr: 0x1F5B0, symSize: 0x34 }
  - { offset: 0x56E71, size: 0x8, addend: 0x0, symName: '__ZN95_$LT$alloc..vec..Vec$LT$T$GT$$u20$as$u20$core..iter..traits..collect..FromIterator$LT$T$GT$$GT$9from_iter17hff75ca628ce2f3ddE', symObjAddr: 0x7DC, symBinAddr: 0x1F5E4, symSize: 0x34 }
  - { offset: 0x5709E, size: 0x8, addend: 0x0, symName: '__ZN5alloc5slice99_$LT$impl$u20$core..slice..sort..stable..BufGuard$LT$T$GT$$u20$for$u20$alloc..vec..Vec$LT$T$GT$$GT$13with_capacity17hc2a5899e86e55fabE', symObjAddr: 0x404, symBinAddr: 0x1F20C, symSize: 0x44 }
  - { offset: 0x5713F, size: 0x8, addend: 0x0, symName: '__ZN5alloc5slice99_$LT$impl$u20$core..slice..sort..stable..BufGuard$LT$T$GT$$u20$for$u20$alloc..vec..Vec$LT$T$GT$$GT$19as_uninit_slice_mut17h6edb0450da5d06acE', symObjAddr: 0x448, symBinAddr: 0x1F250, symSize: 0xC8 }
  - { offset: 0x573CA, size: 0x8, addend: 0x0, symName: __ZN4pyo310conversion15IntoPyObjectExt17into_bound_py_any17h85d39fa22a8b86f1E, symObjAddr: 0x54, symBinAddr: 0x1EE5C, symSize: 0xE0 }
  - { offset: 0x5745D, size: 0x8, addend: 0x0, symName: __ZN4pyo310conversion15IntoPyObjectExt22into_pyobject_or_pyerr17hb94aa5a0baa983feE, symObjAddr: 0x134, symBinAddr: 0x1EF3C, symSize: 0xD8 }
  - { offset: 0x57506, size: 0x8, addend: 0x0, symName: '__ZN4pyo311conversions3std3vec85_$LT$impl$u20$pyo3..conversion..IntoPyObject$u20$for$u20$alloc..vec..Vec$LT$T$GT$$GT$13into_pyobject17h617b09053a21fdb7E', symObjAddr: 0x20C, symBinAddr: 0x1F014, symSize: 0x34 }
  - { offset: 0x57828, size: 0x8, addend: 0x0, symName: '__ZN5alloc3vec12Vec$LT$T$GT$3new17hfdcc4df9dbbc09bdE', symObjAddr: 0x240, symBinAddr: 0x1F048, symSize: 0x14 }
  - { offset: 0x57852, size: 0x8, addend: 0x0, symName: '__ZN5alloc3vec16Vec$LT$T$C$A$GT$4push17h49a1cf5a176c5e2fE', symObjAddr: 0x254, symBinAddr: 0x1F05C, symSize: 0x30 }
  - { offset: 0x579AA, size: 0x8, addend: 0x0, symName: '__ZN5alloc3vec16Vec$LT$T$C$A$GT$8push_mut17he8b94cfa9ec3049bE', symObjAddr: 0x284, symBinAddr: 0x1F08C, symSize: 0xE0 }
  - { offset: 0x58595, size: 0x8, addend: 0x0, symName: __ZN4core4iter6traits8iterator8Iterator3zip17he29e6d48e035ed16E, symObjAddr: 0x0, symBinAddr: 0x1F618, symSize: 0xB4 }
  - { offset: 0x586C9, size: 0x8, addend: 0x0, symName: __ZN4core4iter6traits8iterator8Iterator3zip17he29e6d48e035ed16E, symObjAddr: 0x0, symBinAddr: 0x1F618, symSize: 0xB4 }
  - { offset: 0x58B37, size: 0x8, addend: 0x0, symName: '__ZN100_$LT$pyo3..pycell..impl_..MutableClass$u20$as$u20$pyo3..pycell..impl_..GetBorrowChecker$LT$T$GT$$GT$14borrow_checker17h60df42426ce5fa56E', symObjAddr: 0x0, symBinAddr: 0x1F6CC, symSize: 0x14 }
  - { offset: 0x594D9, size: 0x8, addend: 0x0, symName: '__ZN100_$LT$pyo3..pycell..impl_..MutableClass$u20$as$u20$pyo3..pycell..impl_..GetBorrowChecker$LT$T$GT$$GT$14borrow_checker17h60df42426ce5fa56E', symObjAddr: 0x0, symBinAddr: 0x1F6CC, symSize: 0x14 }
  - { offset: 0x59514, size: 0x8, addend: 0x0, symName: '__ZN113_$LT$pyo3..pycell..impl_..PyClassObject$LT$T$GT$$u20$as$u20$pyo3..pycell..impl_..PyClassObjectLayout$LT$T$GT$$GT$10tp_dealloc17he31149775c22df79E', symObjAddr: 0x14, symBinAddr: 0x1F6E0, symSize: 0xB4 }
  - { offset: 0x59578, size: 0x8, addend: 0x0, symName: '__ZN113_$LT$pyo3..pycell..impl_..PyClassObject$LT$T$GT$$u20$as$u20$pyo3..pycell..impl_..PyClassObjectLayout$LT$T$GT$$GT$17ensure_threadsafe17h37fb77483a93448fE', symObjAddr: 0xC8, symBinAddr: 0x1F794, symSize: 0x30 }
  - { offset: 0x595B1, size: 0x8, addend: 0x0, symName: '__ZN117_$LT$pyo3..pycell..impl_..PyClassObjectBase$LT$U$GT$$u20$as$u20$pyo3..pycell..impl_..PyClassObjectLayout$LT$T$GT$$GT$17ensure_threadsafe17h99dd4917aee52867E', symObjAddr: 0xF8, symBinAddr: 0x1F7C4, symSize: 0x10 }
  - { offset: 0x5A1B6, size: 0x8, addend: 0x0, symName: '__ZN4pyo36pycell5impl_22PyClassObject$LT$T$GT$14borrow_checker17h8bc89ccd1b8ab5d5E', symObjAddr: 0x108, symBinAddr: 0x1F7D4, symSize: 0x24 }
  - { offset: 0x5A1EF, size: 0x8, addend: 0x0, symName: '__ZN4pyo36pycell5impl_22PyClassObject$LT$T$GT$7get_ptr17hd648721aaa96f49bE', symObjAddr: 0x12C, symBinAddr: 0x1F7F8, symSize: 0x24 }
  - { offset: 0x5A298, size: 0x8, addend: 0x0, symName: '__ZN78_$LT$ndarray..dimension..CanIndexCheckMode$u20$as$u20$core..cmp..PartialEq$GT$2eq17h9ebfe33e4a5662ddE', symObjAddr: 0x0, symBinAddr: 0x1F81C, symSize: 0x3C }
  - { offset: 0x5A2CC, size: 0x8, addend: 0x0, symName: '__ZN78_$LT$ndarray..dimension..CanIndexCheckMode$u20$as$u20$core..cmp..PartialEq$GT$2eq17h9ebfe33e4a5662ddE', symObjAddr: 0x0, symBinAddr: 0x1F81C, symSize: 0x3C }
  - { offset: 0x5A383, size: 0x8, addend: 0x0, symName: '__ZN4core5slice4sort6stable5merge19MergeState$LT$T$GT$10merge_down17ha3710af6f0329e94E', symObjAddr: 0x0, symBinAddr: 0x1F858, symSize: 0x1D0 }
  - { offset: 0x5A6E0, size: 0x8, addend: 0x0, symName: __ZN4core5slice4sort6stable5merge5merge17h94e536c96f72a010E, symObjAddr: 0x350, symBinAddr: 0x1FBA8, symSize: 0x24C }
  - { offset: 0x5ABC0, size: 0x8, addend: 0x0, symName: '__ZN4core5slice4sort6stable5merge19MergeState$LT$T$GT$10merge_down17ha3710af6f0329e94E', symObjAddr: 0x0, symBinAddr: 0x1F858, symSize: 0x1D0 }
  - { offset: 0x5AD56, size: 0x8, addend: 0x0, symName: '__ZN4core5slice4sort6stable5merge19MergeState$LT$T$GT$8merge_up17h3abd8f46c568c4d0E', symObjAddr: 0x1D0, symBinAddr: 0x1FA28, symSize: 0x180 }
  - { offset: 0x5AFEA, size: 0x8, addend: 0x0, symName: __ZN4core3ptr5write17h9dd412989b3cb968E, symObjAddr: 0xC4, symBinAddr: 0x1FDF4, symSize: 0x2C }
  - { offset: 0x5C2E4, size: 0x8, addend: 0x0, symName: '__ZN106_$LT$hashbrown..map..HashMap$LT$K$C$V$C$S$C$A$GT$$u20$as$u20$core..iter..traits..collect..IntoIterator$GT$9into_iter17hc0f6b258a1b1e33dE', symObjAddr: 0x0, symBinAddr: 0x1FE20, symSize: 0x6C }
  - { offset: 0x5C8A8, size: 0x8, addend: 0x0, symName: '__ZN106_$LT$hashbrown..map..HashMap$LT$K$C$V$C$S$C$A$GT$$u20$as$u20$core..iter..traits..collect..IntoIterator$GT$9into_iter17hc0f6b258a1b1e33dE', symObjAddr: 0x0, symBinAddr: 0x1FE20, symSize: 0x6C }
  - { offset: 0x5C93A, size: 0x8, addend: 0x0, symName: '__ZN9hashbrown3map11make_hasher28_$u7b$$u7b$closure$u7d$$u7d$17hb51eae24fd6d40d3E', symObjAddr: 0x6C, symBinAddr: 0x1FE8C, symSize: 0x3C }
  - { offset: 0x5C9BC, size: 0x8, addend: 0x0, symName: '__ZN9hashbrown3map14equivalent_key28_$u7b$$u7b$closure$u7d$$u7d$17h09b8e8628df89fc9E', symObjAddr: 0xA8, symBinAddr: 0x1FEC8, symSize: 0x30 }
  - { offset: 0x5D0C8, size: 0x8, addend: 0x0, symName: '__ZN9hashbrown3map28HashMap$LT$K$C$V$C$S$C$A$GT$6insert17ha558bc32cc804699E', symObjAddr: 0xD8, symBinAddr: 0x1FEF8, symSize: 0x228 }
  - { offset: 0x5D316, size: 0x8, addend: 0x0, symName: '__ZN73_$LT$pyo3..types..any..PyAny$u20$as$u20$pyo3..type_object..PyTypeInfo$GT$15type_object_raw17h4ef6ed1828bbdcc9E', symObjAddr: 0x0, symBinAddr: 0x20120, symSize: 0x24 }
  - { offset: 0x5D37D, size: 0x8, addend: 0x0, symName: '__ZN73_$LT$pyo3..types..any..PyAny$u20$as$u20$pyo3..type_object..PyTypeInfo$GT$15type_object_raw17h4ef6ed1828bbdcc9E', symObjAddr: 0x0, symBinAddr: 0x20120, symSize: 0x24 }
  - { offset: 0x5D4F6, size: 0x8, addend: 0x0, symName: '__ZN86_$LT$serde_json..value..ser..SerializeVec$u20$as$u20$serde_core..ser..SerializeSeq$GT$17serialize_element17h5b0e3b64344b383bE', symObjAddr: 0x0, symBinAddr: 0x20144, symSize: 0x98 }
  - { offset: 0x5D77C, size: 0x8, addend: 0x0, symName: '__ZN86_$LT$serde_json..value..ser..SerializeVec$u20$as$u20$serde_core..ser..SerializeSeq$GT$17serialize_element17h5b0e3b64344b383bE', symObjAddr: 0x0, symBinAddr: 0x20144, symSize: 0x98 }
  - { offset: 0x5D7E0, size: 0x8, addend: 0x0, symName: '__ZN86_$LT$serde_json..value..ser..SerializeVec$u20$as$u20$serde_core..ser..SerializeSeq$GT$17serialize_element17hcfd6d449c1de0c02E', symObjAddr: 0x98, symBinAddr: 0x201DC, symSize: 0x98 }
  - { offset: 0x5D844, size: 0x8, addend: 0x0, symName: '__ZN86_$LT$serde_json..value..ser..SerializeVec$u20$as$u20$serde_core..ser..SerializeSeq$GT$17serialize_element17he203fecc41ed4c8fE', symObjAddr: 0x130, symBinAddr: 0x20274, symSize: 0x98 }
  - { offset: 0x5D8AE, size: 0x8, addend: 0x0, symName: '__ZN88_$LT$serde_json..value..ser..SerializeVec$u20$as$u20$serde_core..ser..SerializeTuple$GT$17serialize_element17h5a380981ae765c5dE', symObjAddr: 0x1C8, symBinAddr: 0x2030C, symSize: 0x2C }
  - { offset: 0x5D8F4, size: 0x8, addend: 0x0, symName: '__ZN88_$LT$serde_json..value..ser..SerializeVec$u20$as$u20$serde_core..ser..SerializeTuple$GT$17serialize_element17haa80c469fcd75876E', symObjAddr: 0x1F4, symBinAddr: 0x20338, symSize: 0x2C }
  - { offset: 0x5D93A, size: 0x8, addend: 0x0, symName: '__ZN88_$LT$serde_json..value..ser..SerializeVec$u20$as$u20$serde_core..ser..SerializeTuple$GT$17serialize_element17he7aa53565ac9a381E', symObjAddr: 0x220, symBinAddr: 0x20364, symSize: 0x2C }
  - { offset: 0x5E6DC, size: 0x8, addend: 0x0, symName: '__ZN111_$LT$alloc..vec..in_place_drop..InPlaceDstDataSrcBufDrop$LT$Src$C$Dest$GT$$u20$as$u20$core..ops..drop..Drop$GT$4drop17hd5e3cdfe14ce56d1E', symObjAddr: 0x0, symBinAddr: 0x20390, symSize: 0xB4 }
  - { offset: 0x5F173, size: 0x8, addend: 0x0, symName: '__ZN4core3ptr121drop_in_place$LT$hashbrown..map..IntoIter$LT$alloc..string..String$C$alloc..vec..Vec$LT$alloc..string..String$GT$$GT$$GT$17h04d479ddfefe96f5E', symObjAddr: 0x764, symBinAddr: 0x20AAC, symSize: 0x24 }
  - { offset: 0x5F1A2, size: 0x8, addend: 0x0, symName: '__ZN4core3ptr123drop_in_place$LT$alloc..vec..into_iter..IntoIter$LT$$LP$alloc..string..String$C$trx_rs..trx_file..DataArrayInfo$RP$$GT$$GT$17hb6786a4802401a0bE', symObjAddr: 0x788, symBinAddr: 0x20AD0, symSize: 0x24 }
  - { offset: 0x5F1D1, size: 0x8, addend: 0x0, symName: '__ZN4core3ptr129drop_in_place$LT$hashbrown..raw..RawTable$LT$$LP$alloc..string..String$C$alloc..vec..Vec$LT$alloc..string..String$GT$$RP$$GT$$GT$17h3f894e1638f1d8c2E', symObjAddr: 0x7AC, symBinAddr: 0x20AF4, symSize: 0x24 }
  - { offset: 0x5F200, size: 0x8, addend: 0x0, symName: '__ZN4core3ptr131drop_in_place$LT$pyo3..err..PyErr..new$LT$pyo3..exceptions..PyKeyError$C$alloc..string..String$GT$..$u7b$$u7b$closure$u7d$$u7d$$GT$17h8fbc78a11498abbbE', symObjAddr: 0x7D0, symBinAddr: 0x20B18, symSize: 0x24 }
  - { offset: 0x5F22F, size: 0x8, addend: 0x0, symName: '__ZN4core3ptr132drop_in_place$LT$hashbrown..raw..RawIntoIter$LT$$LP$alloc..string..String$C$alloc..vec..Vec$LT$alloc..string..String$GT$$RP$$GT$$GT$17h6b66cef87610ef2eE', symObjAddr: 0x7F4, symBinAddr: 0x20B3C, symSize: 0x24 }
  - { offset: 0x5F25E, size: 0x8, addend: 0x0, symName: '__ZN4core3ptr133drop_in_place$LT$std..collections..hash..map..HashMap$LT$alloc..string..String$C$alloc..vec..Vec$LT$alloc..string..String$GT$$GT$$GT$17haa153658cf83ede1E', symObjAddr: 0x818, symBinAddr: 0x20B60, symSize: 0x24 }
  - { offset: 0x5F28D, size: 0x8, addend: 0x0, symName: '__ZN4core3ptr134drop_in_place$LT$std..collections..hash..map..IntoIter$LT$alloc..string..String$C$alloc..vec..Vec$LT$alloc..string..String$GT$$GT$$GT$17h817fa3eb136a4cfaE', symObjAddr: 0x83C, symBinAddr: 0x20B84, symSize: 0x24 }
  - { offset: 0x5F2BC, size: 0x8, addend: 0x0, symName: '__ZN4core3ptr140drop_in_place$LT$pyo3..err..PyErr..new$LT$pyo3..exceptions..PyFileNotFoundError$C$alloc..string..String$GT$..$u7b$$u7b$closure$u7d$$u7d$$GT$17hd797c3047f0864e1E', symObjAddr: 0x860, symBinAddr: 0x20BA8, symSize: 0x24 }
  - { offset: 0x5F2EB, size: 0x8, addend: 0x0, symName: '__ZN4core3ptr148drop_in_place$LT$core..option..Option$LT$core..result..Result$LT$pyo3..instance..Bound$LT$pyo3..types..any..PyAny$GT$$C$pyo3..err..PyErr$GT$$GT$$GT$17h411ea1463542f5bcE', symObjAddr: 0x884, symBinAddr: 0x20BCC, symSize: 0x44 }
  - { offset: 0x5F31A, size: 0x8, addend: 0x0, symName: '__ZN4core3ptr153drop_in_place$LT$hashbrown..map..HashMap$LT$alloc..string..String$C$alloc..vec..Vec$LT$alloc..string..String$GT$$C$std..hash..random..RandomState$GT$$GT$17hcc47b93664bd2f46E', symObjAddr: 0x8C8, symBinAddr: 0x20C10, symSize: 0x24 }
  - { offset: 0x5F349, size: 0x8, addend: 0x0, symName: '__ZN4core3ptr162drop_in_place$LT$alloc..vec..in_place_drop..InPlaceDstDataSrcBufDrop$LT$$LP$alloc..string..String$C$alloc..vec..Vec$LT$u32$GT$$RP$$C$alloc..string..String$GT$$GT$17hdca86f315e319048E', symObjAddr: 0x8EC, symBinAddr: 0x20C34, symSize: 0x24 }
  - { offset: 0x5F378, size: 0x8, addend: 0x0, symName: '__ZN4core3ptr167drop_in_place$LT$alloc..vec..in_place_drop..InPlaceDstDataSrcBufDrop$LT$$LP$alloc..string..String$C$trx_rs..trx_file..DataArrayInfo$RP$$C$alloc..string..String$GT$$GT$17h96ffc3beaaeb19f5E', symObjAddr: 0x910, symBinAddr: 0x20C58, symSize: 0x24 }
  - { offset: 0x5F3A7, size: 0x8, addend: 0x0, symName: '__ZN4core3ptr175drop_in_place$LT$$LT$alloc..vec..into_iter..IntoIter$LT$T$C$A$GT$$u20$as$u20$core..ops..drop..Drop$GT$..drop..DropGuard$LT$alloc..string..String$C$alloc..alloc..Global$GT$$GT$17h1c00b8a0db62406dE', symObjAddr: 0x934, symBinAddr: 0x20C7C, symSize: 0x24 }
  - { offset: 0x5F3D6, size: 0x8, addend: 0x0, symName: '__ZN4core3ptr178drop_in_place$LT$alloc..vec..into_iter..IntoIter$LT$$LP$alloc..string..String$C$alloc..vec..Vec$LT$$LP$alloc..string..String$C$trx_rs..trx_file..DataArrayInfo$RP$$GT$$RP$$GT$$GT$17ha555150e4e6ab5f4E', symObjAddr: 0x958, symBinAddr: 0x20CA0, symSize: 0x24 }
  - { offset: 0x5F405, size: 0x8, addend: 0x0, symName: '__ZN4core3ptr180drop_in_place$LT$core..result..Result$LT$std..collections..hash..map..HashMap$LT$alloc..string..String$C$alloc..vec..Vec$LT$alloc..string..String$GT$$GT$$C$pyo3..err..PyErr$GT$$GT$17hf0ed3f574877e6a4E', symObjAddr: 0x97C, symBinAddr: 0x20CC4, symSize: 0x50 }
  - { offset: 0x5F434, size: 0x8, addend: 0x0, symName: '__ZN4core3ptr216drop_in_place$LT$core..iter..adapters..map..Map$LT$alloc..vec..into_iter..IntoIter$LT$$LP$alloc..string..String$C$alloc..vec..Vec$LT$u32$GT$$RP$$GT$$C$_core..PyTrxFile..group_keys..$u7b$$u7b$closure$u7d$$u7d$$GT$$GT$17h9cb32d3a6b81aadeE', symObjAddr: 0x9CC, symBinAddr: 0x20D14, symSize: 0x24 }
  - { offset: 0x5F463, size: 0x8, addend: 0x0, symName: '__ZN4core3ptr217drop_in_place$LT$$LT$alloc..vec..into_iter..IntoIter$LT$T$C$A$GT$$u20$as$u20$core..ops..drop..Drop$GT$..drop..DropGuard$LT$$LP$alloc..string..String$C$trx_rs..trx_file..DataArrayInfo$RP$$C$alloc..alloc..Global$GT$$GT$17h8edcfe7935c86db2E', symObjAddr: 0x9F0, symBinAddr: 0x20D38, symSize: 0x24 }
  - { offset: 0x5F492, size: 0x8, addend: 0x0, symName: '__ZN4core3ptr219drop_in_place$LT$core..iter..adapters..map..Map$LT$alloc..vec..into_iter..IntoIter$LT$$LP$alloc..string..String$C$trx_rs..trx_file..DataArrayInfo$RP$$GT$$C$_core..PyTrxFile..dpg_keys..$u7b$$u7b$closure$u7d$$u7d$$GT$$GT$17h84126e30aea6a688E', symObjAddr: 0xA14, symBinAddr: 0x20D5C, symSize: 0x24 }
  - { offset: 0x5F4C1, size: 0x8, addend: 0x0, symName: '__ZN4core3ptr219drop_in_place$LT$core..iter..adapters..map..Map$LT$alloc..vec..into_iter..IntoIter$LT$$LP$alloc..string..String$C$trx_rs..trx_file..DataArrayInfo$RP$$GT$$C$_core..PyTrxFile..dps_keys..$u7b$$u7b$closure$u7d$$u7d$$GT$$GT$17h786f669cffb44f76E', symObjAddr: 0xA38, symBinAddr: 0x20D80, symSize: 0x24 }
  - { offset: 0x5F4F0, size: 0x8, addend: 0x0, symName: '__ZN4core3ptr219drop_in_place$LT$core..iter..adapters..map..Map$LT$alloc..vec..into_iter..IntoIter$LT$$LP$alloc..string..String$C$trx_rs..trx_file..DataArrayInfo$RP$$GT$$C$_core..PyTrxFile..dpv_keys..$u7b$$u7b$closure$u7d$$u7d$$GT$$GT$17h1232778f6aa89f77E', symObjAddr: 0xA5C, symBinAddr: 0x20DA4, symSize: 0x24 }
  - { offset: 0x5F51F, size: 0x8, addend: 0x0, symName: '__ZN4core3ptr272drop_in_place$LT$$LT$alloc..vec..into_iter..IntoIter$LT$T$C$A$GT$$u20$as$u20$core..ops..drop..Drop$GT$..drop..DropGuard$LT$$LP$alloc..string..String$C$alloc..vec..Vec$LT$$LP$alloc..string..String$C$trx_rs..trx_file..DataArrayInfo$RP$$GT$$RP$$C$alloc..alloc..Global$GT$$GT$17h06b55c0545f23e0eE', symObjAddr: 0xA80, symBinAddr: 0x20DC8, symSize: 0x24 }
  - { offset: 0x5F54E, size: 0x8, addend: 0x0, symName: '__ZN4core3ptr304drop_in_place$LT$core..iter..adapters..map..Map$LT$alloc..vec..into_iter..IntoIter$LT$alloc..string..String$GT$$C$$LT$alloc..string..String$u20$as$u20$pyo3..conversion..IntoPyObject$GT$..owned_sequence_into_pyobject$LT$alloc..vec..Vec$LT$alloc..string..String$GT$$GT$..$u7b$$u7b$closure$u7d$$u7d$$GT$$GT$17h108e180da2315d03E', symObjAddr: 0xAA4, symBinAddr: 0x20DEC, symSize: 0x24 }
  - { offset: 0x5F57D, size: 0x8, addend: 0x0, symName: '__ZN4core3ptr37drop_in_place$LT$_core..PyTrxFile$GT$17he615d6e8a2d52b7eE', symObjAddr: 0xAC8, symBinAddr: 0x20E10, symSize: 0x24 }
  - { offset: 0x5F5AC, size: 0x8, addend: 0x0, symName: '__ZN4core3ptr63drop_in_place$LT$pyo3..instance..Py$LT$_core..PyTrxFile$GT$$GT$17h6783e6afa0d62304E', symObjAddr: 0xB10, symBinAddr: 0x20E34, symSize: 0x2C }
  - { offset: 0x5F5DB, size: 0x8, addend: 0x0, symName: '__ZN4core3ptr64drop_in_place$LT$pyo3..pycell..PyRef$LT$_core..PyTrxFile$GT$$GT$17hf1e71bed48941852E', symObjAddr: 0xB3C, symBinAddr: 0x20E60, symSize: 0x5C }
  - { offset: 0x5F60A, size: 0x8, addend: 0x0, symName: '__ZN4core3ptr66drop_in_place$LT$pyo3..instance..Bound$LT$_core..PyTrxFile$GT$$GT$17h08915f5fffb68781E', symObjAddr: 0xB98, symBinAddr: 0x20EBC, symSize: 0x24 }
  - { offset: 0x5F639, size: 0x8, addend: 0x0, symName: '__ZN4core3ptr67drop_in_place$LT$core..cell..UnsafeCell$LT$_core..PyTrxFile$GT$$GT$17h45bdfa2a546c4d39E', symObjAddr: 0xBBC, symBinAddr: 0x20EE0, symSize: 0x24 }
  - { offset: 0x5F668, size: 0x8, addend: 0x0, symName: '__ZN4core3ptr81drop_in_place$LT$alloc..vec..into_iter..IntoIter$LT$alloc..string..String$GT$$GT$17hfc96fbdbfad694c3E', symObjAddr: 0xBE0, symBinAddr: 0x20F04, symSize: 0x24 }
  - { offset: 0x5F697, size: 0x8, addend: 0x0, symName: '__ZN4core3ptr83drop_in_place$LT$pyo3..pyclass_init..PyClassInitializer$LT$_core..PyTrxFile$GT$$GT$17h49aa0b448fe2f9f9E', symObjAddr: 0xC04, symBinAddr: 0x20F28, symSize: 0x24 }
  - { offset: 0x5F6C6, size: 0x8, addend: 0x0, symName: '__ZN4core3ptr84drop_in_place$LT$core..result..Result$LT$_core..PyTrxFile$C$pyo3..err..PyErr$GT$$GT$17h4d30fafb34d13dfdE', symObjAddr: 0xC28, symBinAddr: 0x20F4C, symSize: 0x58 }
  - { offset: 0x5F6F5, size: 0x8, addend: 0x0, symName: '__ZN4core3ptr87drop_in_place$LT$pyo3..pyclass_init..PyClassInitializerImpl$LT$_core..PyTrxFile$GT$$GT$17h81c34733c5042372E', symObjAddr: 0xC80, symBinAddr: 0x20FA4, symSize: 0x54 }
  - { offset: 0x5F724, size: 0x8, addend: 0x0, symName: '__ZN4core3ptr88drop_in_place$LT$alloc..vec..in_place_drop..InPlaceDrop$LT$alloc..string..String$GT$$GT$17h2202a48cbdb0646fE', symObjAddr: 0xCD4, symBinAddr: 0x20FF8, symSize: 0x24 }
  - { offset: 0x5F753, size: 0x8, addend: 0x0, symName: '__ZN4core3ptr92drop_in_place$LT$core..option..Option$LT$pyo3..pycell..PyRef$LT$_core..PyTrxFile$GT$$GT$$GT$17ha9417bfae3858cb5E', symObjAddr: 0xCF8, symBinAddr: 0x2101C, symSize: 0x44 }
  - { offset: 0x5F782, size: 0x8, addend: 0x0, symName: '__ZN4core3ptr93drop_in_place$LT$core..option..Option$LT$alloc..vec..Vec$LT$alloc..string..String$GT$$GT$$GT$17h77508d42979c251cE', symObjAddr: 0xD3C, symBinAddr: 0x21060, symSize: 0x48 }
  - { offset: 0x5F7B1, size: 0x8, addend: 0x0, symName: '__ZN4core3ptr94drop_in_place$LT$core..slice..sort..stable..merge..MergeState$LT$alloc..string..String$GT$$GT$17hff77579b4dd371c8E', symObjAddr: 0xD84, symBinAddr: 0x210A8, symSize: 0x24 }
  - { offset: 0x5F7E0, size: 0x8, addend: 0x0, symName: '__ZN4core3ptr97drop_in_place$LT$$LP$alloc..string..String$C$alloc..vec..Vec$LT$alloc..string..String$GT$$RP$$GT$17ha46f647c7f92cdc9E', symObjAddr: 0xDA8, symBinAddr: 0x210CC, symSize: 0x60 }
  - { offset: 0x5F80F, size: 0x8, addend: 0x0, symName: '__ZN4core3ptr98drop_in_place$LT$core..slice..sort..shared..smallsort..CopyOnDrop$LT$alloc..string..String$GT$$GT$17hfe79f6d1fb8bd36dE', symObjAddr: 0xE08, symBinAddr: 0x2112C, symSize: 0x24 }
  - { offset: 0x5FBE2, size: 0x8, addend: 0x0, symName: __ZN4core3ops8function5FnMut8call_mut17hbfbca4b6c7463902E, symObjAddr: 0x2AC, symBinAddr: 0x2063C, symSize: 0x30 }
  - { offset: 0x5FC2C, size: 0x8, addend: 0x0, symName: '__ZN4core3ops8function6FnOnce40call_once$u7b$$u7b$vtable.shim$u7d$$u7d$17h221fc802638556f8E', symObjAddr: 0x2DC, symBinAddr: 0x2066C, symSize: 0x20 }
  - { offset: 0x5FC70, size: 0x8, addend: 0x0, symName: '__ZN4core3ops8function6FnOnce40call_once$u7b$$u7b$vtable.shim$u7d$$u7d$17h2a5f3d2fb8867856E', symObjAddr: 0x2FC, symBinAddr: 0x2068C, symSize: 0x38 }
  - { offset: 0x5FCB4, size: 0x8, addend: 0x0, symName: '__ZN4core3ops8function6FnOnce40call_once$u7b$$u7b$vtable.shim$u7d$$u7d$17h2d8f35aafc315fb3E', symObjAddr: 0x334, symBinAddr: 0x206C4, symSize: 0x24 }
  - { offset: 0x5FCF8, size: 0x8, addend: 0x0, symName: '__ZN4core3ops8function6FnOnce40call_once$u7b$$u7b$vtable.shim$u7d$$u7d$17h67df4364d2d32afbE', symObjAddr: 0x358, symBinAddr: 0x206E8, symSize: 0x38 }
  - { offset: 0x5FD3C, size: 0x8, addend: 0x0, symName: '__ZN4core3ops8function6FnOnce40call_once$u7b$$u7b$vtable.shim$u7d$$u7d$17hf8963aac17859970E', symObjAddr: 0x390, symBinAddr: 0x20720, symSize: 0x24 }
  - { offset: 0x5FD80, size: 0x8, addend: 0x0, symName: __ZN4core3ops8function6FnOnce9call_once17h0112a79a2bc8079fE, symObjAddr: 0x3B4, symBinAddr: 0x20744, symSize: 0x24 }
  - { offset: 0x5FDC4, size: 0x8, addend: 0x0, symName: __ZN4core3ops8function6FnOnce9call_once17h0353e11067fe35c8E, symObjAddr: 0x3D8, symBinAddr: 0x20768, symSize: 0x24 }
  - { offset: 0x5FE08, size: 0x8, addend: 0x0, symName: __ZN4core3ops8function6FnOnce9call_once17h0ef85c348064c230E, symObjAddr: 0x3FC, symBinAddr: 0x2078C, symSize: 0x4C }
  - { offset: 0x5FE4C, size: 0x8, addend: 0x0, symName: __ZN4core3ops8function6FnOnce9call_once17h173f2ffab7ac3dc3E, symObjAddr: 0x448, symBinAddr: 0x207D8, symSize: 0x24 }
  - { offset: 0x5FE90, size: 0x8, addend: 0x0, symName: __ZN4core3ops8function6FnOnce9call_once17h22d981e86f141369E, symObjAddr: 0x46C, symBinAddr: 0x207FC, symSize: 0x3C }
  - { offset: 0x5FED4, size: 0x8, addend: 0x0, symName: __ZN4core3ops8function6FnOnce9call_once17h480944e2cb6a0fccE, symObjAddr: 0x4A8, symBinAddr: 0x20838, symSize: 0x24 }
  - { offset: 0x5FF18, size: 0x8, addend: 0x0, symName: __ZN4core3ops8function6FnOnce9call_once17h6fb14b13c8fddc44E, symObjAddr: 0x4CC, symBinAddr: 0x2085C, symSize: 0x58 }
  - { offset: 0x5FF5C, size: 0x8, addend: 0x0, symName: __ZN4core3ops8function6FnOnce9call_once17h7132558a755c0965E, symObjAddr: 0x524, symBinAddr: 0x208B4, symSize: 0x24 }
  - { offset: 0x5FFA0, size: 0x8, addend: 0x0, symName: __ZN4core3ops8function6FnOnce9call_once17h8d507daaafacfc4eE, symObjAddr: 0x548, symBinAddr: 0x208D8, symSize: 0x24 }
  - { offset: 0x5FFE4, size: 0x8, addend: 0x0, symName: __ZN4core3ops8function6FnOnce9call_once17h8dd68922f825a4a1E, symObjAddr: 0x56C, symBinAddr: 0x208FC, symSize: 0x48 }
  - { offset: 0x60028, size: 0x8, addend: 0x0, symName: __ZN4core3ops8function6FnOnce9call_once17h8f644db306823924E, symObjAddr: 0x5B4, symBinAddr: 0x20944, symSize: 0x34 }
  - { offset: 0x6006C, size: 0x8, addend: 0x0, symName: __ZN4core3ops8function6FnOnce9call_once17h9eac4e3cd6024b76E, symObjAddr: 0x5E8, symBinAddr: 0x20978, symSize: 0x24 }
  - { offset: 0x600B0, size: 0x8, addend: 0x0, symName: __ZN4core3ops8function6FnOnce9call_once17hb827c8d3bd753b29E, symObjAddr: 0x630, symBinAddr: 0x2099C, symSize: 0x34 }
  - { offset: 0x600F4, size: 0x8, addend: 0x0, symName: __ZN4core3ops8function6FnOnce9call_once17hb834adfd704ae746E, symObjAddr: 0x664, symBinAddr: 0x209D0, symSize: 0x3C }
  - { offset: 0x60138, size: 0x8, addend: 0x0, symName: __ZN4core3ops8function6FnOnce9call_once17hcbf813600e85df5eE, symObjAddr: 0x6A0, symBinAddr: 0x20A0C, symSize: 0x5C }
  - { offset: 0x6017C, size: 0x8, addend: 0x0, symName: __ZN4core3ops8function6FnOnce9call_once17hf4526e442a30e75fE, symObjAddr: 0x6FC, symBinAddr: 0x20A68, symSize: 0x44 }
  - { offset: 0x6053B, size: 0x8, addend: 0x0, symName: '__ZN95_$LT$core..slice..sort..stable..merge..MergeState$LT$T$GT$$u20$as$u20$core..ops..drop..Drop$GT$4drop17h1bbd2bbe3faca9a4E', symObjAddr: 0x112C, symBinAddr: 0x2142C, symSize: 0xF4 }
  - { offset: 0x60679, size: 0x8, addend: 0x0, symName: '__ZN99_$LT$core..slice..sort..shared..smallsort..CopyOnDrop$LT$T$GT$$u20$as$u20$core..ops..drop..Drop$GT$4drop17hdac2aa361ddd7e74E', symObjAddr: 0x123C, symBinAddr: 0x21520, symSize: 0x8C }
  - { offset: 0x61694, size: 0x8, addend: 0x0, symName: '__ZN111_$LT$alloc..vec..in_place_drop..InPlaceDstDataSrcBufDrop$LT$Src$C$Dest$GT$$u20$as$u20$core..ops..drop..Drop$GT$4drop17hd5e3cdfe14ce56d1E', symObjAddr: 0x0, symBinAddr: 0x20390, symSize: 0xB4 }
  - { offset: 0x61810, size: 0x8, addend: 0x0, symName: '__ZN111_$LT$alloc..vec..in_place_drop..InPlaceDstDataSrcBufDrop$LT$Src$C$Dest$GT$$u20$as$u20$core..ops..drop..Drop$GT$4drop17hde75c28ff216ffc1E', symObjAddr: 0xB4, symBinAddr: 0x20444, symSize: 0xB4 }
  - { offset: 0x61992, size: 0x8, addend: 0x0, symName: '__ZN89_$LT$alloc..vec..in_place_drop..InPlaceDrop$LT$T$GT$$u20$as$u20$core..ops..drop..Drop$GT$4drop17h5a90d9611e670275E', symObjAddr: 0x10EC, symBinAddr: 0x213EC, symSize: 0x40 }
  - { offset: 0x61ACC, size: 0x8, addend: 0x0, symName: '__ZN157_$LT$$LT$alloc..vec..into_iter..IntoIter$LT$T$C$A$GT$$u20$as$u20$core..ops..drop..Drop$GT$..drop..DropGuard$LT$T$C$A$GT$$u20$as$u20$core..ops..drop..Drop$GT$4drop17h19445bcef3de91ccE', symObjAddr: 0x168, symBinAddr: 0x204F8, symSize: 0x6C }
  - { offset: 0x61C0F, size: 0x8, addend: 0x0, symName: '__ZN157_$LT$$LT$alloc..vec..into_iter..IntoIter$LT$T$C$A$GT$$u20$as$u20$core..ops..drop..Drop$GT$..drop..DropGuard$LT$T$C$A$GT$$u20$as$u20$core..ops..drop..Drop$GT$4drop17h6759d157e15d084bE', symObjAddr: 0x1D4, symBinAddr: 0x20564, symSize: 0x6C }
  - { offset: 0x61D52, size: 0x8, addend: 0x0, symName: '__ZN157_$LT$$LT$alloc..vec..into_iter..IntoIter$LT$T$C$A$GT$$u20$as$u20$core..ops..drop..Drop$GT$..drop..DropGuard$LT$T$C$A$GT$$u20$as$u20$core..ops..drop..Drop$GT$4drop17hb368283524388949E', symObjAddr: 0x240, symBinAddr: 0x205D0, symSize: 0x6C }
  - { offset: 0x61F0C, size: 0x8, addend: 0x0, symName: '__ZN86_$LT$alloc..vec..into_iter..IntoIter$LT$T$C$A$GT$$u20$as$u20$core..ops..drop..Drop$GT$4drop17h63ee22de5320e301E', symObjAddr: 0xF84, symBinAddr: 0x21284, symSize: 0x78 }
  - { offset: 0x61F5E, size: 0x8, addend: 0x0, symName: '__ZN86_$LT$alloc..vec..into_iter..IntoIter$LT$T$C$A$GT$$u20$as$u20$core..ops..drop..Drop$GT$4drop17hd3f5e7a174547721E', symObjAddr: 0xFFC, symBinAddr: 0x212FC, symSize: 0x78 }
  - { offset: 0x61FB0, size: 0x8, addend: 0x0, symName: '__ZN86_$LT$alloc..vec..into_iter..IntoIter$LT$T$C$A$GT$$u20$as$u20$core..ops..drop..Drop$GT$4drop17hf26aa33247cf6478E', symObjAddr: 0x1074, symBinAddr: 0x21374, symSize: 0x78 }
  - { offset: 0x62C88, size: 0x8, addend: 0x0, symName: '__ZN69_$LT$pyo3..instance..Py$LT$T$GT$$u20$as$u20$core..ops..drop..Drop$GT$4drop17hf42d36fe841f39c7E', symObjAddr: 0xE50, symBinAddr: 0x21150, symSize: 0x28 }
  - { offset: 0x62CC1, size: 0x8, addend: 0x0, symName: '__ZN72_$LT$pyo3..instance..Bound$LT$T$GT$$u20$as$u20$core..ops..drop..Drop$GT$4drop17h4dd116aea8c4cfb9E', symObjAddr: 0xEA4, symBinAddr: 0x211A4, symSize: 0x30 }
  - { offset: 0x62FF4, size: 0x8, addend: 0x0, symName: '__ZN70_$LT$pyo3..pycell..PyRef$LT$T$GT$$u20$as$u20$core..ops..drop..Drop$GT$4drop17h91b8f531604eb72bE', symObjAddr: 0xE78, symBinAddr: 0x21178, symSize: 0x2C }
  - { offset: 0x63496, size: 0x8, addend: 0x0, symName: '__ZN79_$LT$hashbrown..raw..RawTable$LT$T$C$A$GT$$u20$as$u20$core..ops..drop..Drop$GT$4drop17h173215834e8a1bb1E', symObjAddr: 0xED4, symBinAddr: 0x211D4, symSize: 0x3C }
  - { offset: 0x634D8, size: 0x8, addend: 0x0, symName: '__ZN82_$LT$hashbrown..raw..RawIntoIter$LT$T$C$A$GT$$u20$as$u20$core..ops..drop..Drop$GT$4drop17he905974d13a8856aE', symObjAddr: 0xF10, symBinAddr: 0x21210, symSize: 0x74 }
  - { offset: 0x648EA, size: 0x8, addend: 0x0, symName: '__ZN10serde_core3ser5impls60_$LT$impl$u20$serde_core..ser..Serialize$u20$for$u20$f64$GT$9serialize17hb40c074dcf125998E', symObjAddr: 0x0, symBinAddr: 0x215AC, symSize: 0x28 }
  - { offset: 0x64B70, size: 0x8, addend: 0x0, symName: '__ZN10serde_core3ser5impls60_$LT$impl$u20$serde_core..ser..Serialize$u20$for$u20$f64$GT$9serialize17hb40c074dcf125998E', symObjAddr: 0x0, symBinAddr: 0x215AC, symSize: 0x28 }
  - { offset: 0x64BB9, size: 0x8, addend: 0x0, symName: '__ZN10serde_core3ser5impls60_$LT$impl$u20$serde_core..ser..Serialize$u20$for$u20$u64$GT$9serialize17he77e859f2151ddc9E', symObjAddr: 0x28, symBinAddr: 0x215D4, symSize: 0x28 }
  - { offset: 0x64C02, size: 0x8, addend: 0x0, symName: '__ZN10serde_core3ser5impls62_$LT$impl$u20$serde_core..ser..Serialize$u20$for$u20$$RF$T$GT$9serialize17h340130958e5c424dE', symObjAddr: 0x50, symBinAddr: 0x215FC, symSize: 0x28 }
  - { offset: 0x64C51, size: 0x8, addend: 0x0, symName: '__ZN10serde_core3ser5impls62_$LT$impl$u20$serde_core..ser..Serialize$u20$for$u20$$RF$T$GT$9serialize17h795b31f1c19a9c68E', symObjAddr: 0x78, symBinAddr: 0x21624, symSize: 0x28 }
  - { offset: 0x64CA0, size: 0x8, addend: 0x0, symName: '__ZN10serde_core3ser5impls62_$LT$impl$u20$serde_core..ser..Serialize$u20$for$u20$$RF$T$GT$9serialize17hc9865cd8e452e988E', symObjAddr: 0xA0, symBinAddr: 0x2164C, symSize: 0x28 }
  - { offset: 0x64CF5, size: 0x8, addend: 0x0, symName: '__ZN10serde_core3ser5impls79_$LT$impl$u20$serde_core..ser..Serialize$u20$for$u20$$u5b$T$u3b$$u20$3$u5d$$GT$9serialize17h05adf4b421c1757cE', symObjAddr: 0xC8, symBinAddr: 0x21674, symSize: 0x1D8 }
  - { offset: 0x64DE1, size: 0x8, addend: 0x0, symName: '__ZN10serde_core3ser5impls79_$LT$impl$u20$serde_core..ser..Serialize$u20$for$u20$$u5b$T$u3b$$u20$4$u5d$$GT$9serialize17h3afd0ddb41de6a77E', symObjAddr: 0x2A0, symBinAddr: 0x2184C, symSize: 0x1D8 }
  - { offset: 0x64EC7, size: 0x8, addend: 0x0, symName: '__ZN10serde_core3ser5impls79_$LT$impl$u20$serde_core..ser..Serialize$u20$for$u20$$u5b$T$u3b$$u20$4$u5d$$GT$9serialize17h66965494997a3337E', symObjAddr: 0x478, symBinAddr: 0x21A24, symSize: 0x1D8 }
  - { offset: 0x65ED6, size: 0x8, addend: 0x0, symName: __ZN9hashbrown7control5group4neon5Group10match_full17ha6de743aa6491d16E, symObjAddr: 0x0, symBinAddr: 0x21BFC, symSize: 0x68 }
  - { offset: 0x65FEE, size: 0x8, addend: 0x0, symName: __ZN9hashbrown7control5group4neon5Group10match_full17ha6de743aa6491d16E, symObjAddr: 0x0, symBinAddr: 0x21BFC, symSize: 0x68 }
  - { offset: 0x66026, size: 0x8, addend: 0x0, symName: __ZN9hashbrown7control5group4neon5Group22match_empty_or_deleted17hab8fc1fc38c2e190E, symObjAddr: 0x68, symBinAddr: 0x21C64, symSize: 0x68 }
  - { offset: 0x6605E, size: 0x8, addend: 0x0, symName: __ZN9hashbrown7control5group4neon5Group44convert_special_to_empty_and_full_to_deleted17h2d1dc92c3d1b4fc4E, symObjAddr: 0xD0, symBinAddr: 0x21CCC, symSize: 0x88 }
  - { offset: 0x66096, size: 0x8, addend: 0x0, symName: __ZN9hashbrown7control5group4neon5Group9match_tag17h1a766a9f789ca7aaE, symObjAddr: 0x158, symBinAddr: 0x21D54, symSize: 0x7C }
  - { offset: 0x66102, size: 0x8, addend: 0x0, symName: '__ZN4core3ptr8non_null16NonNull$LT$T$GT$13new_unchecked17h0dca3b4aa06a43e0E', symObjAddr: 0x0, symBinAddr: 0x21DD0, symSize: 0x3C }
  - { offset: 0x6646D, size: 0x8, addend: 0x0, symName: '__ZN4core3ptr8non_null16NonNull$LT$T$GT$13new_unchecked17h0dca3b4aa06a43e0E', symObjAddr: 0x0, symBinAddr: 0x21DD0, symSize: 0x3C }
  - { offset: 0x664B9, size: 0x8, addend: 0x0, symName: '__ZN4core3ptr8non_null16NonNull$LT$T$GT$13new_unchecked17h137aa22f189ccdb3E', symObjAddr: 0x3C, symBinAddr: 0x21E0C, symSize: 0x3C }
  - { offset: 0x664FE, size: 0x8, addend: 0x0, symName: '__ZN4core3ptr8non_null16NonNull$LT$T$GT$13new_unchecked17h444268ff4991ebe4E', symObjAddr: 0x78, symBinAddr: 0x21E48, symSize: 0x3C }
  - { offset: 0x6654A, size: 0x8, addend: 0x0, symName: '__ZN4core3ptr8non_null16NonNull$LT$T$GT$13new_unchecked17h4e0edcff76eb3650E', symObjAddr: 0xB4, symBinAddr: 0x21E84, symSize: 0x3C }
  - { offset: 0x66596, size: 0x8, addend: 0x0, symName: '__ZN4core3ptr8non_null16NonNull$LT$T$GT$13new_unchecked17h8612693a441f81c0E', symObjAddr: 0xF0, symBinAddr: 0x21EC0, symSize: 0x3C }
  - { offset: 0x665E2, size: 0x8, addend: 0x0, symName: '__ZN4core3ptr8non_null16NonNull$LT$T$GT$13new_unchecked17h8bc737c78314e240E', symObjAddr: 0x12C, symBinAddr: 0x21EFC, symSize: 0x3C }
  - { offset: 0x6662E, size: 0x8, addend: 0x0, symName: '__ZN4core3ptr8non_null16NonNull$LT$T$GT$13new_unchecked17h8e8c6a68ab182620E', symObjAddr: 0x168, symBinAddr: 0x21F38, symSize: 0x3C }
  - { offset: 0x6667A, size: 0x8, addend: 0x0, symName: '__ZN4core3ptr8non_null16NonNull$LT$T$GT$13new_unchecked17ha060bfa5dac931a6E', symObjAddr: 0x1A4, symBinAddr: 0x21F74, symSize: 0x3C }
  - { offset: 0x666C6, size: 0x8, addend: 0x0, symName: '__ZN4core3ptr8non_null16NonNull$LT$T$GT$13new_unchecked17hca47d7aeab052564E', symObjAddr: 0x1E0, symBinAddr: 0x21FB0, symSize: 0x3C }
  - { offset: 0x6670F, size: 0x8, addend: 0x0, symName: '__ZN5_core5_core11__pyo3_init28_$u7b$$u7b$closure$u7d$$u7d$17hb803496beef8d73aE', symObjAddr: 0x0, symBinAddr: 0x21FEC, symSize: 0x30 }
  - { offset: 0x66792, size: 0x8, addend: 0x0, symName: '__ZN5_core5_core11__pyo3_init28_$u7b$$u7b$closure$u7d$$u7d$17hb803496beef8d73aE', symObjAddr: 0x0, symBinAddr: 0x21FEC, symSize: 0x30 }
  - { offset: 0x67103, size: 0x8, addend: 0x0, symName: __ZN4core4iter6traits8iterator8Iterator6copied17h05782847bf541c3bE, symObjAddr: 0x0, symBinAddr: 0x2201C, symSize: 0x1C }
  - { offset: 0x67190, size: 0x8, addend: 0x0, symName: __ZN4core4iter6traits8iterator8Iterator6copied17h05782847bf541c3bE, symObjAddr: 0x0, symBinAddr: 0x2201C, symSize: 0x1C }
  - { offset: 0x671D0, size: 0x8, addend: 0x0, symName: __ZN4core4iter6traits8iterator8Iterator6filter17hf57cedd680307e0dE, symObjAddr: 0x1C, symBinAddr: 0x22038, symSize: 0x1C }
  - { offset: 0x6721F, size: 0x8, addend: 0x0, symName: __ZN4core4iter6traits8iterator8Iterator8try_fold17h66bbeadd83bfe3f3E, symObjAddr: 0x38, symBinAddr: 0x22054, symSize: 0x178 }
  - { offset: 0x6783B, size: 0x8, addend: 0x0, symName: '__ZN91_$LT$core..slice..iter..Iter$LT$T$GT$$u20$as$u20$core..iter..traits..iterator..Iterator$GT$3any17h8a3fb8f8b8b543baE', symObjAddr: 0x200, symBinAddr: 0x2221C, symSize: 0xE0 }
  - { offset: 0x67914, size: 0x8, addend: 0x0, symName: '__ZN91_$LT$core..slice..iter..Iter$LT$T$GT$$u20$as$u20$core..iter..traits..iterator..Iterator$GT$4next17hdb4974b442367ffeE', symObjAddr: 0x2E0, symBinAddr: 0x222FC, symSize: 0x84 }
  - { offset: 0x67A19, size: 0x8, addend: 0x0, symName: '__ZN91_$LT$core..slice..iter..Iter$LT$T$GT$$u20$as$u20$core..iter..traits..iterator..Iterator$GT$8position17h9a6b5b2a8e41b361E', symObjAddr: 0x364, symBinAddr: 0x22380, symSize: 0x1D0 }
  - { offset: 0x67C76, size: 0x8, addend: 0x0, symName: '__ZN91_$LT$core..slice..iter..Iter$LT$T$GT$$u20$as$u20$core..iter..traits..iterator..Iterator$GT$8position17hfa9378ca947b5f3fE', symObjAddr: 0x534, symBinAddr: 0x22550, symSize: 0x1D0 }
  - { offset: 0x68572, size: 0x8, addend: 0x0, symName: '__ZN4core5slice4iter13Iter$LT$T$GT$3new17h3f63c0bd57e3125dE', symObjAddr: 0x1B0, symBinAddr: 0x221CC, symSize: 0x50 }
  - { offset: 0x688C8, size: 0x8, addend: 0x0, symName: __ZN5alloc3fmt6format17he3d72ce1bfacdd0dE, symObjAddr: 0x0, symBinAddr: 0x22720, symSize: 0xD8 }
  - { offset: 0x68DE0, size: 0x8, addend: 0x0, symName: __ZN5alloc3fmt6format17he3d72ce1bfacdd0dE, symObjAddr: 0x0, symBinAddr: 0x22720, symSize: 0xD8 }
  - { offset: 0x68F90, size: 0x8, addend: 0x0, symName: '__ZN78_$LT$pyo3..exceptions..PyKeyError$u20$as$u20$pyo3..type_object..PyTypeInfo$GT$15type_object_raw17haeb540a1d44c8143E', symObjAddr: 0x0, symBinAddr: 0x227F8, symSize: 0x24 }
  - { offset: 0x68FF2, size: 0x8, addend: 0x0, symName: '__ZN78_$LT$pyo3..exceptions..PyKeyError$u20$as$u20$pyo3..type_object..PyTypeInfo$GT$15type_object_raw17haeb540a1d44c8143E', symObjAddr: 0x0, symBinAddr: 0x227F8, symSize: 0x24 }
  - { offset: 0x6916A, size: 0x8, addend: 0x0, symName: '__ZN5_core152_$LT$impl$u20$pyo3..impl_..pyclass..PyMethods$LT$_core..PyTrxFile$GT$$u20$for$u20$pyo3..impl_..pyclass..PyClassImplCollector$LT$_core..PyTrxFile$GT$$GT$10py_methods17h576317a2c24826caE', symObjAddr: 0x0, symBinAddr: 0x2281C, symSize: 0x14 }
  - { offset: 0x69F47, size: 0x8, addend: 0x0, symName: '__ZN5_core152_$LT$impl$u20$pyo3..impl_..pyclass..PyMethods$LT$_core..PyTrxFile$GT$$u20$for$u20$pyo3..impl_..pyclass..PyClassImplCollector$LT$_core..PyTrxFile$GT$$GT$10py_methods17h576317a2c24826caE', symObjAddr: 0x0, symBinAddr: 0x2281C, symSize: 0x14 }
  - { offset: 0x6B28B, size: 0x8, addend: 0x0, symName: __ZN4pyo35types4list17try_new_from_iter17h8f54aaff4c4d41c0E, symObjAddr: 0x0, symBinAddr: 0x22830, symSize: 0x2C8 }
  - { offset: 0x6BA4A, size: 0x8, addend: 0x0, symName: __ZN4pyo35types4list17try_new_from_iter17h8f54aaff4c4d41c0E, symObjAddr: 0x0, symBinAddr: 0x22830, symSize: 0x2C8 }
  - { offset: 0x6BB70, size: 0x8, addend: 0x0, symName: '__ZN4pyo35types4list17try_new_from_iter28_$u7b$$u7b$closure$u7d$$u7d$17h1fd05f4fa370380dE', symObjAddr: 0x2C8, symBinAddr: 0x22AF8, symSize: 0x114 }
  - { offset: 0x6C34E, size: 0x8, addend: 0x0, symName: __ZN4core5slice4sort6shared9smallsort11insert_tail17hdf680b6dd013e50fE, symObjAddr: 0x0, symBinAddr: 0x22C0C, symSize: 0x1C4 }
  - { offset: 0x6CC72, size: 0x8, addend: 0x0, symName: __ZN4core5slice4sort6shared9smallsort11insert_tail17hdf680b6dd013e50fE, symObjAddr: 0x0, symBinAddr: 0x22C0C, symSize: 0x1C4 }
  - { offset: 0x6CDDE, size: 0x8, addend: 0x0, symName: __ZN4core5slice4sort6shared9smallsort12sort4_stable17h336d1046437f80d0E, symObjAddr: 0x1C4, symBinAddr: 0x22DD0, symSize: 0x76C }
  - { offset: 0x6E187, size: 0x8, addend: 0x0, symName: __ZN4core5slice4sort6shared9smallsort19bidirectional_merge17h0d0d49853165bd00E, symObjAddr: 0x930, symBinAddr: 0x2353C, symSize: 0x534 }
  - { offset: 0x6E82A, size: 0x8, addend: 0x0, symName: __ZN4core5slice4sort6shared9smallsort25insertion_sort_shift_left17h0d6cd14f657ed9a1E, symObjAddr: 0xE64, symBinAddr: 0x23A70, symSize: 0xCC }
  - { offset: 0x6E964, size: 0x8, addend: 0x0, symName: __ZN4core5slice4sort6shared9smallsort31small_sort_general_with_scratch17h059c58f0f74ae4aaE, symObjAddr: 0xF30, symBinAddr: 0x23B3C, symSize: 0x4B8 }
  - { offset: 0x6F625, size: 0x8, addend: 0x0, symName: __ZN4core3fmt9Arguments17from_str_nonconst17hb94aa8aca211713bE, symObjAddr: 0x0, symBinAddr: 0x23FF4, symSize: 0x28 }
  - { offset: 0x6F971, size: 0x8, addend: 0x0, symName: __ZN4core3fmt9Arguments17from_str_nonconst17hb94aa8aca211713bE, symObjAddr: 0x0, symBinAddr: 0x23FF4, symSize: 0x28 }
  - { offset: 0x6F994, size: 0x8, addend: 0x0, symName: __ZN4core3fmt9Arguments8from_str17hc8c0dc9d2ab32f11E, symObjAddr: 0x28, symBinAddr: 0x2401C, symSize: 0x20 }
  - { offset: 0x6F9D5, size: 0x8, addend: 0x0, symName: __ZN4pyo35impl_10trampoline10trampoline17h15f8602dad05cab5E, symObjAddr: 0x0, symBinAddr: 0x2403C, symSize: 0x14C }
  - { offset: 0x6FA58, size: 0x8, addend: 0x0, symName: __ZN4pyo35impl_10trampoline10trampoline17h15f8602dad05cab5E, symObjAddr: 0x0, symBinAddr: 0x2403C, symSize: 0x14C }
  - { offset: 0x6FAFB, size: 0x8, addend: 0x0, symName: __ZN4pyo35impl_10trampoline10trampoline17h305c9b0eda5b4046E, symObjAddr: 0x14C, symBinAddr: 0x24188, symSize: 0x158 }
  - { offset: 0x6FB9E, size: 0x8, addend: 0x0, symName: __ZN4pyo35impl_10trampoline10trampoline17h40aa18b6ebce9e29E, symObjAddr: 0x2A4, symBinAddr: 0x242E0, symSize: 0x160 }
  - { offset: 0x6FC42, size: 0x8, addend: 0x0, symName: __ZN4pyo35impl_10trampoline10trampoline17h723bc410c113c24cE, symObjAddr: 0x404, symBinAddr: 0x24440, symSize: 0x158 }
  - { offset: 0x6FCE5, size: 0x8, addend: 0x0, symName: __ZN4pyo35impl_10trampoline10trampoline17hdce3aa79aa128b27E, symObjAddr: 0x55C, symBinAddr: 0x24598, symSize: 0x158 }
  - { offset: 0x6FD8D, size: 0x8, addend: 0x0, symName: '__ZN4pyo35impl_10trampoline10trampoline28_$u7b$$u7b$closure$u7d$$u7d$17h321c1e12fce00ca4E', symObjAddr: 0x6B4, symBinAddr: 0x246F0, symSize: 0x40 }
  - { offset: 0x6FDDC, size: 0x8, addend: 0x0, symName: '__ZN4pyo35impl_10trampoline10trampoline28_$u7b$$u7b$closure$u7d$$u7d$17h5774a53606f81c6bE', symObjAddr: 0x6F4, symBinAddr: 0x24730, symSize: 0x2C }
  - { offset: 0x6FE2A, size: 0x8, addend: 0x0, symName: '__ZN4pyo35impl_10trampoline10trampoline28_$u7b$$u7b$closure$u7d$$u7d$17h814b32a0a4c999f3E', symObjAddr: 0x720, symBinAddr: 0x2475C, symSize: 0x2C }
  - { offset: 0x6FE78, size: 0x8, addend: 0x0, symName: '__ZN4pyo35impl_10trampoline10trampoline28_$u7b$$u7b$closure$u7d$$u7d$17h88460b5fafe477cfE', symObjAddr: 0x74C, symBinAddr: 0x24788, symSize: 0x2C }
  - { offset: 0x6FEC6, size: 0x8, addend: 0x0, symName: '__ZN4pyo35impl_10trampoline10trampoline28_$u7b$$u7b$closure$u7d$$u7d$17hdd7889b77adff2b9E', symObjAddr: 0x778, symBinAddr: 0x247B4, symSize: 0x24 }
  - { offset: 0x6FF1A, size: 0x8, addend: 0x0, symName: '__ZN4pyo35impl_10trampoline11module_init28_$u7b$$u7b$closure$u7d$$u7d$17h491015c8079029f3E', symObjAddr: 0x79C, symBinAddr: 0x247D8, symSize: 0x40 }
  - { offset: 0x6FF66, size: 0x8, addend: 0x0, symName: '__ZN4pyo35impl_10trampoline11module_init28_$u7b$$u7b$closure$u7d$$u7d$28_$u7b$$u7b$closure$u7d$$u7d$17h8dab7d3836f5993dE', symObjAddr: 0x7DC, symBinAddr: 0x24818, symSize: 0x24 }
  - { offset: 0x6FFBD, size: 0x8, addend: 0x0, symName: '__ZN4pyo35impl_10trampoline22fastcall_with_keywords28_$u7b$$u7b$closure$u7d$$u7d$17he4668992da443a8dE', symObjAddr: 0x800, symBinAddr: 0x2483C, symSize: 0x48 }
  - { offset: 0x70084, size: 0x8, addend: 0x0, symName: __ZN4pyo35impl_10trampoline33panic_result_into_callback_output17h77f132777e5c45d5E, symObjAddr: 0x848, symBinAddr: 0x24884, symSize: 0x118 }
  - { offset: 0x7014D, size: 0x8, addend: 0x0, symName: '__ZN4pyo35impl_10trampoline6noargs28_$u7b$$u7b$closure$u7d$$u7d$17h64fda13a6b77e48bE', symObjAddr: 0x960, symBinAddr: 0x2499C, symSize: 0x34 }
  - { offset: 0x701CA, size: 0x8, addend: 0x0, symName: '__ZN4pyo35impl_10trampoline7lenfunc28_$u7b$$u7b$closure$u7d$$u7d$17ha6be59ba0f2613f9E', symObjAddr: 0x994, symBinAddr: 0x249D0, symSize: 0x34 }
  - { offset: 0x70247, size: 0x8, addend: 0x0, symName: '__ZN4pyo35impl_10trampoline8reprfunc28_$u7b$$u7b$closure$u7d$$u7d$17h0f53738dfb7b7429E', symObjAddr: 0x9C8, symBinAddr: 0x24A04, symSize: 0x34 }
  - { offset: 0x70EB1, size: 0x8, addend: 0x0, symName: __ZN4pyo33err5PyErr10from_state17hdb30be1894eebc66E, symObjAddr: 0x0, symBinAddr: 0x24A38, symSize: 0x30 }
  - { offset: 0x71738, size: 0x8, addend: 0x0, symName: __ZN4pyo33err5PyErr10from_state17hdb30be1894eebc66E, symObjAddr: 0x0, symBinAddr: 0x24A38, symSize: 0x30 }
  - { offset: 0x71794, size: 0x8, addend: 0x0, symName: __ZN4pyo33err5PyErr7restore17h216cda9ed320bf2cE, symObjAddr: 0x30, symBinAddr: 0x24A68, symSize: 0x38 }
  - { offset: 0x717F1, size: 0x8, addend: 0x0, symName: '__ZN5alloc3vec13in_place_drop20InPlaceDrop$LT$T$GT$3len17h57b20e0b313bd5fbE', symObjAddr: 0x0, symBinAddr: 0x24AA0, symSize: 0x84 }
  - { offset: 0x71AAC, size: 0x8, addend: 0x0, symName: '__ZN5alloc3vec13in_place_drop20InPlaceDrop$LT$T$GT$3len17h57b20e0b313bd5fbE', symObjAddr: 0x0, symBinAddr: 0x24AA0, symSize: 0x84 }
  - { offset: 0x71B6F, size: 0x8, addend: 0x0, symName: '__ZN111_$LT$T$u20$as$u20$pyo3..impl_..callback..IntoPyCallbackOutput$LT$$BP$mut$u20$pyo3_ffi..object..PyObject$GT$$GT$7convert17h5a40f6e25cde131aE', symObjAddr: 0x0, symBinAddr: 0x24B24, symSize: 0x44 }
  - { offset: 0x71C26, size: 0x8, addend: 0x0, symName: __ZN4core3cmp10PartialOrd2lt17h561e43be5ec74209E, symObjAddr: 0x44, symBinAddr: 0x24B68, symSize: 0x70 }
  - { offset: 0x71FA5, size: 0x8, addend: 0x0, symName: '__ZN4core5slice29_$LT$impl$u20$$u5b$T$u5d$$GT$12split_at_mut17hc9a9720c4006debbE', symObjAddr: 0xB4, symBinAddr: 0x24BD8, symSize: 0xAC }
  - { offset: 0x72030, size: 0x8, addend: 0x0, symName: '__ZN4core5slice29_$LT$impl$u20$$u5b$T$u5d$$GT$22split_at_mut_unchecked17hecda67839ab627dcE', symObjAddr: 0x160, symBinAddr: 0x24C84, symSize: 0xF8 }
  - { offset: 0x72190, size: 0x8, addend: 0x0, symName: '__ZN4core5slice29_$LT$impl$u20$$u5b$T$u5d$$GT$7reverse17h7957e26d02320a7eE', symObjAddr: 0x258, symBinAddr: 0x24D7C, symSize: 0xFC }
  - { offset: 0x72397, size: 0x8, addend: 0x0, symName: '__ZN68_$LT$T$u20$as$u20$core..slice..sort..stable..quicksort..IsFreeze$GT$9is_freeze17h3f1df174583a87b8E', symObjAddr: 0x4F8, symBinAddr: 0x2501C, symSize: 0xC }
  - { offset: 0x72AF4, size: 0x8, addend: 0x0, symName: '__ZN111_$LT$T$u20$as$u20$pyo3..impl_..callback..IntoPyCallbackOutput$LT$$BP$mut$u20$pyo3_ffi..object..PyObject$GT$$GT$7convert17h5a40f6e25cde131aE', symObjAddr: 0x0, symBinAddr: 0x24B24, symSize: 0x44 }
  - { offset: 0x72B6B, size: 0x8, addend: 0x0, symName: __ZN4pyo310conversion12IntoPyObject28owned_sequence_into_pyobject17h840c0d06f8889febE, symObjAddr: 0x354, symBinAddr: 0x24E78, symSize: 0xDC }
  - { offset: 0x72C21, size: 0x8, addend: 0x0, symName: __ZN4pyo310conversion15IntoPyObjectExt22into_pyobject_or_pyerr17h37e71938cc8b9afaE, symObjAddr: 0x430, symBinAddr: 0x24F54, symSize: 0x48 }
  - { offset: 0x72C91, size: 0x8, addend: 0x0, symName: __ZN4pyo310conversion15IntoPyObjectExt22into_pyobject_or_pyerr17h97da060d4c6fa886E, symObjAddr: 0x478, symBinAddr: 0x24F9C, symSize: 0x58 }
  - { offset: 0x732BC, size: 0x8, addend: 0x0, symName: '__ZN5alloc5slice29_$LT$impl$u20$$u5b$T$u5d$$GT$4sort17hd2be89b761f0d71dE', symObjAddr: 0x4D0, symBinAddr: 0x24FF4, symSize: 0x28 }
  - { offset: 0x73640, size: 0x8, addend: 0x0, symName: __ZN4pyo35impl_16extract_argument16extract_argument17h1ce4a496e6cdc546E, symObjAddr: 0x0, symBinAddr: 0x25028, symSize: 0x138 }
  - { offset: 0x749ED, size: 0x8, addend: 0x0, symName: __ZN4pyo35impl_16extract_argument16extract_argument17h1ce4a496e6cdc546E, symObjAddr: 0x0, symBinAddr: 0x25028, symSize: 0x138 }
  - { offset: 0x74A72, size: 0x8, addend: 0x0, symName: __ZN4pyo35impl_16extract_argument16extract_argument17heee9d758168c522cE, symObjAddr: 0x138, symBinAddr: 0x25160, symSize: 0x150 }
  - { offset: 0x74AF7, size: 0x8, addend: 0x0, symName: __ZN4pyo35impl_16extract_argument16extract_argument17hff3766febb183260E, symObjAddr: 0x288, symBinAddr: 0x252B0, symSize: 0x144 }
  - { offset: 0x74C86, size: 0x8, addend: 0x0, symName: '__ZN4pyo35impl_16extract_argument19FunctionDescription26extract_arguments_fastcall28_$u7b$$u7b$closure$u7d$$u7d$17h9998a8560eace2a7E', symObjAddr: 0x1110, symBinAddr: 0x26138, symSize: 0x24 }
  - { offset: 0x74CDE, size: 0x8, addend: 0x0, symName: '__ZN4pyo35impl_16extract_argument19FunctionDescription36find_keyword_parameter_in_positional28_$u7b$$u7b$closure$u7d$$u7d$17h75b0dfe1aaac2550E', symObjAddr: 0x1134, symBinAddr: 0x2615C, symSize: 0x48 }
  - { offset: 0x74D3E, size: 0x8, addend: 0x0, symName: '__ZN4pyo35impl_16extract_argument19FunctionDescription38find_keyword_parameter_in_keyword_only28_$u7b$$u7b$closure$u7d$$u7d$17h6568088eb8e337d7E', symObjAddr: 0x117C, symBinAddr: 0x261A4, symSize: 0x38 }
  - { offset: 0x74D80, size: 0x8, addend: 0x0, symName: __ZN4pyo35impl_16extract_argument19extract_pyclass_ref17h8313c3f808f0bbb2E, symObjAddr: 0x11B4, symBinAddr: 0x261DC, symSize: 0xC8 }
  - { offset: 0x74DE8, size: 0x8, addend: 0x0, symName: '__ZN71_$LT$T$u20$as$u20$pyo3..impl_..extract_argument..PyFunctionArgument$GT$7extract17h55e041658ae23506E', symObjAddr: 0x127C, symBinAddr: 0x262A4, symSize: 0x28 }
  - { offset: 0x74E27, size: 0x8, addend: 0x0, symName: '__ZN71_$LT$T$u20$as$u20$pyo3..impl_..extract_argument..PyFunctionArgument$GT$7extract17h824cdc71c9fa27cbE', symObjAddr: 0x12A4, symBinAddr: 0x262CC, symSize: 0x28 }
  - { offset: 0x75762, size: 0x8, addend: 0x0, symName: __ZN4pyo35impl_16extract_argument19FunctionDescription13handle_kwargs17hbfb9d4544f6a6c40E, symObjAddr: 0x3CC, symBinAddr: 0x253F4, symSize: 0x70C }
  - { offset: 0x7599B, size: 0x8, addend: 0x0, symName: __ZN4pyo35impl_16extract_argument19FunctionDescription26extract_arguments_fastcall17h30e7d1fd1bd7fc74E, symObjAddr: 0xAD8, symBinAddr: 0x25B00, symSize: 0x638 }
  - { offset: 0x76613, size: 0x8, addend: 0x0, symName: '__ZN4pyo310conversion12IntoPyObject28owned_sequence_into_pyobject28_$u7b$$u7b$closure$u7d$$u7d$17h51d816031e5c5b1fE', symObjAddr: 0x0, symBinAddr: 0x262F4, symSize: 0x34 }
  - { offset: 0x7669B, size: 0x8, addend: 0x0, symName: '__ZN4pyo310conversion12IntoPyObject28owned_sequence_into_pyobject28_$u7b$$u7b$closure$u7d$$u7d$17h51d816031e5c5b1fE', symObjAddr: 0x0, symBinAddr: 0x262F4, symSize: 0x34 }
  - { offset: 0x7670D, size: 0x8, addend: 0x0, symName: __ZN4pyo310conversion15IntoPyObjectExt22into_pyobject_or_pyerr17h4841602ea1cd437fE, symObjAddr: 0x34, symBinAddr: 0x26328, symSize: 0x44 }
  - { offset: 0x7677D, size: 0x8, addend: 0x0, symName: __ZN4pyo310conversion15IntoPyObjectExt22into_pyobject_or_pyerr17hc4738eaf4f464d1eE, symObjAddr: 0x78, symBinAddr: 0x2636C, symSize: 0x44 }
  - { offset: 0x767ED, size: 0x8, addend: 0x0, symName: __ZN4pyo310conversion15IntoPyObjectExt22into_pyobject_or_pyerr17hc851ba7fa475bba7E, symObjAddr: 0xBC, symBinAddr: 0x263B0, symSize: 0xCC }
  - { offset: 0x777C5, size: 0x8, addend: 0x0, symName: __ZN4core9core_arch10arm_shared4neon9generated18vreinterpret_s8_u817hdf9f354040b877d1E, symObjAddr: 0x0, symBinAddr: 0x2647C, symSize: 0xC }
  - { offset: 0x777EB, size: 0x8, addend: 0x0, symName: __ZN4core9core_arch10arm_shared4neon9generated18vreinterpret_s8_u817hdf9f354040b877d1E, symObjAddr: 0x0, symBinAddr: 0x2647C, symSize: 0xC }
  - { offset: 0x77819, size: 0x8, addend: 0x0, symName: __ZN4core9core_arch10arm_shared4neon9generated19vreinterpret_u64_u817hae84e635be3d7e86E, symObjAddr: 0xC, symBinAddr: 0x26488, symSize: 0xC }
  - { offset: 0x77847, size: 0x8, addend: 0x0, symName: __ZN4core9core_arch10arm_shared4neon9generated7vceq_u817h90a6419f5c941e40E, symObjAddr: 0x18, symBinAddr: 0x26494, symSize: 0x14 }
  - { offset: 0x77884, size: 0x8, addend: 0x0, symName: __ZN4core9core_arch10arm_shared4neon9generated7vorr_u817hd7f62671c3b48f8bE, symObjAddr: 0x2C, symBinAddr: 0x264A8, symSize: 0x14 }
  - { offset: 0x778C1, size: 0x8, addend: 0x0, symName: __ZN4core9core_arch10arm_shared4neon9generated9vdup_n_u817h9ad7dcd4ca3de155E, symObjAddr: 0x40, symBinAddr: 0x264BC, symSize: 0x2C }
  - { offset: 0x77A2F, size: 0x8, addend: 0x0, symName: '__ZN113_$LT$std..collections..hash..map..IntoIter$LT$K$C$V$C$A$GT$$u20$as$u20$core..iter..traits..iterator..Iterator$GT$4next17h6e1ae2bbdfe55f24E', symObjAddr: 0x0, symBinAddr: 0x264E8, symSize: 0x20 }
  - { offset: 0x78930, size: 0x8, addend: 0x0, symName: '__ZN113_$LT$std..collections..hash..map..IntoIter$LT$K$C$V$C$A$GT$$u20$as$u20$core..iter..traits..iterator..Iterator$GT$4next17h6e1ae2bbdfe55f24E', symObjAddr: 0x0, symBinAddr: 0x264E8, symSize: 0x20 }
  - { offset: 0x7899C, size: 0x8, addend: 0x0, symName: '__ZN119_$LT$std..collections..hash..map..HashMap$LT$K$C$V$C$S$C$A$GT$$u20$as$u20$core..iter..traits..collect..IntoIterator$GT$9into_iter17heb2b340e8e8fc2c0E', symObjAddr: 0x20, symBinAddr: 0x26508, symSize: 0x58 }
  - { offset: 0x78D18, size: 0x8, addend: 0x0, symName: '__ZN3std11collections4hash3map20HashMap$LT$K$C$V$GT$3new17hc1e473f26e399b57E', symObjAddr: 0x78, symBinAddr: 0x26560, symSize: 0x7C }
  - { offset: 0x78DD4, size: 0x8, addend: 0x0, symName: '__ZN3std11collections4hash3map28HashMap$LT$K$C$V$C$S$C$A$GT$6insert17ha425d81a9474381eE', symObjAddr: 0xF4, symBinAddr: 0x265DC, symSize: 0x24 }
  - { offset: 0x78E4A, size: 0x8, addend: 0x0, symName: __ZN4pyo310conversion15IntoPyObjectExt17into_bound_py_any17h5f45bd76473862adE, symObjAddr: 0x118, symBinAddr: 0x26600, symSize: 0xE4 }
  - { offset: 0x78EF3, size: 0x8, addend: 0x0, symName: '__ZN4pyo311conversions3std3map114_$LT$impl$u20$pyo3..conversion..IntoPyObject$u20$for$u20$std..collections..hash..map..HashMap$LT$K$C$V$C$H$GT$$GT$13into_pyobject17hb827d9f8908a4d63E', symObjAddr: 0x1FC, symBinAddr: 0x266E4, symSize: 0x24C }
  - { offset: 0x7944A, size: 0x8, addend: 0x0, symName: __ZN5numpy7convert9ToNpyDims11as_dims_ptr17h174f7a0692addd05E, symObjAddr: 0x0, symBinAddr: 0x26930, symSize: 0x30 }
  - { offset: 0x79466, size: 0x8, addend: 0x0, symName: __ZN5numpy7convert9ToNpyDims11as_dims_ptr17h174f7a0692addd05E, symObjAddr: 0x0, symBinAddr: 0x26930, symSize: 0x30 }
  - { offset: 0x7949D, size: 0x8, addend: 0x0, symName: __ZN5numpy7convert9ToNpyDims11as_dims_ptr17h21a7bdd5a12a0f6cE, symObjAddr: 0x30, symBinAddr: 0x26960, symSize: 0x30 }
  - { offset: 0x794D4, size: 0x8, addend: 0x0, symName: __ZN5numpy7convert9ToNpyDims9ndim_cint17h5367d9b08ea5723fE, symObjAddr: 0x60, symBinAddr: 0x26990, symSize: 0x24 }
  - { offset: 0x7950B, size: 0x8, addend: 0x0, symName: __ZN5numpy7convert9ToNpyDims9ndim_cint17h7088c413ac8dd282E, symObjAddr: 0x84, symBinAddr: 0x269B4, symSize: 0x24 }
  - { offset: 0x79559, size: 0x8, addend: 0x0, symName: '__ZN76_$LT$ndarray..dimension..dim..Dim$LT$I$GT$$u20$as$u20$core..clone..Clone$GT$5clone17hba6e53e4c9f67882E', symObjAddr: 0xA8, symBinAddr: 0x269D8, symSize: 0x3C }
  - { offset: 0x7958E, size: 0x8, addend: 0x0, symName: '__ZN76_$LT$ndarray..dimension..dim..Dim$LT$I$GT$$u20$as$u20$core..clone..Clone$GT$5clone17hff73396ee7152650E', symObjAddr: 0xE4, symBinAddr: 0x26A14, symSize: 0x38 }
  - { offset: 0x7965A, size: 0x8, addend: 0x0, symName: '__ZN7ndarray9dimension3dim12Dim$LT$I$GT$3new17h983affd4a17f7b41E', symObjAddr: 0x11C, symBinAddr: 0x26A4C, symSize: 0x24 }
  - { offset: 0x79692, size: 0x8, addend: 0x0, symName: '__ZN7ndarray9dimension3dim12Dim$LT$I$GT$3new17hefaa8ee8916531f7E', symObjAddr: 0x140, symBinAddr: 0x26A70, symSize: 0xC }
  - { offset: 0x7972A, size: 0x8, addend: 0x0, symName: '__ZN142_$LT$$RF$serde_json..map..Map$LT$alloc..string..String$C$serde_json..value..Value$GT$$u20$as$u20$core..iter..traits..collect..IntoIterator$GT$9into_iter17he725c6aab34f3f57E', symObjAddr: 0x0, symBinAddr: 0x26A7C, symSize: 0x44 }
  - { offset: 0x79746, size: 0x8, addend: 0x0, symName: '__ZN142_$LT$$RF$serde_json..map..Map$LT$alloc..string..String$C$serde_json..value..Value$GT$$u20$as$u20$core..iter..traits..collect..IntoIterator$GT$9into_iter17he725c6aab34f3f57E', symObjAddr: 0x0, symBinAddr: 0x26A7C, symSize: 0x44 }
  - { offset: 0x7977A, size: 0x8, addend: 0x0, symName: '__ZN80_$LT$serde_json..map..Iter$u20$as$u20$core..iter..traits..iterator..Iterator$GT$4next17haf03e6e53e8603cdE', symObjAddr: 0x44, symBinAddr: 0x26AC0, symSize: 0x24 }
  - { offset: 0x7A464, size: 0x8, addend: 0x0, symName: '__ZN4core3ptr7mut_ptr31_$LT$impl$u20$$BP$mut$u20$T$GT$7is_null17h266d7b7ffbff7ddfE', symObjAddr: 0x0, symBinAddr: 0x26AE4, symSize: 0x18 }
  - { offset: 0x7A61A, size: 0x8, addend: 0x0, symName: '__ZN4core3ptr7mut_ptr31_$LT$impl$u20$$BP$mut$u20$T$GT$7is_null17h266d7b7ffbff7ddfE', symObjAddr: 0x0, symBinAddr: 0x26AE4, symSize: 0x18 }
  - { offset: 0x7A679, size: 0x8, addend: 0x0, symName: '__ZN4core3ptr7mut_ptr31_$LT$impl$u20$$BP$mut$u20$T$GT$7is_null17h283d905221218833E', symObjAddr: 0x18, symBinAddr: 0x26AFC, symSize: 0x18 }
  - { offset: 0x7A6D8, size: 0x8, addend: 0x0, symName: '__ZN4core3ptr7mut_ptr31_$LT$impl$u20$$BP$mut$u20$T$GT$7is_null17h51f65b7c4c77c2a7E', symObjAddr: 0x30, symBinAddr: 0x26B14, symSize: 0x18 }
  - { offset: 0x7A737, size: 0x8, addend: 0x0, symName: '__ZN4core3ptr7mut_ptr31_$LT$impl$u20$$BP$mut$u20$T$GT$7is_null17h532c1411133ec589E', symObjAddr: 0x48, symBinAddr: 0x26B2C, symSize: 0x18 }
  - { offset: 0x7A796, size: 0x8, addend: 0x0, symName: '__ZN4core3ptr7mut_ptr31_$LT$impl$u20$$BP$mut$u20$T$GT$7is_null17h91d3934ace199007E', symObjAddr: 0x60, symBinAddr: 0x26B44, symSize: 0x18 }
  - { offset: 0x7A7F5, size: 0x8, addend: 0x0, symName: '__ZN4core3ptr7mut_ptr31_$LT$impl$u20$$BP$mut$u20$T$GT$7is_null17hafcce04173d64798E', symObjAddr: 0x78, symBinAddr: 0x26B5C, symSize: 0x18 }
  - { offset: 0x7A854, size: 0x8, addend: 0x0, symName: '__ZN4core3ptr7mut_ptr31_$LT$impl$u20$$BP$mut$u20$T$GT$7is_null17hc95e48cd79528d74E', symObjAddr: 0x90, symBinAddr: 0x26B74, symSize: 0x18 }
  - { offset: 0x7A8B3, size: 0x8, addend: 0x0, symName: '__ZN4core3ptr7mut_ptr31_$LT$impl$u20$$BP$mut$u20$T$GT$7is_null17he6ed8b185223d9c9E', symObjAddr: 0xA8, symBinAddr: 0x26B8C, symSize: 0x18 }
  - { offset: 0x7A912, size: 0x8, addend: 0x0, symName: '__ZN4core3ptr7mut_ptr31_$LT$impl$u20$$BP$mut$u20$T$GT$7is_null17hf56b2d8ed3889fdeE', symObjAddr: 0xC0, symBinAddr: 0x26BA4, symSize: 0x18 }
  - { offset: 0x7AA4E, size: 0x8, addend: 0x0, symName: '__ZN45_$LT$T$u20$as$u20$alloc..string..ToString$GT$9to_string17h6a7fb3493b60e793E', symObjAddr: 0x0, symBinAddr: 0x26BBC, symSize: 0x24 }
  - { offset: 0x7AA9D, size: 0x8, addend: 0x0, symName: '__ZN45_$LT$T$u20$as$u20$alloc..string..ToString$GT$9to_string17h6a7fb3493b60e793E', symObjAddr: 0x0, symBinAddr: 0x26BBC, symSize: 0x24 }
  - { offset: 0x7AADA, size: 0x8, addend: 0x0, symName: '__ZN49_$LT$T$u20$as$u20$alloc..string..SpecToString$GT$14spec_to_string17ha2c604c589d3fc8aE', symObjAddr: 0x24, symBinAddr: 0x26BE0, symSize: 0xF4 }
  - { offset: 0x7AEBE, size: 0x8, addend: 0x0, symName: __ZN4pyo35impl_5panic9PanicTrap3new17ha200438424f359b3E, symObjAddr: 0x0, symBinAddr: 0x26CD4, symSize: 0x18 }
  - { offset: 0x7AF4D, size: 0x8, addend: 0x0, symName: __ZN4pyo35impl_5panic9PanicTrap3new17ha200438424f359b3E, symObjAddr: 0x0, symBinAddr: 0x26CD4, symSize: 0x18 }
  - { offset: 0x7AF6F, size: 0x8, addend: 0x0, symName: __ZN4pyo35impl_5panic9PanicTrap6disarm17h6ab0decb1c6142d6E, symObjAddr: 0x18, symBinAddr: 0x26CEC, symSize: 0x28 }
  - { offset: 0x7AFAF, size: 0x8, addend: 0x0, symName: '__ZN50_$LT$T$u20$as$u20$core..convert..Into$LT$U$GT$$GT$4into17hfa06be513ea0ba1eE', symObjAddr: 0x0, symBinAddr: 0x26D14, symSize: 0x24 }
  - { offset: 0x7AFCB, size: 0x8, addend: 0x0, symName: '__ZN50_$LT$T$u20$as$u20$core..convert..Into$LT$U$GT$$GT$4into17hfa06be513ea0ba1eE', symObjAddr: 0x0, symBinAddr: 0x26D14, symSize: 0x24 }
  - { offset: 0x7B14E, size: 0x8, addend: 0x0, symName: '__ZN129_$LT$ndarray..dimension..dim..Dim$LT$$u5b$usize$u3b$$u20$1$u5d$$GT$$u20$as$u20$ndarray..dimension..dimension_trait..Dimension$GT$4ndim17h395dcc867abd27e5E', symObjAddr: 0x0, symBinAddr: 0x26D38, symSize: 0x18 }
  - { offset: 0x7B16F, size: 0x8, addend: 0x0, symName: '__ZN129_$LT$ndarray..dimension..dim..Dim$LT$$u5b$usize$u3b$$u20$1$u5d$$GT$$u20$as$u20$ndarray..dimension..dimension_trait..Dimension$GT$4ndim17h395dcc867abd27e5E', symObjAddr: 0x0, symBinAddr: 0x26D38, symSize: 0x18 }
  - { offset: 0x7B19D, size: 0x8, addend: 0x0, symName: '__ZN129_$LT$ndarray..dimension..dim..Dim$LT$$u5b$usize$u3b$$u20$1$u5d$$GT$$u20$as$u20$ndarray..dimension..dimension_trait..Dimension$GT$5slice17hff6874109c141ba0E', symObjAddr: 0x18, symBinAddr: 0x26D50, symSize: 0x24 }
  - { offset: 0x7B1CB, size: 0x8, addend: 0x0, symName: '__ZN129_$LT$ndarray..dimension..dim..Dim$LT$$u5b$usize$u3b$$u20$1$u5d$$GT$$u20$as$u20$ndarray..dimension..dimension_trait..Dimension$GT$9slice_mut17hc6ef741b6cf75d57E', symObjAddr: 0x3C, symBinAddr: 0x26D74, symSize: 0x24 }
  - { offset: 0x7B1FF, size: 0x8, addend: 0x0, symName: '__ZN129_$LT$ndarray..dimension..dim..Dim$LT$$u5b$usize$u3b$$u20$2$u5d$$GT$$u20$as$u20$ndarray..dimension..dimension_trait..Dimension$GT$15default_strides17hd63d351dcd95e848E', symObjAddr: 0x60, symBinAddr: 0x26D98, symSize: 0xA4 }
  - { offset: 0x7B2B6, size: 0x8, addend: 0x0, symName: '__ZN129_$LT$ndarray..dimension..dim..Dim$LT$$u5b$usize$u3b$$u20$2$u5d$$GT$$u20$as$u20$ndarray..dimension..dimension_trait..Dimension$GT$15fortran_strides17he55e7debd251ce8fE', symObjAddr: 0x104, symBinAddr: 0x26E3C, symSize: 0xA8 }
  - { offset: 0x7B36D, size: 0x8, addend: 0x0, symName: '__ZN129_$LT$ndarray..dimension..dim..Dim$LT$$u5b$usize$u3b$$u20$2$u5d$$GT$$u20$as$u20$ndarray..dimension..dimension_trait..Dimension$GT$29_fastest_varying_stride_order17h5ebe16d45dd38408E', symObjAddr: 0x1AC, symBinAddr: 0x26EE4, symSize: 0xB0 }
  - { offset: 0x7B3E7, size: 0x8, addend: 0x0, symName: '__ZN129_$LT$ndarray..dimension..dim..Dim$LT$$u5b$usize$u3b$$u20$2$u5d$$GT$$u20$as$u20$ndarray..dimension..dimension_trait..Dimension$GT$4ndim17h04b04363b3d0af93E', symObjAddr: 0x25C, symBinAddr: 0x26F94, symSize: 0x18 }
  - { offset: 0x7B415, size: 0x8, addend: 0x0, symName: '__ZN129_$LT$ndarray..dimension..dim..Dim$LT$$u5b$usize$u3b$$u20$2$u5d$$GT$$u20$as$u20$ndarray..dimension..dimension_trait..Dimension$GT$4size17hc4dd8894b507cb29E', symObjAddr: 0x274, symBinAddr: 0x26FAC, symSize: 0x5C }
  - { offset: 0x7B443, size: 0x8, addend: 0x0, symName: '__ZN129_$LT$ndarray..dimension..dim..Dim$LT$$u5b$usize$u3b$$u20$2$u5d$$GT$$u20$as$u20$ndarray..dimension..dimension_trait..Dimension$GT$5slice17h0a5e05bb419dfd7aE', symObjAddr: 0x2D0, symBinAddr: 0x27008, symSize: 0x24 }
  - { offset: 0x7B471, size: 0x8, addend: 0x0, symName: '__ZN129_$LT$ndarray..dimension..dim..Dim$LT$$u5b$usize$u3b$$u20$2$u5d$$GT$$u20$as$u20$ndarray..dimension..dimension_trait..Dimension$GT$9slice_mut17ha55644d32c312b15E', symObjAddr: 0x2F4, symBinAddr: 0x2702C, symSize: 0x24 }
  - { offset: 0x7B5D1, size: 0x8, addend: 0x0, symName: __ZN5alloc5slice11stable_sort17h955f9629d85d5042E, symObjAddr: 0x0, symBinAddr: 0x27050, symSize: 0xC4 }
  - { offset: 0x7B84C, size: 0x8, addend: 0x0, symName: __ZN5alloc5slice11stable_sort17h955f9629d85d5042E, symObjAddr: 0x0, symBinAddr: 0x27050, symSize: 0xC4 }
  - { offset: 0x7B9A1, size: 0x8, addend: 0x0, symName: __ZN4core4hint16assert_unchecked18precondition_check17h4d32ec80338634abE, symObjAddr: 0x0, symBinAddr: 0x27114, symSize: 0x58 }
  - { offset: 0x7B9BD, size: 0x8, addend: 0x0, symName: __ZN4core4hint16assert_unchecked18precondition_check17h4d32ec80338634abE, symObjAddr: 0x0, symBinAddr: 0x27114, symSize: 0x58 }
  - { offset: 0x7BA08, size: 0x8, addend: 0x0, symName: __ZN4core4hint21unreachable_unchecked18precondition_check17hf2109d424feebcf5E, symObjAddr: 0x58, symBinAddr: 0x2716C, symSize: 0x3C }
  - { offset: 0x7BA9C, size: 0x8, addend: 0x0, symName: '__ZN105_$LT$std..ffi..os_str..OsString$u20$as$u20$core..ops..index..Index$LT$core..ops..range..RangeFull$GT$$GT$5index17h66ced99c370d8218E', symObjAddr: 0x0, symBinAddr: 0x271A8, symSize: 0x20 }
  - { offset: 0x7BE32, size: 0x8, addend: 0x0, symName: '__ZN105_$LT$std..ffi..os_str..OsString$u20$as$u20$core..ops..index..Index$LT$core..ops..range..RangeFull$GT$$GT$5index17h66ced99c370d8218E', symObjAddr: 0x0, symBinAddr: 0x271A8, symSize: 0x20 }
  - { offset: 0x7BFA7, size: 0x8, addend: 0x0, symName: __ZN4core5slice3raw14from_raw_parts17h7389ed5cb8163e2dE, symObjAddr: 0x0, symBinAddr: 0x271C8, symSize: 0x58 }
  - { offset: 0x7C02A, size: 0x8, addend: 0x0, symName: __ZN4core5slice3raw14from_raw_parts17h7389ed5cb8163e2dE, symObjAddr: 0x0, symBinAddr: 0x271C8, symSize: 0x58 }
  - { offset: 0x7C06D, size: 0x8, addend: 0x0, symName: __ZN4core5slice3raw14from_raw_parts17h96b6eed2eb9299a8E, symObjAddr: 0x58, symBinAddr: 0x27220, symSize: 0x58 }
  - { offset: 0x7C0B0, size: 0x8, addend: 0x0, symName: __ZN4core5slice3raw14from_raw_parts17ha53c4bf85baeb70cE, symObjAddr: 0xB0, symBinAddr: 0x27278, symSize: 0x58 }
  - { offset: 0x7C466, size: 0x8, addend: 0x0, symName: '__ZN4core3ptr8non_null16NonNull$LT$T$GT$13new_unchecked18precondition_check17hfcf55b41351c1cc2E', symObjAddr: 0x0, symBinAddr: 0x272D0, symSize: 0x58 }
  - { offset: 0x7C48C, size: 0x8, addend: 0x0, symName: '__ZN4core3ptr8non_null16NonNull$LT$T$GT$13new_unchecked18precondition_check17hfcf55b41351c1cc2E', symObjAddr: 0x0, symBinAddr: 0x272D0, symSize: 0x58 }
  - { offset: 0x7C53D, size: 0x8, addend: 0x0, symName: __ZN4pyo310conversion15IntoPyObjectExt17into_bound_py_any17hf376e07c29b7b3eaE, symObjAddr: 0x0, symBinAddr: 0x27328, symSize: 0xE4 }
  - { offset: 0x7C5F9, size: 0x8, addend: 0x0, symName: '__ZN50_$LT$T$u20$as$u20$core..convert..Into$LT$U$GT$$GT$4into17hd818326f247cbfc0E', symObjAddr: 0x144, symBinAddr: 0x2746C, symSize: 0x14 }
  - { offset: 0x7E4A1, size: 0x8, addend: 0x0, symName: __ZN4pyo310conversion15IntoPyObjectExt17into_bound_py_any17hf376e07c29b7b3eaE, symObjAddr: 0x0, symBinAddr: 0x27328, symSize: 0xE4 }
  - { offset: 0x7E540, size: 0x8, addend: 0x0, symName: __ZN4pyo311type_object10PyTypeInfo10is_type_of17he61dd9da6446ef54E, symObjAddr: 0xE4, symBinAddr: 0x2740C, symSize: 0x50 }
  - { offset: 0x7E57B, size: 0x8, addend: 0x0, symName: '__ZN52_$LT$T$u20$as$u20$pyo3..type_object..PyTypeCheck$GT$10type_check17h643149e337808002E', symObjAddr: 0x158, symBinAddr: 0x27480, symSize: 0x24 }
  - { offset: 0x7E5C1, size: 0x8, addend: 0x0, symName: __ZN4pyo35impl_7pyclass11PyClassImpl11dict_offset17he437158f598413a6E, symObjAddr: 0x134, symBinAddr: 0x2745C, symSize: 0x8 }
  - { offset: 0x7E5E8, size: 0x8, addend: 0x0, symName: __ZN4pyo35impl_7pyclass11PyClassImpl15weaklist_offset17h8d37547c8e4ba80fE, symObjAddr: 0x13C, symBinAddr: 0x27464, symSize: 0x8 }
  - { offset: 0x7F0AE, size: 0x8, addend: 0x0, symName: __ZN5_core16array2_from_rows17h3729694e658da3d0E, symObjAddr: 0x17C, symBinAddr: 0x274A4, symSize: 0x1BC }
  - { offset: 0x7F191, size: 0x8, addend: 0x0, symName: __ZN5_core16array2_from_rows17h88c4c7289d56f837E, symObjAddr: 0x338, symBinAddr: 0x27660, symSize: 0x1BC }
  - { offset: 0x7F279, size: 0x8, addend: 0x0, symName: '__ZN5_core16array2_from_rows28_$u7b$$u7b$closure$u7d$$u7d$17h4280281c717bf346E', symObjAddr: 0x4F4, symBinAddr: 0x2781C, symSize: 0x40 }
  - { offset: 0x7F2BB, size: 0x8, addend: 0x0, symName: '__ZN5_core16array2_from_rows28_$u7b$$u7b$closure$u7d$$u7d$17h94f56008f621fff3E', symObjAddr: 0x534, symBinAddr: 0x2785C, symSize: 0x40 }
  - { offset: 0x7F30C, size: 0x8, addend: 0x0, symName: __ZN5_core16data_array_typed17h1262a35923ddc7b7E, symObjAddr: 0x574, symBinAddr: 0x2789C, symSize: 0x240 }
  - { offset: 0x7F3F7, size: 0x8, addend: 0x0, symName: __ZN5_core16data_array_typed17h28fb7b0b591fc181E, symObjAddr: 0x7B4, symBinAddr: 0x27ADC, symSize: 0x240 }
  - { offset: 0x7F4E2, size: 0x8, addend: 0x0, symName: __ZN5_core16data_array_typed17h2a8302ae747aa61dE, symObjAddr: 0x9F4, symBinAddr: 0x27D1C, symSize: 0x240 }
  - { offset: 0x7F5CD, size: 0x8, addend: 0x0, symName: __ZN5_core16data_array_typed17h3a2eb6500080c792E, symObjAddr: 0xC34, symBinAddr: 0x27F5C, symSize: 0x240 }
  - { offset: 0x7F6B8, size: 0x8, addend: 0x0, symName: __ZN5_core16data_array_typed17h69e3139d5567f81dE, symObjAddr: 0xE74, symBinAddr: 0x2819C, symSize: 0x240 }
  - { offset: 0x7F7A3, size: 0x8, addend: 0x0, symName: __ZN5_core16data_array_typed17h777293fc9fc0d22fE, symObjAddr: 0x10B4, symBinAddr: 0x283DC, symSize: 0x240 }
  - { offset: 0x7F88E, size: 0x8, addend: 0x0, symName: __ZN5_core16data_array_typed17h89558e946dba3c26E, symObjAddr: 0x12F4, symBinAddr: 0x2861C, symSize: 0x240 }
  - { offset: 0x7F979, size: 0x8, addend: 0x0, symName: __ZN5_core16data_array_typed17h9bafea9e18fe47ddE, symObjAddr: 0x1534, symBinAddr: 0x2885C, symSize: 0x240 }
  - { offset: 0x7FA64, size: 0x8, addend: 0x0, symName: __ZN5_core16data_array_typed17ha27940a4be3b8a4cE, symObjAddr: 0x1774, symBinAddr: 0x28A9C, symSize: 0x240 }
  - { offset: 0x7FB4F, size: 0x8, addend: 0x0, symName: __ZN5_core16data_array_typed17hb4fca99649e3cd96E, symObjAddr: 0x19B4, symBinAddr: 0x28CDC, symSize: 0x240 }
  - { offset: 0x7FC3F, size: 0x8, addend: 0x0, symName: '__ZN5_core16data_array_typed28_$u7b$$u7b$closure$u7d$$u7d$17h111be9f262a229cbE', symObjAddr: 0x1BF4, symBinAddr: 0x28F1C, symSize: 0x40 }
  - { offset: 0x7FC81, size: 0x8, addend: 0x0, symName: '__ZN5_core16data_array_typed28_$u7b$$u7b$closure$u7d$$u7d$17h25f03c12dc12f2e9E', symObjAddr: 0x1C34, symBinAddr: 0x28F5C, symSize: 0x40 }
  - { offset: 0x7FCC3, size: 0x8, addend: 0x0, symName: '__ZN5_core16data_array_typed28_$u7b$$u7b$closure$u7d$$u7d$17h2be6a1f3bd452ea4E', symObjAddr: 0x1C74, symBinAddr: 0x28F9C, symSize: 0x40 }
  - { offset: 0x7FD05, size: 0x8, addend: 0x0, symName: '__ZN5_core16data_array_typed28_$u7b$$u7b$closure$u7d$$u7d$17h4373bac49acd2e27E', symObjAddr: 0x1CB4, symBinAddr: 0x28FDC, symSize: 0x40 }
  - { offset: 0x7FD47, size: 0x8, addend: 0x0, symName: '__ZN5_core16data_array_typed28_$u7b$$u7b$closure$u7d$$u7d$17h72df24115c7abe69E', symObjAddr: 0x1CF4, symBinAddr: 0x2901C, symSize: 0x40 }
  - { offset: 0x7FD89, size: 0x8, addend: 0x0, symName: '__ZN5_core16data_array_typed28_$u7b$$u7b$closure$u7d$$u7d$17h8763d68cb4b3de50E', symObjAddr: 0x1D34, symBinAddr: 0x2905C, symSize: 0x40 }
  - { offset: 0x7FDCB, size: 0x8, addend: 0x0, symName: '__ZN5_core16data_array_typed28_$u7b$$u7b$closure$u7d$$u7d$17h955fc442b931f0d1E', symObjAddr: 0x1D74, symBinAddr: 0x2909C, symSize: 0x40 }
  - { offset: 0x7FE0D, size: 0x8, addend: 0x0, symName: '__ZN5_core16data_array_typed28_$u7b$$u7b$closure$u7d$$u7d$17hd6df938b39b98ac0E', symObjAddr: 0x1DB4, symBinAddr: 0x290DC, symSize: 0x40 }
  - { offset: 0x7FE4F, size: 0x8, addend: 0x0, symName: '__ZN5_core16data_array_typed28_$u7b$$u7b$closure$u7d$$u7d$17he357ece0ee6df231E', symObjAddr: 0x1DF4, symBinAddr: 0x2911C, symSize: 0x40 }
  - { offset: 0x7FE91, size: 0x8, addend: 0x0, symName: '__ZN5_core16data_array_typed28_$u7b$$u7b$closure$u7d$$u7d$17he644c8933fdfae4bE', symObjAddr: 0x1E34, symBinAddr: 0x2915C, symSize: 0x40 }
  - { offset: 0x7FF1F, size: 0x8, addend: 0x0, symName: '__ZN5_core16without_sentinel28_$u7b$$u7b$closure$u7d$$u7d$17h9886928ef6f36772E', symObjAddr: 0x1E74, symBinAddr: 0x2919C, symSize: 0x20 }
  - { offset: 0x7FF5C, size: 0x8, addend: 0x0, symName: __ZN5_core17array1_from_slice17h22d0b9d2a99f166fE, symObjAddr: 0x1E94, symBinAddr: 0x291BC, symSize: 0xC4 }
  - { offset: 0x7FFDE, size: 0x8, addend: 0x0, symName: __ZN5_core17array1_from_slice17h2bfe5cfb14e8b087E, symObjAddr: 0x1F58, symBinAddr: 0x29280, symSize: 0xC4 }
  - { offset: 0x80060, size: 0x8, addend: 0x0, symName: __ZN5_core17array1_from_slice17h358cb4fa5a44abedE, symObjAddr: 0x201C, symBinAddr: 0x29344, symSize: 0xC4 }
  - { offset: 0x800E2, size: 0x8, addend: 0x0, symName: __ZN5_core17array1_from_slice17h36fee4869d6a5451E, symObjAddr: 0x20E0, symBinAddr: 0x29408, symSize: 0xC4 }
  - { offset: 0x80164, size: 0x8, addend: 0x0, symName: __ZN5_core17array1_from_slice17h44cbb8948f6a1a4cE, symObjAddr: 0x21A4, symBinAddr: 0x294CC, symSize: 0xC4 }
  - { offset: 0x801E6, size: 0x8, addend: 0x0, symName: __ZN5_core17array1_from_slice17h4933f479b04f3047E, symObjAddr: 0x2268, symBinAddr: 0x29590, symSize: 0xC4 }
  - { offset: 0x80268, size: 0x8, addend: 0x0, symName: __ZN5_core17array1_from_slice17h4d0e1dff66375175E, symObjAddr: 0x232C, symBinAddr: 0x29654, symSize: 0xC4 }
  - { offset: 0x802EA, size: 0x8, addend: 0x0, symName: __ZN5_core17array1_from_slice17h65e8d33d7384b7fbE, symObjAddr: 0x23F0, symBinAddr: 0x29718, symSize: 0xC4 }
  - { offset: 0x8036C, size: 0x8, addend: 0x0, symName: __ZN5_core17array1_from_slice17hb6e1d1cafcb154c8E, symObjAddr: 0x24B4, symBinAddr: 0x297DC, symSize: 0xC4 }
  - { offset: 0x803EE, size: 0x8, addend: 0x0, symName: __ZN5_core17array1_from_slice17hca7864f6cfc2cf93E, symObjAddr: 0x2578, symBinAddr: 0x298A0, symSize: 0xC4 }
  - { offset: 0x80475, size: 0x8, addend: 0x0, symName: '__ZN5_core21array2_f16_from_words28_$u7b$$u7b$closure$u7d$$u7d$17hb500bfb6c14f9a3fE', symObjAddr: 0x263C, symBinAddr: 0x29964, symSize: 0x40 }
  - { offset: 0x804C0, size: 0x8, addend: 0x0, symName: '__ZN5_core9PyTrxFile10group_keys28_$u7b$$u7b$closure$u7d$$u7d$17hd44773c585b94a20E', symObjAddr: 0x267C, symBinAddr: 0x299A4, symSize: 0x38 }
  - { offset: 0x80500, size: 0x8, addend: 0x0, symName: '__ZN5_core9PyTrxFile8dpg_keys28_$u7b$$u7b$closure$u7d$$u7d$17he1d2c6b1d9bd4b8bE', symObjAddr: 0x28C4, symBinAddr: 0x29BEC, symSize: 0x24 }
  - { offset: 0x8053F, size: 0x8, addend: 0x0, symName: '__ZN5_core9PyTrxFile8dps_keys28_$u7b$$u7b$closure$u7d$$u7d$17h8f3b0fbd78206b4bE', symObjAddr: 0x28E8, symBinAddr: 0x29C10, symSize: 0x24 }
  - { offset: 0x8057E, size: 0x8, addend: 0x0, symName: '__ZN5_core9PyTrxFile8dpv_keys28_$u7b$$u7b$closure$u7d$$u7d$17h4663f5d860705b85E', symObjAddr: 0x290C, symBinAddr: 0x29C34, symSize: 0x24 }
  - { offset: 0x805C3, size: 0x8, addend: 0x0, symName: '__ZN5_core9PyTrxFile20__pymethod_get_dpg__28_$u7b$$u7b$closure$u7d$$u7d$17h4bb6b2277344d700E', symObjAddr: 0x26B4, symBinAddr: 0x299DC, symSize: 0x30 }
  - { offset: 0x80606, size: 0x8, addend: 0x0, symName: '__ZN5_core9PyTrxFile20__pymethod_get_dps__28_$u7b$$u7b$closure$u7d$$u7d$17h9ef190660df09760E', symObjAddr: 0x26E4, symBinAddr: 0x29A0C, symSize: 0x30 }
  - { offset: 0x80649, size: 0x8, addend: 0x0, symName: '__ZN5_core9PyTrxFile20__pymethod_get_dpv__28_$u7b$$u7b$closure$u7d$$u7d$17hf5032ebb5494f615E', symObjAddr: 0x2714, symBinAddr: 0x29A3C, symSize: 0x30 }
  - { offset: 0x8068C, size: 0x8, addend: 0x0, symName: '__ZN5_core9PyTrxFile20__pymethod_offsets__28_$u7b$$u7b$closure$u7d$$u7d$17h518fcb35824ae9c4E', symObjAddr: 0x2744, symBinAddr: 0x29A6C, symSize: 0x30 }
  - { offset: 0x806CF, size: 0x8, addend: 0x0, symName: '__ZN5_core9PyTrxFile22__pymethod_get_group__28_$u7b$$u7b$closure$u7d$$u7d$17h6ac0cfb9e49a0b39E', symObjAddr: 0x2774, symBinAddr: 0x29A9C, symSize: 0x30 }
  - { offset: 0x80712, size: 0x8, addend: 0x0, symName: '__ZN5_core9PyTrxFile22__pymethod_positions__28_$u7b$$u7b$closure$u7d$$u7d$17h5da4a3840b9bbac3E', symObjAddr: 0x27A4, symBinAddr: 0x29ACC, symSize: 0x30 }
  - { offset: 0x80755, size: 0x8, addend: 0x0, symName: '__ZN5_core9PyTrxFile23__pymethod_get_groups__28_$u7b$$u7b$closure$u7d$$u7d$17h439b10c931babbbcE', symObjAddr: 0x27D4, symBinAddr: 0x29AFC, symSize: 0x30 }
  - { offset: 0x80798, size: 0x8, addend: 0x0, symName: '__ZN5_core9PyTrxFile23__pymethod_streamline__28_$u7b$$u7b$closure$u7d$$u7d$17hfebe0687c98bde62E', symObjAddr: 0x2804, symBinAddr: 0x29B2C, symSize: 0x30 }
  - { offset: 0x807DB, size: 0x8, addend: 0x0, symName: '__ZN5_core9PyTrxFile31__pymethod_get_data_per_group__28_$u7b$$u7b$closure$u7d$$u7d$17h85f167b5f7c81e01E', symObjAddr: 0x2834, symBinAddr: 0x29B5C, symSize: 0x30 }
  - { offset: 0x8081E, size: 0x8, addend: 0x0, symName: '__ZN5_core9PyTrxFile32__pymethod_get_data_per_vertex__28_$u7b$$u7b$closure$u7d$$u7d$17h52ab33c45a913489E', symObjAddr: 0x2864, symBinAddr: 0x29B8C, symSize: 0x30 }
  - { offset: 0x80861, size: 0x8, addend: 0x0, symName: '__ZN5_core9PyTrxFile36__pymethod_get_data_per_streamline__28_$u7b$$u7b$closure$u7d$$u7d$17h7aefcc5a449ad44dE', symObjAddr: 0x2894, symBinAddr: 0x29BBC, symSize: 0x30 }
  - { offset: 0x808AA, size: 0x8, addend: 0x0, symName: '__ZN70_$LT$_core..PyTrxFile$u20$as$u20$pyo3..impl_..pyclass..PyClassImpl$GT$3doc28_$u7b$$u7b$closure$u7d$$u7d$17h79108ab0cd60ca45E', symObjAddr: 0x2930, symBinAddr: 0x29C58, symSize: 0x58 }
  - { offset: 0x81F0F, size: 0x8, addend: 0x0, symName: '__ZN5alloc7raw_vec19RawVec$LT$T$C$A$GT$8grow_one17hb0d0cd53b3d75fd3E', symObjAddr: 0x0, symBinAddr: 0x29CB0, symSize: 0x88 }
  - { offset: 0x8247D, size: 0x8, addend: 0x0, symName: '__ZN5alloc7raw_vec19RawVec$LT$T$C$A$GT$8grow_one17hb0d0cd53b3d75fd3E', symObjAddr: 0x0, symBinAddr: 0x29CB0, symSize: 0x88 }
  - { offset: 0x82506, size: 0x8, addend: 0x0, symName: '__ZN100_$LT$core..iter..adapters..take..Take$LT$I$GT$$u20$as$u20$core..iter..traits..iterator..Iterator$GT$8try_fold17h6c31bc6813211decE', symObjAddr: 0x0, symBinAddr: 0x29D38, symSize: 0x100 }
  - { offset: 0x82BBA, size: 0x8, addend: 0x0, symName: '__ZN100_$LT$core..iter..adapters..take..Take$LT$I$GT$$u20$as$u20$core..iter..traits..iterator..Iterator$GT$8try_fold17h6c31bc6813211decE', symObjAddr: 0x0, symBinAddr: 0x29D38, symSize: 0x100 }
  - { offset: 0x82C7C, size: 0x8, addend: 0x0, symName: '__ZN100_$LT$core..iter..adapters..take..Take$LT$I$GT$$u20$as$u20$core..iter..traits..iterator..Iterator$GT$8try_fold5check28_$u7b$$u7b$closure$u7d$$u7d$17h7c2b2d3006a95795E', symObjAddr: 0x100, symBinAddr: 0x29E38, symSize: 0x138 }
  - { offset: 0x83629, size: 0x8, addend: 0x0, symName: '__ZN111_$LT$T$u20$as$u20$pyo3..impl_..callback..IntoPyCallbackOutput$LT$$BP$mut$u20$pyo3_ffi..object..PyObject$GT$$GT$7convert17h05c1d2623e72b51dE', symObjAddr: 0x0, symBinAddr: 0x29F70, symSize: 0x30 }
  - { offset: 0x836B1, size: 0x8, addend: 0x0, symName: '__ZN111_$LT$T$u20$as$u20$pyo3..impl_..callback..IntoPyCallbackOutput$LT$$BP$mut$u20$pyo3_ffi..object..PyObject$GT$$GT$7convert17h05c1d2623e72b51dE', symObjAddr: 0x0, symBinAddr: 0x29F70, symSize: 0x30 }
  - { offset: 0x836FF, size: 0x8, addend: 0x0, symName: '__ZN111_$LT$T$u20$as$u20$pyo3..impl_..callback..IntoPyCallbackOutput$LT$$BP$mut$u20$pyo3_ffi..object..PyObject$GT$$GT$7convert17hf1df55e2388fe09aE', symObjAddr: 0x30, symBinAddr: 0x29FA0, symSize: 0x38 }
  - { offset: 0x8374E, size: 0x8, addend: 0x0, symName: __ZN4pyo35impl_8callback7convert17h0f93c0f714ad1b31E, symObjAddr: 0x68, symBinAddr: 0x29FD8, symSize: 0x20 }
  - { offset: 0x837A5, size: 0x8, addend: 0x0, symName: __ZN4pyo35impl_8callback7convert17h97d148d342799f35E, symObjAddr: 0x88, symBinAddr: 0x29FF8, symSize: 0x40 }
  - { offset: 0x837FD, size: 0x8, addend: 0x0, symName: __ZN4pyo35impl_8callback7convert17hbc435acc1c1aad44E, symObjAddr: 0xC8, symBinAddr: 0x2A038, symSize: 0x28 }
  - { offset: 0x83854, size: 0x8, addend: 0x0, symName: __ZN4pyo35impl_8callback7convert17he89d3622a16a0a89E, symObjAddr: 0xF0, symBinAddr: 0x2A060, symSize: 0x20 }
  - { offset: 0x838AB, size: 0x8, addend: 0x0, symName: __ZN4pyo35impl_8callback7convert17hf20538a6ceaf19afE, symObjAddr: 0x110, symBinAddr: 0x2A080, symSize: 0x34 }
  - { offset: 0x8390D, size: 0x8, addend: 0x0, symName: '__ZN82_$LT$usize$u20$as$u20$pyo3..impl_..callback..IntoPyCallbackOutput$LT$isize$GT$$GT$7convert28_$u7b$$u7b$closure$u7d$$u7d$17h7ad8ea09ef61d7a4E', symObjAddr: 0x144, symBinAddr: 0x2A0B4, symSize: 0x1C }
  - { offset: 0x84587, size: 0x8, addend: 0x0, symName: __ZN4core3fmt9Arguments3new17h74db20dc40aeae91E, symObjAddr: 0x0, symBinAddr: 0x2A0D0, symSize: 0x1C }
  - { offset: 0x848EA, size: 0x8, addend: 0x0, symName: __ZN4core3fmt9Arguments3new17h74db20dc40aeae91E, symObjAddr: 0x0, symBinAddr: 0x2A0D0, symSize: 0x1C }
  - { offset: 0x84950, size: 0x8, addend: 0x0, symName: __ZN4core3fmt9Arguments3new17h79bfd1154e42ff73E, symObjAddr: 0x1C, symBinAddr: 0x2A0EC, symSize: 0x1C }
  - { offset: 0x849A0, size: 0x8, addend: 0x0, symName: '__ZN4core3ptr9const_ptr33_$LT$impl$u20$$BP$const$u20$T$GT$7is_null17hec0c308c673ad409E', symObjAddr: 0x0, symBinAddr: 0x2A108, symSize: 0x18 }
  - { offset: 0x84A5D, size: 0x8, addend: 0x0, symName: '__ZN4core3ptr9const_ptr33_$LT$impl$u20$$BP$const$u20$T$GT$7is_null17hec0c308c673ad409E', symObjAddr: 0x0, symBinAddr: 0x2A108, symSize: 0x18 }
  - { offset: 0x84BD1, size: 0x8, addend: 0x0, symName: '__ZN4core5slice29_$LT$impl$u20$$u5b$T$u5d$$GT$15copy_from_slice17hdb04b30b25ac41b7E', symObjAddr: 0x18, symBinAddr: 0x2A120, symSize: 0x34 }
  - { offset: 0x84C3A, size: 0x8, addend: 0x0, symName: '__ZN4core5slice29_$LT$impl$u20$$u5b$T$u5d$$GT$18split_at_unchecked17h7d99941ee67a36abE', symObjAddr: 0x4C, symBinAddr: 0x2A154, symSize: 0xE8 }
  - { offset: 0x84D7F, size: 0x8, addend: 0x0, symName: '__ZN4core5slice29_$LT$impl$u20$$u5b$T$u5d$$GT$8split_at17hdeb4253abcb225b2E', symObjAddr: 0x134, symBinAddr: 0x2A23C, symSize: 0xAC }
  - { offset: 0x878F4, size: 0x8, addend: 0x0, symName: '__ZN4core6option15Option$LT$T$GT$10ok_or_else17h14ab6123a60c48a2E', symObjAddr: 0x1E0, symBinAddr: 0x2A2E8, symSize: 0x7C }
  - { offset: 0x8795F, size: 0x8, addend: 0x0, symName: '__ZN4core6option15Option$LT$T$GT$10ok_or_else17h43b157b4141ef316E', symObjAddr: 0x25C, symBinAddr: 0x2A364, symSize: 0x88 }
  - { offset: 0x879CA, size: 0x8, addend: 0x0, symName: '__ZN4core6option15Option$LT$T$GT$10ok_or_else17h48fcadfd28e33790E', symObjAddr: 0x2E4, symBinAddr: 0x2A3EC, symSize: 0x88 }
  - { offset: 0x87A35, size: 0x8, addend: 0x0, symName: '__ZN4core6option15Option$LT$T$GT$10ok_or_else17h9bc411f2e2ac2342E', symObjAddr: 0x36C, symBinAddr: 0x2A474, symSize: 0x7C }
  - { offset: 0x87AA0, size: 0x8, addend: 0x0, symName: '__ZN4core6option15Option$LT$T$GT$10ok_or_else17h9d177ab52e52be94E', symObjAddr: 0x3E8, symBinAddr: 0x2A4F0, symSize: 0x88 }
  - { offset: 0x87D0D, size: 0x8, addend: 0x0, symName: '__ZN4core6option15Option$LT$T$GT$10ok_or_else17h9fa90604292905a3E', symObjAddr: 0x470, symBinAddr: 0x2A578, symSize: 0x7C }
  - { offset: 0x87D78, size: 0x8, addend: 0x0, symName: '__ZN4core6option15Option$LT$T$GT$10ok_or_else17ha1aae4843caebda2E', symObjAddr: 0x4EC, symBinAddr: 0x2A5F4, symSize: 0x60 }
  - { offset: 0x87DE3, size: 0x8, addend: 0x0, symName: '__ZN4core6option15Option$LT$T$GT$10ok_or_else17ha525b412dd044c23E', symObjAddr: 0x54C, symBinAddr: 0x2A654, symSize: 0x7C }
  - { offset: 0x87E4E, size: 0x8, addend: 0x0, symName: '__ZN4core6option15Option$LT$T$GT$10ok_or_else17hb77367834bd5d5dcE', symObjAddr: 0x5C8, symBinAddr: 0x2A6D0, symSize: 0x7C }
  - { offset: 0x87EB9, size: 0x8, addend: 0x0, symName: '__ZN4core6option15Option$LT$T$GT$10ok_or_else17hbb5950ad35684f4bE', symObjAddr: 0x644, symBinAddr: 0x2A74C, symSize: 0x60 }
  - { offset: 0x87F24, size: 0x8, addend: 0x0, symName: '__ZN4core6option15Option$LT$T$GT$10ok_or_else17hf195004944cdd500E', symObjAddr: 0x6A4, symBinAddr: 0x2A7AC, symSize: 0x7C }
  - { offset: 0x87F8F, size: 0x8, addend: 0x0, symName: '__ZN4core6option15Option$LT$T$GT$10ok_or_else17hf60e4c72416e29d9E', symObjAddr: 0x720, symBinAddr: 0x2A828, symSize: 0x60 }
  - { offset: 0x88007, size: 0x8, addend: 0x0, symName: '__ZN4core6option15Option$LT$T$GT$3map17hfbb4a0f0d368e452E', symObjAddr: 0x780, symBinAddr: 0x2A888, symSize: 0x50 }
  - { offset: 0x88296, size: 0x8, addend: 0x0, symName: '__ZN4core6option15Option$LT$T$GT$6insert17h19e28678fea915b0E', symObjAddr: 0x7D0, symBinAddr: 0x2A8D8, symSize: 0xA8 }
  - { offset: 0x8837E, size: 0x8, addend: 0x0, symName: '__ZN4core6option15Option$LT$T$GT$6map_or17hd99c37b884c4253dE', symObjAddr: 0x878, symBinAddr: 0x2A980, symSize: 0xDC }
  - { offset: 0x884D5, size: 0x8, addend: 0x0, symName: '__ZN4core6option15Option$LT$T$GT$7is_none17h9672b5c67f402821E', symObjAddr: 0x954, symBinAddr: 0x2AA5C, symSize: 0x28 }
  - { offset: 0x8852C, size: 0x8, addend: 0x0, symName: '__ZN4core6option15Option$LT$T$GT$7is_some17hcaaf7e53036db761E', symObjAddr: 0x97C, symBinAddr: 0x2AA84, symSize: 0x28 }
  - { offset: 0x88565, size: 0x8, addend: 0x0, symName: '__ZN4core6option15Option$LT$T$GT$7replace17h5b749738f396a5c0E', symObjAddr: 0x9A4, symBinAddr: 0x2AAAC, symSize: 0x28 }
  - { offset: 0x885FA, size: 0x8, addend: 0x0, symName: __ZN5_core11group_numpy17h67ef87e556e42092E, symObjAddr: 0x0, symBinAddr: 0x2AAD4, symSize: 0x518 }
  - { offset: 0x8AD2C, size: 0x8, addend: 0x0, symName: '__ZN5_core152_$LT$impl$u20$pyo3..impl_..pyclass..PyMethods$LT$_core..PyTrxFile$GT$$u20$for$u20$pyo3..impl_..pyclass..PyClassImplCollector$LT$_core..PyTrxFile$GT$$GT$10py_methods5ITEMS17h4b767dc1f6662a0aE', symObjAddr: 0xAB38, symBinAddr: 0x1E1710, symSize: 0x0 }
  - { offset: 0x8AD3E, size: 0x8, addend: 0x0, symName: '__ZN5_core152_$LT$impl$u20$pyo3..impl_..pyclass..PyMethods$LT$_core..PyTrxFile$GT$$u20$for$u20$pyo3..impl_..pyclass..PyClassImplCollector$LT$_core..PyTrxFile$GT$$GT$10py_methods5ITEMS10trampoline17h2550e3622165708aE', symObjAddr: 0xAE8, symBinAddr: 0x2B5BC, symSize: 0x44 }
  - { offset: 0x8AD78, size: 0x8, addend: 0x0, symName: '__ZN5_core152_$LT$impl$u20$pyo3..impl_..pyclass..PyMethods$LT$_core..PyTrxFile$GT$$u20$for$u20$pyo3..impl_..pyclass..PyClassImplCollector$LT$_core..PyTrxFile$GT$$GT$10py_methods5ITEMS10trampoline17h38178e981ed07c74E', symObjAddr: 0xB2C, symBinAddr: 0x2B600, symSize: 0x44 }
  - { offset: 0x8ADB2, size: 0x8, addend: 0x0, symName: '__ZN5_core152_$LT$impl$u20$pyo3..impl_..pyclass..PyMethods$LT$_core..PyTrxFile$GT$$u20$for$u20$pyo3..impl_..pyclass..PyClassImplCollector$LT$_core..PyTrxFile$GT$$GT$10py_methods5ITEMS10trampoline17h3b9a3fefc5135d00E', symObjAddr: 0xB70, symBinAddr: 0x2B644, symSize: 0x44 }
  - { offset: 0x8ADEC, size: 0x8, addend: 0x0, symName: '__ZN5_core152_$LT$impl$u20$pyo3..impl_..pyclass..PyMethods$LT$_core..PyTrxFile$GT$$u20$for$u20$pyo3..impl_..pyclass..PyClassImplCollector$LT$_core..PyTrxFile$GT$$GT$10py_methods5ITEMS10trampoline17h3c668a3278776363E', symObjAddr: 0xBB4, symBinAddr: 0x2B688, symSize: 0x50 }
  - { offset: 0x8AE42, size: 0x8, addend: 0x0, symName: '__ZN5_core152_$LT$impl$u20$pyo3..impl_..pyclass..PyMethods$LT$_core..PyTrxFile$GT$$u20$for$u20$pyo3..impl_..pyclass..PyClassImplCollector$LT$_core..PyTrxFile$GT$$GT$10py_methods5ITEMS10trampoline17h4ce1d63065ec2f42E', symObjAddr: 0xC04, symBinAddr: 0x2B6D8, symSize: 0x50 }
  - { offset: 0x8AE98, size: 0x8, addend: 0x0, symName: '__ZN5_core152_$LT$impl$u20$pyo3..impl_..pyclass..PyMethods$LT$_core..PyTrxFile$GT$$u20$for$u20$pyo3..impl_..pyclass..PyClassImplCollector$LT$_core..PyTrxFile$GT$$GT$10py_methods5ITEMS10trampoline17h5efc44d49aa3dc70E', symObjAddr: 0xC54, symBinAddr: 0x2B728, symSize: 0x44 }
  - { offset: 0x8AED2, size: 0x8, addend: 0x0, symName: '__ZN5_core152_$LT$impl$u20$pyo3..impl_..pyclass..PyMethods$LT$_core..PyTrxFile$GT$$u20$for$u20$pyo3..impl_..pyclass..PyClassImplCollector$LT$_core..PyTrxFile$GT$$GT$10py_methods5ITEMS10trampoline17h91e34dd4e6656256E', symObjAddr: 0xC98, symBinAddr: 0x2B76C, symSize: 0x44 }
  - { offset: 0x8AF0C, size: 0x8, addend: 0x0, symName: '__ZN5_core152_$LT$impl$u20$pyo3..impl_..pyclass..PyMethods$LT$_core..PyTrxFile$GT$$u20$for$u20$pyo3..impl_..pyclass..PyClassImplCollector$LT$_core..PyTrxFile$GT$$GT$10py_methods5ITEMS10trampoline17hae049ee8bf3af626E', symObjAddr: 0xCDC, symBinAddr: 0x2B7B0, symSize: 0x3C }
  - { offset: 0x8AF38, size: 0x8, addend: 0x0, symName: '__ZN5_core152_$LT$impl$u20$pyo3..impl_..pyclass..PyMethods$LT$_core..PyTrxFile$GT$$u20$for$u20$pyo3..impl_..pyclass..PyClassImplCollector$LT$_core..PyTrxFile$GT$$GT$10py_methods5ITEMS10trampoline17hd6413ebcecdcb4b0E', symObjAddr: 0xD18, symBinAddr: 0x2B7EC, symSize: 0x3C }
  - { offset: 0x8AF64, size: 0x8, addend: 0x0, symName: '__ZN5_core152_$LT$impl$u20$pyo3..impl_..pyclass..PyMethods$LT$_core..PyTrxFile$GT$$u20$for$u20$pyo3..impl_..pyclass..PyClassImplCollector$LT$_core..PyTrxFile$GT$$GT$10py_methods5ITEMS10trampoline17hed4c21a7022711c7E', symObjAddr: 0xD54, symBinAddr: 0x2B828, symSize: 0x50 }
  - { offset: 0x8AFBA, size: 0x8, addend: 0x0, symName: '__ZN5_core152_$LT$impl$u20$pyo3..impl_..pyclass..PyMethods$LT$_core..PyTrxFile$GT$$u20$for$u20$pyo3..impl_..pyclass..PyClassImplCollector$LT$_core..PyTrxFile$GT$$GT$10py_methods5ITEMS10trampoline17hed8d1b98e60eb6b7E', symObjAddr: 0xDA4, symBinAddr: 0x2B878, symSize: 0x50 }
  - { offset: 0x8B010, size: 0x8, addend: 0x0, symName: '__ZN5_core152_$LT$impl$u20$pyo3..impl_..pyclass..PyMethods$LT$_core..PyTrxFile$GT$$u20$for$u20$pyo3..impl_..pyclass..PyClassImplCollector$LT$_core..PyTrxFile$GT$$GT$10py_methods5ITEMS10trampoline17hf3e0fa1310ef848dE', symObjAddr: 0xDF4, symBinAddr: 0x2B8C8, symSize: 0x50 }
  - { offset: 0x8B066, size: 0x8, addend: 0x0, symName: '__ZN5_core152_$LT$impl$u20$pyo3..impl_..pyclass..PyMethods$LT$_core..PyTrxFile$GT$$u20$for$u20$pyo3..impl_..pyclass..PyClassImplCollector$LT$_core..PyTrxFile$GT$$GT$10py_methods5ITEMS10trampoline17hfe10656ad42c296dE', symObjAddr: 0xE44, symBinAddr: 0x2B918, symSize: 0x44 }
  - { offset: 0x8B0BA, size: 0x8, addend: 0x0, symName: '__ZN70_$LT$_core..PyTrxFile$u20$as$u20$pyo3..impl_..pyclass..PyClassImpl$GT$10items_iter15INTRINSIC_ITEMS17h8f88709926b88ec0E', symObjAddr: 0xA588, symBinAddr: 0x149908, symSize: 0x0 }
  - { offset: 0x8B0DA, size: 0x8, addend: 0x0, symName: '__ZN70_$LT$_core..PyTrxFile$u20$as$u20$pyo3..impl_..pyclass..PyClassImpl$GT$16lazy_type_object11TYPE_OBJECT17h3bf230b61d238191E', symObjAddr: 0xB6A0, symBinAddr: 0x1F0510, symSize: 0x0 }
  - { offset: 0x8B0FA, size: 0x8, addend: 0x0, symName: '__ZN70_$LT$_core..PyTrxFile$u20$as$u20$pyo3..impl_..pyclass..PyClassImpl$GT$3doc3DOC17h382b6f4438e9e714E', symObjAddr: 0xB6F8, symBinAddr: 0x1F0568, symSize: 0x0 }
  - { offset: 0x8B108, size: 0x8, addend: 0x0, symName: '__ZN70_$LT$_core..PyTrxFile$u20$as$u20$pyo3..impl_..pyclass..PyClassImpl$GT$10items_iter17h9ba855707fb7dbc9E', symObjAddr: 0x92CC, symBinAddr: 0x33DA0, symSize: 0x38 }
  - { offset: 0x8B143, size: 0x8, addend: 0x0, symName: '__ZN70_$LT$_core..PyTrxFile$u20$as$u20$pyo3..impl_..pyclass..PyClassImpl$GT$16lazy_type_object17hbfcf847a83ad187eE', symObjAddr: 0x9304, symBinAddr: 0x33DD8, symSize: 0xC }
  - { offset: 0x8B160, size: 0x8, addend: 0x0, symName: '__ZN70_$LT$_core..PyTrxFile$u20$as$u20$pyo3..impl_..pyclass..PyClassImpl$GT$3doc17h131008229f1ceeddE', symObjAddr: 0x9310, symBinAddr: 0x33DE4, symSize: 0x3C }
  - { offset: 0x8B60B, size: 0x8, addend: 0x0, symName: __ZN5_core11group_numpy17h67ef87e556e42092E, symObjAddr: 0x0, symBinAddr: 0x2AAD4, symSize: 0x518 }
  - { offset: 0x8B71A, size: 0x8, addend: 0x0, symName: __ZN5_core12freeze_array17h8855951a41bb9466E, symObjAddr: 0x518, symBinAddr: 0x2AFEC, symSize: 0x1E8 }
  - { offset: 0x8B7B5, size: 0x8, addend: 0x0, symName: __ZN5_core13map_trx_error17hd702285b774124d0E, symObjAddr: 0x700, symBinAddr: 0x2B1D4, symSize: 0x25C }
  - { offset: 0x8B824, size: 0x8, addend: 0x0, symName: __ZN5_core14data_array_f1617hd9e3a533748951daE, symObjAddr: 0x95C, symBinAddr: 0x2B430, symSize: 0x18C }
  - { offset: 0x8B887, size: 0x8, addend: 0x0, symName: __ZN5_core16header_to_pydict17hd328f063401a2e07E, symObjAddr: 0xE88, symBinAddr: 0x2B95C, symSize: 0x69C }
  - { offset: 0x8BA5A, size: 0x8, addend: 0x0, symName: __ZN5_core16json_value_to_py17h5b6bdc55aef034acE, symObjAddr: 0x1524, symBinAddr: 0x2BFF8, symSize: 0x6C8 }
  - { offset: 0x8BC6D, size: 0x8, addend: 0x0, symName: __ZN5_core16map_lookup_error17h250c86223d4eb3f8E, symObjAddr: 0x1BEC, symBinAddr: 0x2C6C0, symSize: 0x128 }
  - { offset: 0x8BCC4, size: 0x8, addend: 0x0, symName: __ZN5_core16without_sentinel17h22e14aafd9bd284cE, symObjAddr: 0x1D14, symBinAddr: 0x2C7E8, symSize: 0x48 }
  - { offset: 0x8BCF2, size: 0x8, addend: 0x0, symName: __ZN5_core17__pyfunction_load17h201d1c31a520f7b9E, symObjAddr: 0x1D5C, symBinAddr: 0x2C830, symSize: 0x32C }
  - { offset: 0x8BE6B, size: 0x8, addend: 0x0, symName: __ZN5_core18reinterpret_as_f1617h5ea0bf3be7774af2E, symObjAddr: 0x2088, symBinAddr: 0x2CB5C, symSize: 0x160 }
  - { offset: 0x8BEF5, size: 0x8, addend: 0x0, symName: __ZN5_core19data_array_to_numpy17h39ab10ab91396b52E, symObjAddr: 0x21E8, symBinAddr: 0x2CCBC, symSize: 0x218 }
  - { offset: 0x8BF41, size: 0x8, addend: 0x0, symName: __ZN5_core20array2_from_rows_f1617hb703a435d3c529d2E, symObjAddr: 0x2400, symBinAddr: 0x2CED4, symSize: 0x104 }
  - { offset: 0x8BF94, size: 0x8, addend: 0x0, symName: __ZN5_core21array1_f16_from_words17h04f40456a8c0d598E, symObjAddr: 0x2504, symBinAddr: 0x2CFD8, symSize: 0x114 }
  - { offset: 0x8C02F, size: 0x8, addend: 0x0, symName: __ZN5_core21array2_f16_from_words17hab1c0f318d8bccdbE, symObjAddr: 0x2618, symBinAddr: 0x2D0EC, symSize: 0x1A4 }
  - { offset: 0x8C114, size: 0x8, addend: 0x0, symName: '__ZN5_core38_$LT$impl$u20$_core..load..MakeDef$GT$9_PYO3_DEF10trampoline17ha6fab181c712a59cE', symObjAddr: 0x27BC, symBinAddr: 0x2D290, symSize: 0x50 }
  - { offset: 0x8C176, size: 0x8, addend: 0x0, symName: '__ZN5_core39_$LT$impl$u20$_core.._core..MakeDef$GT$8make_def15__pyo3_pymodule17h18c2bc3625785663E', symObjAddr: 0x280C, symBinAddr: 0x2D2E0, symSize: 0x38 }
  - { offset: 0x8C1A4, size: 0x8, addend: 0x0, symName: __ZN5_core4load17hadf2d64f9baf15ceE, symObjAddr: 0x2844, symBinAddr: 0x2D318, symSize: 0x154 }
  - { offset: 0x8C1EF, size: 0x8, addend: 0x0, symName: __ZN5_core5_core17h4f3ea1001e0887f1E, symObjAddr: 0x2998, symBinAddr: 0x2D46C, symSize: 0x1A4 }
  - { offset: 0x8C276, size: 0x8, addend: 0x0, symName: __ZN5_core9dpg_numpy17hbf1b6b2f940ca2d6E, symObjAddr: 0x82F0, symBinAddr: 0x32DC4, symSize: 0x540 }
  - { offset: 0x8C395, size: 0x8, addend: 0x0, symName: __ZN5_core9dps_numpy17h21122ade6f7e0408E, symObjAddr: 0x8830, symBinAddr: 0x33304, symSize: 0x518 }
  - { offset: 0x8C4A4, size: 0x8, addend: 0x0, symName: __ZN5_core9dpv_numpy17hefe79d629d044932E, symObjAddr: 0x8D48, symBinAddr: 0x3381C, symSize: 0x518 }
  - { offset: 0x8C5B8, size: 0x8, addend: 0x0, symName: '__ZN66_$LT$_core..PyTrxFile$u20$as$u20$pyo3..type_object..PyTypeInfo$GT$15type_object_raw17hcd4d006b03f09132E', symObjAddr: 0x9260, symBinAddr: 0x33D34, symSize: 0x24 }
  - { offset: 0x8C5F5, size: 0x8, addend: 0x0, symName: '__ZN67_$LT$_core..PyTrxFile$u20$as$u20$pyo3..conversion..IntoPyObject$GT$13into_pyobject17hf9d6c634eda3e923E', symObjAddr: 0x9284, symBinAddr: 0x33D58, symSize: 0x48 }
  - { offset: 0x8E718, size: 0x8, addend: 0x0, symName: __ZN5_core9PyTrxFile10group_keys17h588ba531fe2cb8acE, symObjAddr: 0x2B3C, symBinAddr: 0x2D610, symSize: 0xC0 }
  - { offset: 0x8E74F, size: 0x8, addend: 0x0, symName: __ZN5_core9PyTrxFile10streamline17hf774a778b46a2bb4E, symObjAddr: 0x2BFC, symBinAddr: 0x2D6D0, symSize: 0x404 }
  - { offset: 0x8E853, size: 0x8, addend: 0x0, symName: __ZN5_core9PyTrxFile11nb_vertices17h45bec8c4c16d92f1E, symObjAddr: 0x3000, symBinAddr: 0x2DAD4, symSize: 0x24 }
  - { offset: 0x8E875, size: 0x8, addend: 0x0, symName: __ZN5_core9PyTrxFile14data_per_group17h73fd1341eaf0b979E, symObjAddr: 0x3024, symBinAddr: 0x2DAF8, symSize: 0x788 }
  - { offset: 0x8E9D3, size: 0x8, addend: 0x0, symName: __ZN5_core9PyTrxFile14nb_streamlines17ha7c5489c443909e9E, symObjAddr: 0x37AC, symBinAddr: 0x2E280, symSize: 0x24 }
  - { offset: 0x8E9F5, size: 0x8, addend: 0x0, symName: __ZN5_core9PyTrxFile15data_per_vertex17h70f84fee145235dcE, symObjAddr: 0x37D0, symBinAddr: 0x2E2A4, symSize: 0x494 }
  - { offset: 0x8EAEB, size: 0x8, addend: 0x0, symName: __ZN5_core9PyTrxFile19data_per_streamline17h1132882a5849d406E, symObjAddr: 0x3C64, symBinAddr: 0x2E738, symSize: 0x494 }
  - { offset: 0x8EBE1, size: 0x8, addend: 0x0, symName: __ZN5_core9PyTrxFile20__pymethod___len____17h02c9d6562e7be16dE, symObjAddr: 0x40F8, symBinAddr: 0x2EBCC, symSize: 0x12C }
  - { offset: 0x8EC9C, size: 0x8, addend: 0x0, symName: __ZN5_core9PyTrxFile20__pymethod_get_dpg__17h0e9cb2476ebc0499E, symObjAddr: 0x4224, symBinAddr: 0x2ECF8, symSize: 0x594 }
  - { offset: 0x8EE7B, size: 0x8, addend: 0x0, symName: __ZN5_core9PyTrxFile20__pymethod_get_dps__17h36f389666de811abE, symObjAddr: 0x47B8, symBinAddr: 0x2F28C, symSize: 0x44C }
  - { offset: 0x8F026, size: 0x8, addend: 0x0, symName: __ZN5_core9PyTrxFile20__pymethod_get_dpv__17h40393a7d047e51f9E, symObjAddr: 0x4C04, symBinAddr: 0x2F6D8, symSize: 0x44C }
  - { offset: 0x8F1D1, size: 0x8, addend: 0x0, symName: __ZN5_core9PyTrxFile20__pymethod_offsets__17h9da22abfe3e73e36E, symObjAddr: 0x5050, symBinAddr: 0x2FB24, symSize: 0x27C }
  - { offset: 0x8F2A3, size: 0x8, addend: 0x0, symName: __ZN5_core9PyTrxFile21__pymethod___repr____17h77f0fa2b3f8cd53dE, symObjAddr: 0x52CC, symBinAddr: 0x2FDA0, symSize: 0x178 }
  - { offset: 0x8F35C, size: 0x8, addend: 0x0, symName: __ZN5_core9PyTrxFile21__pymethod_dpg_keys__17h4cad176de14adfdbE, symObjAddr: 0x5444, symBinAddr: 0x2FF18, symSize: 0x2A0 }
  - { offset: 0x8F444, size: 0x8, addend: 0x0, symName: __ZN5_core9PyTrxFile21__pymethod_dps_keys__17hff8fa825bf967674E, symObjAddr: 0x56E4, symBinAddr: 0x301B8, symSize: 0x2A0 }
  - { offset: 0x8F52C, size: 0x8, addend: 0x0, symName: __ZN5_core9PyTrxFile21__pymethod_dpv_keys__17hdc7d14125d83ce7aE, symObjAddr: 0x5984, symBinAddr: 0x30458, symSize: 0x2A0 }
  - { offset: 0x8F614, size: 0x8, addend: 0x0, symName: __ZN5_core9PyTrxFile22__pymethod_get_dtype__17h617d9f75428075e2E, symObjAddr: 0x5C24, symBinAddr: 0x306F8, symSize: 0x13C }
  - { offset: 0x8F6A3, size: 0x8, addend: 0x0, symName: __ZN5_core9PyTrxFile22__pymethod_get_group__17hfe9009e5bcdaffb2E, symObjAddr: 0x5D60, symBinAddr: 0x30834, symSize: 0x44C }
  - { offset: 0x8F84E, size: 0x8, addend: 0x0, symName: __ZN5_core9PyTrxFile22__pymethod_positions__17h554eae14cfa94a07E, symObjAddr: 0x61AC, symBinAddr: 0x30C80, symSize: 0x27C }
  - { offset: 0x8F920, size: 0x8, addend: 0x0, symName: __ZN5_core9PyTrxFile23__pymethod_get_groups__17h087379beaebdd9bfE, symObjAddr: 0x6428, symBinAddr: 0x30EFC, symSize: 0x100 }
  - { offset: 0x8F99A, size: 0x8, addend: 0x0, symName: __ZN5_core9PyTrxFile23__pymethod_get_header__17hc1a1ba484e1c4ab0E, symObjAddr: 0x6528, symBinAddr: 0x30FFC, symSize: 0x134 }
  - { offset: 0x8FA28, size: 0x8, addend: 0x0, symName: __ZN5_core9PyTrxFile23__pymethod_group_keys__17h6114e7cd6f3309bcE, symObjAddr: 0x665C, symBinAddr: 0x31130, symSize: 0x2A0 }
  - { offset: 0x8FB10, size: 0x8, addend: 0x0, symName: __ZN5_core9PyTrxFile23__pymethod_streamline__17h918f686f69bd99ddE, symObjAddr: 0x68FC, symBinAddr: 0x313D0, symSize: 0x444 }
  - { offset: 0x8FCBB, size: 0x8, addend: 0x0, symName: __ZN5_core9PyTrxFile28__pymethod_get_nb_vertices__17hd9a87c4be5f18edbE, symObjAddr: 0x6D40, symBinAddr: 0x31814, symSize: 0x134 }
  - { offset: 0x8FD4A, size: 0x8, addend: 0x0, symName: __ZN5_core9PyTrxFile31__pymethod_get_data_per_group__17hd685d6bb915106d1E, symObjAddr: 0x6E74, symBinAddr: 0x31948, symSize: 0x100 }
  - { offset: 0x8FDC4, size: 0x8, addend: 0x0, symName: __ZN5_core9PyTrxFile31__pymethod_get_nb_streamlines__17h79f58d66a680396cE, symObjAddr: 0x6F74, symBinAddr: 0x31A48, symSize: 0x134 }
  - { offset: 0x8FE53, size: 0x8, addend: 0x0, symName: __ZN5_core9PyTrxFile32__pymethod_get_data_per_vertex__17h24db3f05389a94c4E, symObjAddr: 0x70A8, symBinAddr: 0x31B7C, symSize: 0x100 }
  - { offset: 0x8FECD, size: 0x8, addend: 0x0, symName: __ZN5_core9PyTrxFile36__pymethod_get_data_per_streamline__17ha443ffb430c29061E, symObjAddr: 0x71A8, symBinAddr: 0x31C7C, symSize: 0x100 }
  - { offset: 0x8FF47, size: 0x8, addend: 0x0, symName: __ZN5_core9PyTrxFile5dtype17h90839f53f80c9066E, symObjAddr: 0x72A8, symBinAddr: 0x31D7C, symSize: 0x28 }
  - { offset: 0x8FF69, size: 0x8, addend: 0x0, symName: __ZN5_core9PyTrxFile6groups17h5efb56e8113ccfeaE, symObjAddr: 0x72D0, symBinAddr: 0x31DA4, symSize: 0x494 }
  - { offset: 0x9005F, size: 0x8, addend: 0x0, symName: __ZN5_core9PyTrxFile6header17hc6fea0964732533eE, symObjAddr: 0x7764, symBinAddr: 0x32238, symSize: 0x10C }
  - { offset: 0x900D0, size: 0x8, addend: 0x0, symName: __ZN5_core9PyTrxFile7__len__17h005afedc39b75530E, symObjAddr: 0x7870, symBinAddr: 0x32344, symSize: 0x24 }
  - { offset: 0x900F2, size: 0x8, addend: 0x0, symName: __ZN5_core9PyTrxFile7get_dpg17hd2cf9a7b6bf83a03E, symObjAddr: 0x7894, symBinAddr: 0x32368, symSize: 0x3C }
  - { offset: 0x90130, size: 0x8, addend: 0x0, symName: __ZN5_core9PyTrxFile7get_dps17h0974b8310536a035E, symObjAddr: 0x78D0, symBinAddr: 0x323A4, symSize: 0x30 }
  - { offset: 0x90160, size: 0x8, addend: 0x0, symName: __ZN5_core9PyTrxFile7get_dpv17h450f2de0394ac112E, symObjAddr: 0x7900, symBinAddr: 0x323D4, symSize: 0x30 }
  - { offset: 0x90190, size: 0x8, addend: 0x0, symName: __ZN5_core9PyTrxFile7offsets17h3ab7e26f2f165468E, symObjAddr: 0x7930, symBinAddr: 0x32404, symSize: 0x310 }
  - { offset: 0x9021E, size: 0x8, addend: 0x0, symName: __ZN5_core9PyTrxFile8__repr__17h4e93f9f69561d11fE, symObjAddr: 0x7C40, symBinAddr: 0x32714, symSize: 0xFC }
  - { offset: 0x902B7, size: 0x8, addend: 0x0, symName: __ZN5_core9PyTrxFile8dpg_keys17h510b0241510ab3dbE, symObjAddr: 0x7D3C, symBinAddr: 0x32810, symSize: 0x24C }
  - { offset: 0x90341, size: 0x8, addend: 0x0, symName: __ZN5_core9PyTrxFile8dps_keys17ha2b0a314b1277f8bE, symObjAddr: 0x7F88, symBinAddr: 0x32A5C, symSize: 0xC0 }
  - { offset: 0x90378, size: 0x8, addend: 0x0, symName: __ZN5_core9PyTrxFile8dpv_keys17h9641b655cf426797E, symObjAddr: 0x8048, symBinAddr: 0x32B1C, symSize: 0xC0 }
  - { offset: 0x903AF, size: 0x8, addend: 0x0, symName: __ZN5_core9PyTrxFile9get_group17h6ff9f5189060f194E, symObjAddr: 0x8108, symBinAddr: 0x32BDC, symSize: 0x30 }
  - { offset: 0x903DF, size: 0x8, addend: 0x0, symName: __ZN5_core9PyTrxFile9positions17h68f42d9f530e8756E, symObjAddr: 0x8138, symBinAddr: 0x32C0C, symSize: 0x1B8 }
  - { offset: 0x90B06, size: 0x8, addend: 0x0, symName: '__ZN4core3num23_$LT$impl$u20$isize$GT$12unsigned_abs17h12352afa7d83eeecE', symObjAddr: 0x0, symBinAddr: 0x33E20, symSize: 0x40 }
  - { offset: 0x90B6F, size: 0x8, addend: 0x0, symName: '__ZN4core3num23_$LT$impl$u20$isize$GT$12unsigned_abs17h12352afa7d83eeecE', symObjAddr: 0x0, symBinAddr: 0x33E20, symSize: 0x40 }
  - { offset: 0x90BEE, size: 0x8, addend: 0x0, symName: '__ZN4core3num23_$LT$impl$u20$isize$GT$3abs17h649f4e3f6c9aca08E', symObjAddr: 0x40, symBinAddr: 0x33E60, symSize: 0x6C }
  - { offset: 0x90C22, size: 0x8, addend: 0x0, symName: '__ZN4core3num23_$LT$impl$u20$usize$GT$11checked_add17ha2a09801cbafbbcfE', symObjAddr: 0xAC, symBinAddr: 0x33ECC, symSize: 0x7C }
  - { offset: 0x90CA7, size: 0x8, addend: 0x0, symName: '__ZN4core3num23_$LT$impl$u20$usize$GT$11checked_mul17hae27543f4b0188adE', symObjAddr: 0x128, symBinAddr: 0x33F48, symSize: 0x74 }
  - { offset: 0x90D85, size: 0x8, addend: 0x0, symName: '__ZN4core3num23_$LT$impl$u20$usize$GT$13unchecked_add18precondition_check17h5a7f5cd9baddde71E', symObjAddr: 0x19C, symBinAddr: 0x33FBC, symSize: 0x64 }
  - { offset: 0x90E2E, size: 0x8, addend: 0x0, symName: '__ZN4core3num23_$LT$impl$u20$usize$GT$13unchecked_mul18precondition_check17h63e90cb4f95d96dbE', symObjAddr: 0x200, symBinAddr: 0x34020, symSize: 0x60 }
  - { offset: 0x90FDB, size: 0x8, addend: 0x0, symName: __ZN4core5slice4sort6stable14driftsort_main17h5ac84bcd15630fa8E, symObjAddr: 0x0, symBinAddr: 0x34080, symSize: 0x1EC }
  - { offset: 0x910D7, size: 0x8, addend: 0x0, symName: __ZN4core5slice4sort6stable14driftsort_main17h5ac84bcd15630fa8E, symObjAddr: 0x0, symBinAddr: 0x34080, symSize: 0x1EC }
  - { offset: 0x916D1, size: 0x8, addend: 0x0, symName: '__ZN4core5slice4sort6stable27AlignedStorage$LT$T$C$_$GT$19as_uninit_slice_mut17heaad2774036728a5E', symObjAddr: 0x1EC, symBinAddr: 0x3426C, symSize: 0x84 }
  - { offset: 0x917FB, size: 0x8, addend: 0x0, symName: __ZN4core5slice4sort6shared5pivot11median3_rec17h023b73c067758da2E, symObjAddr: 0x0, symBinAddr: 0x342F0, symSize: 0x1E0 }
  - { offset: 0x919F0, size: 0x8, addend: 0x0, symName: __ZN4core5slice4sort6shared5pivot11median3_rec17h023b73c067758da2E, symObjAddr: 0x0, symBinAddr: 0x342F0, symSize: 0x1E0 }
  - { offset: 0x91BF4, size: 0x8, addend: 0x0, symName: __ZN4core5slice4sort6shared5pivot12choose_pivot17hcae21f8d3b6674adE, symObjAddr: 0x1E0, symBinAddr: 0x344D0, symSize: 0x244 }
  - { offset: 0x9207B, size: 0x8, addend: 0x0, symName: __ZN4pyo37pyclass18create_type_object18create_type_object17h36e800db10eec418E, symObjAddr: 0x0, symBinAddr: 0x34714, symSize: 0x174 }
  - { offset: 0x92E47, size: 0x8, addend: 0x0, symName: __ZN4pyo37pyclass18create_type_object18create_type_object17h36e800db10eec418E, symObjAddr: 0x0, symBinAddr: 0x34714, symSize: 0x174 }
  - { offset: 0x93EBD, size: 0x8, addend: 0x0, symName: __ZN10serde_json5value8to_value17h399ea40f7864cd3eE, symObjAddr: 0x0, symBinAddr: 0x34888, symSize: 0x44 }
  - { offset: 0x94139, size: 0x8, addend: 0x0, symName: __ZN10serde_json5value8to_value17h399ea40f7864cd3eE, symObjAddr: 0x0, symBinAddr: 0x34888, symSize: 0x44 }
  - { offset: 0x94170, size: 0x8, addend: 0x0, symName: __ZN10serde_json5value8to_value17h5dca502fb69b4781E, symObjAddr: 0x44, symBinAddr: 0x348CC, symSize: 0x44 }
  - { offset: 0x941A7, size: 0x8, addend: 0x0, symName: __ZN10serde_json5value8to_value17h98fd81f86725cc8cE, symObjAddr: 0x88, symBinAddr: 0x34910, symSize: 0x38 }
  - { offset: 0x941DF, size: 0x8, addend: 0x0, symName: __ZN10serde_json5value8to_value17haea15d53c0e14f19E, symObjAddr: 0xC0, symBinAddr: 0x34948, symSize: 0x44 }
  - { offset: 0x94216, size: 0x8, addend: 0x0, symName: __ZN10serde_json5value8to_value17hfd16ef82d2861841E, symObjAddr: 0x104, symBinAddr: 0x3498C, symSize: 0x38 }
  - { offset: 0x94FA0, size: 0x8, addend: 0x0, symName: '__ZN4pyo35impl_9pymethods39BoundRef$LT$pyo3..types..any..PyAny$GT$8downcast17h576cbcc370a94b71E', symObjAddr: 0x0, symBinAddr: 0x349C4, symSize: 0x3C }
  - { offset: 0x956A9, size: 0x8, addend: 0x0, symName: '__ZN50_$LT$T$u20$as$u20$core..convert..Into$LT$U$GT$$GT$4into17h0b6c5cc3842c30feE', symObjAddr: 0x50, symBinAddr: 0x34A14, symSize: 0x24 }
  - { offset: 0x956E9, size: 0x8, addend: 0x0, symName: '__ZN50_$LT$T$u20$as$u20$core..convert..Into$LT$U$GT$$GT$4into17h15c7a84898a4dc68E', symObjAddr: 0x74, symBinAddr: 0x34A38, symSize: 0x24 }
  - { offset: 0x95B21, size: 0x8, addend: 0x0, symName: __ZN4pyo35impl_9pymethods8BoundRef17h699c8b9c3b9688a3E, symObjAddr: 0x3C, symBinAddr: 0x34A00, symSize: 0x14 }
  - { offset: 0x96874, size: 0x8, addend: 0x0, symName: '__ZN4pyo35impl_9pymethods39BoundRef$LT$pyo3..types..any..PyAny$GT$8downcast17h576cbcc370a94b71E', symObjAddr: 0x0, symBinAddr: 0x349C4, symSize: 0x3C }
  - { offset: 0x968CB, size: 0x8, addend: 0x0, symName: __ZN3std4path4Path7display17he79626a80fe6bd76E, symObjAddr: 0x0, symBinAddr: 0x34A5C, symSize: 0x18 }
  - { offset: 0x96946, size: 0x8, addend: 0x0, symName: '__ZN62_$LT$std..path..PathBuf$u20$as$u20$core..ops..deref..Deref$GT$5deref17h32745af950d59951E', symObjAddr: 0x18, symBinAddr: 0x34A74, symSize: 0x34 }
  - { offset: 0x96B11, size: 0x8, addend: 0x0, symName: __ZN3std4path4Path7display17he79626a80fe6bd76E, symObjAddr: 0x0, symBinAddr: 0x34A5C, symSize: 0x18 }
  - { offset: 0x96CEA, size: 0x8, addend: 0x0, symName: __ZN7ndarray9extension7nonnull30nonnull_debug_checked_from_ptr17h3335839dc5d7f876E, symObjAddr: 0x0, symBinAddr: 0x34AA8, symSize: 0x5C }
  - { offset: 0x96D06, size: 0x8, addend: 0x0, symName: __ZN7ndarray9extension7nonnull30nonnull_debug_checked_from_ptr17h3335839dc5d7f876E, symObjAddr: 0x0, symBinAddr: 0x34AA8, symSize: 0x5C }
  - { offset: 0x96D3B, size: 0x8, addend: 0x0, symName: __ZN7ndarray9extension7nonnull30nonnull_debug_checked_from_ptr17h39702ffe48f4ad5dE, symObjAddr: 0x5C, symBinAddr: 0x34B04, symSize: 0x5C }
  - { offset: 0x96D70, size: 0x8, addend: 0x0, symName: __ZN7ndarray9extension7nonnull30nonnull_debug_checked_from_ptr17h714d39f3f25b95cdE, symObjAddr: 0xB8, symBinAddr: 0x34B60, symSize: 0x5C }
  - { offset: 0x96DA5, size: 0x8, addend: 0x0, symName: __ZN7ndarray9extension7nonnull30nonnull_debug_checked_from_ptr17h79d416baa0ae8fa4E, symObjAddr: 0x114, symBinAddr: 0x34BBC, symSize: 0x5C }
  - { offset: 0x96DDA, size: 0x8, addend: 0x0, symName: __ZN7ndarray9extension7nonnull30nonnull_debug_checked_from_ptr17h7bb3ae8a1a8fc7dcE, symObjAddr: 0x170, symBinAddr: 0x34C18, symSize: 0x5C }
  - { offset: 0x96E0F, size: 0x8, addend: 0x0, symName: __ZN7ndarray9extension7nonnull30nonnull_debug_checked_from_ptr17hcdf78ee03b66a919E, symObjAddr: 0x1CC, symBinAddr: 0x34C74, symSize: 0x5C }
  - { offset: 0x96E44, size: 0x8, addend: 0x0, symName: __ZN7ndarray9extension7nonnull30nonnull_debug_checked_from_ptr17hd53bca02268b9df0E, symObjAddr: 0x228, symBinAddr: 0x34CD0, symSize: 0x5C }
  - { offset: 0x96E79, size: 0x8, addend: 0x0, symName: __ZN7ndarray9extension7nonnull30nonnull_debug_checked_from_ptr17hdf53f6bcc27722eeE, symObjAddr: 0x284, symBinAddr: 0x34D2C, symSize: 0x5C }
  - { offset: 0x96EAE, size: 0x8, addend: 0x0, symName: __ZN7ndarray9extension7nonnull30nonnull_debug_checked_from_ptr17he77140714a04b912E, symObjAddr: 0x2E0, symBinAddr: 0x34D88, symSize: 0x5C }
  - { offset: 0x96EE3, size: 0x8, addend: 0x0, symName: __ZN7ndarray9extension7nonnull30nonnull_debug_checked_from_ptr17hf1a2e20e865a9a16E, symObjAddr: 0x33C, symBinAddr: 0x34DE4, symSize: 0x5C }
  - { offset: 0x971C1, size: 0x8, addend: 0x0, symName: __ZN4pyo35types4none6PyNone3get17h873ef12b27074866E, symObjAddr: 0x0, symBinAddr: 0x34E40, symSize: 0x2C }
  - { offset: 0x974A5, size: 0x8, addend: 0x0, symName: __ZN4pyo35types4none6PyNone3get17h873ef12b27074866E, symObjAddr: 0x0, symBinAddr: 0x34E40, symSize: 0x2C }
  - { offset: 0x974F0, size: 0x8, addend: 0x0, symName: '__ZN82_$LT$serde_json..value..ser..Serializer$u20$as$u20$serde_core..ser..Serializer$GT$13serialize_f6417ha85b4495ac055968E', symObjAddr: 0x0, symBinAddr: 0x34E6C, symSize: 0x3C }
  - { offset: 0x97776, size: 0x8, addend: 0x0, symName: '__ZN82_$LT$serde_json..value..ser..Serializer$u20$as$u20$serde_core..ser..Serializer$GT$13serialize_f6417ha85b4495ac055968E', symObjAddr: 0x0, symBinAddr: 0x34E6C, symSize: 0x3C }
  - { offset: 0x977BB, size: 0x8, addend: 0x0, symName: '__ZN82_$LT$serde_json..value..ser..Serializer$u20$as$u20$serde_core..ser..Serializer$GT$13serialize_u6417hcc912be6166c9df7E', symObjAddr: 0x3C, symBinAddr: 0x34EA8, symSize: 0x58 }
  - { offset: 0x9850E, size: 0x8, addend: 0x0, symName: '__ZN119_$LT$pyo3..instance..Bound$LT$pyo3..types..typeobject..PyType$GT$$u20$as$u20$pyo3..types..typeobject..PyTypeMethods$GT$11as_type_ptr17h29e177a782946828E', symObjAddr: 0x0, symBinAddr: 0x34F00, symSize: 0x24 }
  - { offset: 0x98596, size: 0x8, addend: 0x0, symName: '__ZN119_$LT$pyo3..instance..Bound$LT$pyo3..types..typeobject..PyType$GT$$u20$as$u20$pyo3..types..typeobject..PyTypeMethods$GT$11as_type_ptr17h29e177a782946828E', symObjAddr: 0x0, symBinAddr: 0x34F00, symSize: 0x24 }
  - { offset: 0x98AD3, size: 0x8, addend: 0x0, symName: '__ZN4pyo38instance36Bound$LT$pyo3..types..any..PyAny$GT$14from_owned_ptr17he54effe87330a5bcE', symObjAddr: 0x24, symBinAddr: 0x34F24, symSize: 0x2C }
  - { offset: 0x98B22, size: 0x8, addend: 0x0, symName: '__ZN4pyo38instance39Borrowed$LT$pyo3..types..any..PyAny$GT$15from_ptr_or_opt17hd1bf699c9c1c07d5E', symObjAddr: 0x50, symBinAddr: 0x34F50, symSize: 0x2C }
  - { offset: 0x98B60, size: 0x8, addend: 0x0, symName: '__ZN4pyo38instance39Borrowed$LT$pyo3..types..any..PyAny$GT$18from_ptr_unchecked17heed354260020adeeE', symObjAddr: 0x7C, symBinAddr: 0x34F7C, symSize: 0x2C }
  - { offset: 0x98B9E, size: 0x8, addend: 0x0, symName: '__ZN4pyo38instance39Borrowed$LT$pyo3..types..any..PyAny$GT$8from_ptr17h0e08c0eb233fd4eeE', symObjAddr: 0xA8, symBinAddr: 0x34FA8, symSize: 0x34 }
  - { offset: 0x98C07, size: 0x8, addend: 0x0, symName: '__ZN4pyo34sync20GILOnceCell$LT$T$GT$15get_or_try_init17h3c228ac1f0462ce0E', symObjAddr: 0x0, symBinAddr: 0x34FDC, symSize: 0xB4 }
  - { offset: 0x9993B, size: 0x8, addend: 0x0, symName: '__ZN4pyo34sync20GILOnceCell$LT$T$GT$15get_or_try_init17h3c228ac1f0462ce0E', symObjAddr: 0x0, symBinAddr: 0x34FDC, symSize: 0xB4 }
  - { offset: 0x99A28, size: 0x8, addend: 0x0, symName: '__ZN4pyo34sync20GILOnceCell$LT$T$GT$4init17h7d101fad1c68acefE', symObjAddr: 0xB4, symBinAddr: 0x13C994, symSize: 0x1A0 }
  - { offset: 0x99B1D, size: 0x8, addend: 0x0, symName: '__ZN87_$LT$$BP$mut$u20$pyo3_ffi..object..PyObject$u20$as$u20$pyo3..ffi_ptr_ext..FfiPtrExt$GT$12assume_owned17h11242b769f6b708eE', symObjAddr: 0x0, symBinAddr: 0x35090, symSize: 0x24 }
  - { offset: 0x99B52, size: 0x8, addend: 0x0, symName: __ZN8pyo3_ffi6object10Py_IS_TYPE17he3cde4070a684085E, symObjAddr: 0x6C, symBinAddr: 0x350FC, symSize: 0x38 }
  - { offset: 0x99B8C, size: 0x8, addend: 0x0, symName: __ZN8pyo3_ffi6object18PyObject_TypeCheck17h0a9e46bc326a40dcE, symObjAddr: 0xA4, symBinAddr: 0x35134, symSize: 0x70 }
  - { offset: 0x99BC9, size: 0x8, addend: 0x0, symName: __ZN8pyo3_ffi6object7Py_None17h21e2d68db49f15aaE, symObjAddr: 0x114, symBinAddr: 0x351A4, symSize: 0xC }
  - { offset: 0x99BE7, size: 0x8, addend: 0x0, symName: __ZN8pyo3_ffi6object7Py_TYPE17h670ceda278c4593dE, symObjAddr: 0x120, symBinAddr: 0x351B0, symSize: 0x74 }
  - { offset: 0x99C61, size: 0x8, addend: 0x0, symName: '__ZN87_$LT$$BP$mut$u20$pyo3_ffi..object..PyObject$u20$as$u20$pyo3..ffi_ptr_ext..FfiPtrExt$GT$12assume_owned17h11242b769f6b708eE', symObjAddr: 0x0, symBinAddr: 0x35090, symSize: 0x24 }
  - { offset: 0x99CA6, size: 0x8, addend: 0x0, symName: '__ZN87_$LT$$BP$mut$u20$pyo3_ffi..object..PyObject$u20$as$u20$pyo3..ffi_ptr_ext..FfiPtrExt$GT$15assume_borrowed17hf74dec564e3ff603E', symObjAddr: 0x24, symBinAddr: 0x350B4, symSize: 0x24 }
  - { offset: 0x99CEB, size: 0x8, addend: 0x0, symName: '__ZN87_$LT$$BP$mut$u20$pyo3_ffi..object..PyObject$u20$as$u20$pyo3..ffi_ptr_ext..FfiPtrExt$GT$25assume_borrowed_unchecked17hea0ca060a8679726E', symObjAddr: 0x48, symBinAddr: 0x350D8, symSize: 0x24 }
  - { offset: 0x9A017, size: 0x8, addend: 0x0, symName: '__ZN106_$LT$pyo3..impl_..extract_argument..NoVarargs$u20$as$u20$pyo3..impl_..extract_argument..VarargsHandler$GT$23handle_varargs_fastcall17h920941b77691e0e1E', symObjAddr: 0x0, symBinAddr: 0x35224, symSize: 0xB4 }
  - { offset: 0x9A09F, size: 0x8, addend: 0x0, symName: '__ZN106_$LT$pyo3..impl_..extract_argument..NoVarargs$u20$as$u20$pyo3..impl_..extract_argument..VarargsHandler$GT$23handle_varargs_fastcall17h920941b77691e0e1E', symObjAddr: 0x0, symBinAddr: 0x35224, symSize: 0xB4 }
  - { offset: 0x9A113, size: 0x8, addend: 0x0, symName: '__ZN114_$LT$pyo3..impl_..extract_argument..NoVarkeywords$u20$as$u20$pyo3..impl_..extract_argument..VarkeywordsHandler$GT$17handle_varkeyword17h0a972fc72976ebc4E', symObjAddr: 0xB4, symBinAddr: 0x352D8, symSize: 0x6C }
  - { offset: 0x9A252, size: 0x8, addend: 0x0, symName: __ZN4pyo35impl_16extract_argument24unwrap_required_argument17h5dabd0b2ca3da5bfE, symObjAddr: 0x4D4, symBinAddr: 0x356F8, symSize: 0x58 }
  - { offset: 0x9AE68, size: 0x8, addend: 0x0, symName: __ZN4pyo35impl_16extract_argument19FunctionDescription36find_keyword_parameter_in_positional17h51a0bde1d096289fE, symObjAddr: 0x120, symBinAddr: 0x35344, symSize: 0x5C }
  - { offset: 0x9AE9A, size: 0x8, addend: 0x0, symName: __ZN4pyo35impl_16extract_argument19FunctionDescription38find_keyword_parameter_in_keyword_only17hc673ac99c8136009E, symObjAddr: 0x17C, symBinAddr: 0x353A0, symSize: 0x5C }
  - { offset: 0x9B173, size: 0x8, addend: 0x0, symName: __ZN4pyo35impl_16extract_argument19FunctionDescription44ensure_no_missing_required_keyword_arguments17h17a78d44129e1b33E, symObjAddr: 0x1D8, symBinAddr: 0x353FC, symSize: 0x160 }
  - { offset: 0x9B23F, size: 0x8, addend: 0x0, symName: __ZN4pyo35impl_16extract_argument19FunctionDescription47ensure_no_missing_required_positional_arguments17h03a9fd285309ad6fE, symObjAddr: 0x338, symBinAddr: 0x3555C, symSize: 0x19C }
  - { offset: 0x9B3C7, size: 0x8, addend: 0x0, symName: __ZN3std9panicking12catch_unwind7do_call17h291ae7ac4511920cE, symObjAddr: 0x0, symBinAddr: 0x35750, symSize: 0x94 }
  - { offset: 0x9C255, size: 0x8, addend: 0x0, symName: __ZN3std9panicking12catch_unwind7do_call17h291ae7ac4511920cE, symObjAddr: 0x0, symBinAddr: 0x35750, symSize: 0x94 }
  - { offset: 0x9C350, size: 0x8, addend: 0x0, symName: __ZN3std9panicking12catch_unwind7do_call17h3b4fbd136aad9e80E, symObjAddr: 0x94, symBinAddr: 0x357E4, symSize: 0x94 }
  - { offset: 0x9C44B, size: 0x8, addend: 0x0, symName: __ZN3std9panicking12catch_unwind7do_call17h6f42772f0119461eE, symObjAddr: 0x128, symBinAddr: 0x35878, symSize: 0x94 }
  - { offset: 0x9C546, size: 0x8, addend: 0x0, symName: __ZN3std9panicking12catch_unwind7do_call17h9ca6a942e9225da4E, symObjAddr: 0x1BC, symBinAddr: 0x3590C, symSize: 0x94 }
  - { offset: 0x9C641, size: 0x8, addend: 0x0, symName: __ZN3std9panicking12catch_unwind7do_call17hded3affac2f645f0E, symObjAddr: 0x250, symBinAddr: 0x359A0, symSize: 0x88 }
  - { offset: 0x9C73C, size: 0x8, addend: 0x0, symName: __ZN3std9panicking12catch_unwind8do_catch17h2bbd713560ac0772E, symObjAddr: 0x2D8, symBinAddr: 0x35A28, symSize: 0x70 }
  - { offset: 0x9C7D1, size: 0x8, addend: 0x0, symName: __ZN3std9panicking12catch_unwind8do_catch17h91cfde8798a9e849E, symObjAddr: 0x348, symBinAddr: 0x35A98, symSize: 0x70 }
  - { offset: 0x9C866, size: 0x8, addend: 0x0, symName: __ZN3std9panicking12catch_unwind8do_catch17hc361cbc57c23ff9bE, symObjAddr: 0x3B8, symBinAddr: 0x35B08, symSize: 0x70 }
  - { offset: 0x9C8FB, size: 0x8, addend: 0x0, symName: __ZN3std9panicking12catch_unwind8do_catch17hc82a110e628d1ef6E, symObjAddr: 0x428, symBinAddr: 0x35B78, symSize: 0x70 }
  - { offset: 0x9C990, size: 0x8, addend: 0x0, symName: __ZN3std9panicking12catch_unwind8do_catch17hdcd853a72d862d47E, symObjAddr: 0x498, symBinAddr: 0x35BE8, symSize: 0x70 }
  - { offset: 0x9CF58, size: 0x8, addend: 0x0, symName: __ZN4pyo35impl_10trampoline11module_init17h31743541be47052aE, symObjAddr: 0x0, symBinAddr: 0x35C58, symSize: 0x28 }
  - { offset: 0x9CFDB, size: 0x8, addend: 0x0, symName: __ZN4pyo35impl_10trampoline11module_init17h31743541be47052aE, symObjAddr: 0x0, symBinAddr: 0x35C58, symSize: 0x28 }
  - { offset: 0x9D007, size: 0x8, addend: 0x0, symName: __ZN4pyo35impl_10trampoline22fastcall_with_keywords17h9fd03347576d6d37E, symObjAddr: 0x28, symBinAddr: 0x35C80, symSize: 0x5C }
  - { offset: 0x9D06B, size: 0x8, addend: 0x0, symName: __ZN4pyo35impl_10trampoline6noargs17hb5557dfbc2f6464dE, symObjAddr: 0x84, symBinAddr: 0x35CDC, symSize: 0x64 }
  - { offset: 0x9D0B3, size: 0x8, addend: 0x0, symName: __ZN4pyo35impl_10trampoline7dealloc17he6f5eba8d43c5e03E, symObjAddr: 0xE8, symBinAddr: 0x35D40, symSize: 0x34 }
  - { offset: 0x9D0E9, size: 0x8, addend: 0x0, symName: __ZN4pyo35impl_10trampoline7lenfunc17hbab6f65308477c03E, symObjAddr: 0x11C, symBinAddr: 0x35D74, symSize: 0x30 }
  - { offset: 0x9D123, size: 0x8, addend: 0x0, symName: __ZN4pyo35impl_10trampoline8reprfunc17hc07a600aab200060E, symObjAddr: 0x14C, symBinAddr: 0x35DA4, symSize: 0x30 }
  - { offset: 0x9DC1E, size: 0x8, addend: 0x0, symName: '__ZN5alloc3vec16Vec$LT$T$C$A$GT$13from_parts_in18precondition_check17he5afda8c6f069a0cE', symObjAddr: 0x0, symBinAddr: 0x35DD4, symSize: 0x60 }
  - { offset: 0x9DC3F, size: 0x8, addend: 0x0, symName: '__ZN5alloc3vec16Vec$LT$T$C$A$GT$13from_parts_in18precondition_check17he5afda8c6f069a0cE', symObjAddr: 0x0, symBinAddr: 0x35DD4, symSize: 0x60 }
  - { offset: 0x9DC98, size: 0x8, addend: 0x0, symName: '__ZN5alloc3vec16Vec$LT$T$C$A$GT$7set_len18precondition_check17h5f7c85b30b04b32bE', symObjAddr: 0x60, symBinAddr: 0x35E34, symSize: 0x60 }
  - { offset: 0x9DD42, size: 0x8, addend: 0x0, symName: '__ZN102_$LT$core..iter..adapters..zip..Zip$LT$A$C$B$GT$$u20$as$u20$core..iter..traits..iterator..Iterator$GT$4fold17h51b8cd04b41fd55bE', symObjAddr: 0x0, symBinAddr: 0x35E94, symSize: 0x20 }
  - { offset: 0x9DDCF, size: 0x8, addend: 0x0, symName: '__ZN102_$LT$core..iter..adapters..zip..Zip$LT$A$C$B$GT$$u20$as$u20$core..iter..traits..iterator..Iterator$GT$4fold17h51b8cd04b41fd55bE', symObjAddr: 0x0, symBinAddr: 0x35E94, symSize: 0x20 }
  - { offset: 0x9DE3C, size: 0x8, addend: 0x0, symName: '__ZN102_$LT$core..iter..adapters..zip..Zip$LT$A$C$B$GT$$u20$as$u20$core..iter..traits..iterator..Iterator$GT$4next17h30eb0490ee8e7e66E', symObjAddr: 0x20, symBinAddr: 0x35EB4, symSize: 0x24 }
  - { offset: 0x9DE80, size: 0x8, addend: 0x0, symName: '__ZN111_$LT$core..iter..adapters..zip..Zip$LT$A$C$B$GT$$u20$as$u20$core..iter..adapters..zip..ZipImpl$LT$A$C$B$GT$$GT$3new17hca9eb80216b35c42E', symObjAddr: 0x44, symBinAddr: 0x35ED8, symSize: 0x3C }
  - { offset: 0x9DECC, size: 0x8, addend: 0x0, symName: '__ZN111_$LT$core..iter..adapters..zip..Zip$LT$A$C$B$GT$$u20$as$u20$core..iter..adapters..zip..ZipImpl$LT$A$C$B$GT$$GT$4next17h4600e9fff8c9e275E', symObjAddr: 0x224, symBinAddr: 0x360B8, symSize: 0xE0 }
  - { offset: 0x9E033, size: 0x8, addend: 0x0, symName: '__ZN111_$LT$core..iter..adapters..zip..Zip$LT$A$C$B$GT$$u20$as$u20$core..iter..adapters..zip..ZipImpl$LT$A$C$B$GT$$GT$4fold17h10f999fed095fe27E', symObjAddr: 0x80, symBinAddr: 0x35F14, symSize: 0x1A4 }
  - { offset: 0x9E334, size: 0x8, addend: 0x0, symName: __ZN4core4iter6traits8iterator8Iterator8try_fold17heed5f33911333d3dE, symObjAddr: 0x304, symBinAddr: 0x36198, symSize: 0x1B8 }
  - { offset: 0x9E3F6, size: 0x8, addend: 0x0, symName: '__ZN63_$LT$I$u20$as$u20$core..iter..traits..collect..IntoIterator$GT$9into_iter17h5d056287270fb36cE', symObjAddr: 0x4BC, symBinAddr: 0x36350, symSize: 0x30 }
  - { offset: 0x9E42E, size: 0x8, addend: 0x0, symName: '__ZN63_$LT$I$u20$as$u20$core..iter..traits..collect..IntoIterator$GT$9into_iter17he6e5dad916a9a3a2E', symObjAddr: 0x4EC, symBinAddr: 0x36380, symSize: 0x30 }
  - { offset: 0x9EDBD, size: 0x8, addend: 0x0, symName: '__ZN4pyo312pyclass_init27PyClassInitializer$LT$T$GT$19create_class_object17h32d22b2055fea6ebE', symObjAddr: 0x0, symBinAddr: 0x363B0, symSize: 0xA0 }
  - { offset: 0x9FE3C, size: 0x8, addend: 0x0, symName: '__ZN96_$LT$pyo3..pyclass_init..PyClassInitializer$LT$T$GT$$u20$as$u20$core..convert..From$LT$T$GT$$GT$4from17h4aa00cb105e508feE', symObjAddr: 0x4C8, symBinAddr: 0x36878, symSize: 0x50 }
  - { offset: 0xA0E19, size: 0x8, addend: 0x0, symName: '__ZN4pyo312pyclass_init27PyClassInitializer$LT$T$GT$19create_class_object17h32d22b2055fea6ebE', symObjAddr: 0x0, symBinAddr: 0x363B0, symSize: 0xA0 }
  - { offset: 0xA0EF5, size: 0x8, addend: 0x0, symName: '__ZN4pyo312pyclass_init27PyClassInitializer$LT$T$GT$27create_class_object_of_type17haa6b16ebdd036b40E', symObjAddr: 0xA0, symBinAddr: 0x36450, symSize: 0x32C }
  - { offset: 0xA10F4, size: 0x8, addend: 0x0, symName: '__ZN4pyo312pyclass_init27PyClassInitializer$LT$T$GT$3new17h3d1f27223c2a4fc2E', symObjAddr: 0x3CC, symBinAddr: 0x3677C, symSize: 0xFC }
  - { offset: 0xA114D, size: 0x8, addend: 0x0, symName: '__ZN4pyo35types10boolobject65_$LT$impl$u20$pyo3..conversion..IntoPyObject$u20$for$u20$bool$GT$13into_pyobject17h72d1d7a460749a2eE', symObjAddr: 0x0, symBinAddr: 0x368C8, symSize: 0x20 }
  - { offset: 0xA11D5, size: 0x8, addend: 0x0, symName: '__ZN4pyo35types10boolobject65_$LT$impl$u20$pyo3..conversion..IntoPyObject$u20$for$u20$bool$GT$13into_pyobject17h72d1d7a460749a2eE', symObjAddr: 0x0, symBinAddr: 0x368C8, symSize: 0x20 }
  - { offset: 0xA1511, size: 0x8, addend: 0x0, symName: __ZN4pyo35types10boolobject6PyBool3new17hfc9792ebf14a52deE, symObjAddr: 0x20, symBinAddr: 0x368E8, symSize: 0x50 }
  - { offset: 0xA156A, size: 0x8, addend: 0x0, symName: __ZN4core3ptr19copy_nonoverlapping18precondition_check17h3c43f502b4ce5a23E, symObjAddr: 0x0, symBinAddr: 0x36938, symSize: 0x168 }
  - { offset: 0xA1652, size: 0x8, addend: 0x0, symName: __ZN4core3ptr19copy_nonoverlapping18precondition_check17h3c43f502b4ce5a23E, symObjAddr: 0x0, symBinAddr: 0x36938, symSize: 0x168 }
  - { offset: 0xA1879, size: 0x8, addend: 0x0, symName: __ZN4core3ptr25swap_nonoverlapping_bytes17h49854bb3ce04e158E, symObjAddr: 0x2D4, symBinAddr: 0x36AA0, symSize: 0xD8 }
  - { offset: 0xA1A22, size: 0x8, addend: 0x0, symName: __ZN4core3ptr25swap_nonoverlapping_bytes25swap_nonoverlapping_short17h3b4ce5b724d6e68bE, symObjAddr: 0x3AC, symBinAddr: 0x36B78, symSize: 0x11C }
  - { offset: 0xA1D7E, size: 0x8, addend: 0x0, symName: __ZN4core5slice20copy_from_slice_impl17hcf6aef1b87f69286E, symObjAddr: 0x0, symBinAddr: 0x36C94, symSize: 0xAC }
  - { offset: 0xA1E4F, size: 0x8, addend: 0x0, symName: '__ZN4core5slice29_$LT$impl$u20$$u5b$T$u5d$$GT$10split_last17h3f7f733c3a899556E', symObjAddr: 0xAC, symBinAddr: 0x36D40, symSize: 0x7C }
  - { offset: 0xA1EAF, size: 0x8, addend: 0x0, symName: '__ZN4core5slice29_$LT$impl$u20$$u5b$T$u5d$$GT$7reverse7revswap17h94075a549a10208fE', symObjAddr: 0x128, symBinAddr: 0x36DBC, symSize: 0x1AC }
  - { offset: 0xA1F70, size: 0x8, addend: 0x0, symName: __ZN4core5slice20copy_from_slice_impl17hcf6aef1b87f69286E, symObjAddr: 0x0, symBinAddr: 0x36C94, symSize: 0xAC }
  - { offset: 0xA25FE, size: 0x8, addend: 0x0, symName: '__ZN4core3mem13manually_drop21ManuallyDrop$LT$T$GT$4drop17hcb38c69f985d9e98E', symObjAddr: 0x0, symBinAddr: 0x36F68, symSize: 0x20 }
  - { offset: 0xA3865, size: 0x8, addend: 0x0, symName: '__ZN4core3mem13manually_drop21ManuallyDrop$LT$T$GT$4drop17hcb38c69f985d9e98E', symObjAddr: 0x0, symBinAddr: 0x36F68, symSize: 0x20 }
  - { offset: 0xA38AF, size: 0x8, addend: 0x0, symName: '__ZN49_$LT$T$u20$as$u20$core..array..SpecArrayClone$GT$5clone17h433085f8ce3bab33E', symObjAddr: 0x0, symBinAddr: 0x36F88, symSize: 0x20 }
  - { offset: 0xA391F, size: 0x8, addend: 0x0, symName: '__ZN49_$LT$T$u20$as$u20$core..array..SpecArrayClone$GT$5clone17h433085f8ce3bab33E', symObjAddr: 0x0, symBinAddr: 0x36F88, symSize: 0x20 }
  - { offset: 0xA3974, size: 0x8, addend: 0x0, symName: '__ZN49_$LT$T$u20$as$u20$core..array..SpecArrayClone$GT$5clone17h6c346492a0482306E', symObjAddr: 0x20, symBinAddr: 0x36FA8, symSize: 0x1C }
  - { offset: 0xA39CF, size: 0x8, addend: 0x0, symName: '__ZN4core5array71_$LT$impl$u20$core..clone..Clone$u20$for$u20$$u5b$T$u3b$$u20$N$u5d$$GT$5clone17h19cec922634b6547E', symObjAddr: 0x3C, symBinAddr: 0x36FC4, symSize: 0x24 }
  - { offset: 0xA3A06, size: 0x8, addend: 0x0, symName: '__ZN4core5array71_$LT$impl$u20$core..clone..Clone$u20$for$u20$$u5b$T$u3b$$u20$N$u5d$$GT$5clone17hc7356404fb2c4e75E', symObjAddr: 0x60, symBinAddr: 0x36FE8, symSize: 0x34 }
  - { offset: 0xA3AA0, size: 0x8, addend: 0x0, symName: __ZN4core5slice3raw14from_raw_parts18precondition_check17hefe7ee1f24101199E, symObjAddr: 0x0, symBinAddr: 0x3701C, symSize: 0x10C }
  - { offset: 0xA3C3F, size: 0x8, addend: 0x0, symName: __ZN4core5slice3raw14from_raw_parts18precondition_check17hefe7ee1f24101199E, symObjAddr: 0x0, symBinAddr: 0x3701C, symSize: 0x10C }
  - { offset: 0xA3D5B, size: 0x8, addend: 0x0, symName: __ZN4core5slice3raw18from_raw_parts_mut18precondition_check17he71e6feaa24bdb97E, symObjAddr: 0x10C, symBinAddr: 0x37128, symSize: 0x10C }
  - { offset: 0xA44F6, size: 0x8, addend: 0x0, symName: __ZN4core3fmt9Arguments3new17h0a758609f5dd1219E, symObjAddr: 0xB8, symBinAddr: 0x37248, symSize: 0x1C }
  - { offset: 0xA45AA, size: 0x8, addend: 0x0, symName: __ZN4core3fmt9Arguments3new17h1ff02faea31d680dE, symObjAddr: 0x128, symBinAddr: 0x37264, symSize: 0x1C }
  - { offset: 0xA4644, size: 0x8, addend: 0x0, symName: __ZN4core3fmt9Arguments3new17h41233efc5a07160eE, symObjAddr: 0x17C, symBinAddr: 0x37280, symSize: 0x1C }
  - { offset: 0xA46AA, size: 0x8, addend: 0x0, symName: __ZN4core3fmt9Arguments3new17h419e82b6dffeb7d0E, symObjAddr: 0x1B4, symBinAddr: 0x3729C, symSize: 0x1C }
  - { offset: 0xA4710, size: 0x8, addend: 0x0, symName: __ZN4core3fmt9Arguments3new17h470223192c0635cdE, symObjAddr: 0x208, symBinAddr: 0x372B8, symSize: 0x1C }
  - { offset: 0xA4776, size: 0x8, addend: 0x0, symName: __ZN4core3fmt9Arguments3new17h75f44fdd18b0bfecE, symObjAddr: 0x240, symBinAddr: 0x372D4, symSize: 0x1C }
  - { offset: 0xA482A, size: 0x8, addend: 0x0, symName: __ZN4core3fmt9Arguments3new17hbc8a5b1321a375afE, symObjAddr: 0x2E8, symBinAddr: 0x372F0, symSize: 0x1C }
  - { offset: 0xA48AA, size: 0x8, addend: 0x0, symName: __ZN4core3fmt9Arguments3new17hd6b169ea0c382872E, symObjAddr: 0x33C, symBinAddr: 0x3730C, symSize: 0x1C }
  - { offset: 0xA4910, size: 0x8, addend: 0x0, symName: __ZN4core3fmt9Arguments3new17hf5fce18e14a18aeeE, symObjAddr: 0x374, symBinAddr: 0x37328, symSize: 0x1C }
  - { offset: 0xA4D1D, size: 0x8, addend: 0x0, symName: __ZN3std2io22default_read_buf_exact17hf3c42ac0b207159eE, symObjAddr: 0x2260, symBinAddr: 0x37344, symSize: 0x218 }
  - { offset: 0xA4EC9, size: 0x8, addend: 0x0, symName: __ZN3std2io4Read4take17h5720ed1d74b1fd97E, symObjAddr: 0x2DD4, symBinAddr: 0x3755C, symSize: 0x30 }
  - { offset: 0xA5541, size: 0x8, addend: 0x0, symName: __ZN4core5alloc6layout6Layout25from_size_align_unchecked18precondition_check17h97f307911af13b45E, symObjAddr: 0x0, symBinAddr: 0x3758C, symSize: 0xBC }
  - { offset: 0xA5969, size: 0x8, addend: 0x0, symName: __ZN4core5alloc6layout6Layout25from_size_align_unchecked18precondition_check17h97f307911af13b45E, symObjAddr: 0x0, symBinAddr: 0x3758C, symSize: 0xBC }
  - { offset: 0xA5BCC, size: 0x8, addend: 0x0, symName: '__ZN76_$LT$zip..compression..CompressionMethod$u20$as$u20$core..cmp..PartialEq$GT$2eq17h44b368648ad61aa9E', symObjAddr: 0x0, symBinAddr: 0x37648, symSize: 0xBC }
  - { offset: 0xA5BE8, size: 0x8, addend: 0x0, symName: '__ZN76_$LT$zip..compression..CompressionMethod$u20$as$u20$core..cmp..PartialEq$GT$2eq17h44b368648ad61aa9E', symObjAddr: 0x0, symBinAddr: 0x37648, symSize: 0xBC }
  - { offset: 0xA5D2D, size: 0x8, addend: 0x0, symName: __ZN3zip4spec14FixedSizeBlock5parse17h007fc0786ce862f1E, symObjAddr: 0x0, symBinAddr: 0x37704, symSize: 0x1A4 }
  - { offset: 0xA60F6, size: 0x8, addend: 0x0, symName: __ZN3zip4spec14FixedSizeBlock5parse17h007fc0786ce862f1E, symObjAddr: 0x0, symBinAddr: 0x37704, symSize: 0x1A4 }
  - { offset: 0xA61B8, size: 0x8, addend: 0x0, symName: __ZN3zip4spec14FixedSizeBlock5parse17h33487f5ba2c394dcE, symObjAddr: 0x1A4, symBinAddr: 0x378A8, symSize: 0x160 }
  - { offset: 0xA627A, size: 0x8, addend: 0x0, symName: __ZN3zip4spec14FixedSizeBlock5parse17h582a89804ab55741E, symObjAddr: 0x304, symBinAddr: 0x37A08, symSize: 0x1D0 }
  - { offset: 0xA6443, size: 0x8, addend: 0x0, symName: __ZN3zip4spec22find_central_directory15try_read_eocd6417hcf8c583bc399dd8cE, symObjAddr: 0x810, symBinAddr: 0x37BD8, symSize: 0x218 }
  - { offset: 0xA64F0, size: 0x8, addend: 0x0, symName: __ZN3zip4spec22find_central_directory23try_read_eocd64_locator17h18bf8cc18d55ebf7E, symObjAddr: 0x1C4C, symBinAddr: 0x39014, symSize: 0x190 }
  - { offset: 0xA658C, size: 0x8, addend: 0x0, symName: __ZN3zip4spec22find_central_directory17he3c6c9f5c7f97b38E, symObjAddr: 0xA28, symBinAddr: 0x37DF0, symSize: 0x1224 }
  - { offset: 0xA6AEC, size: 0x8, addend: 0x0, symName: __ZN3zip4spec3Pod12as_bytes_mut17h1cfe3f495f864c55E, symObjAddr: 0x28D4, symBinAddr: 0x3989C, symSize: 0x34 }
  - { offset: 0xA6B21, size: 0x8, addend: 0x0, symName: __ZN3zip4spec3Pod12as_bytes_mut17h779b9a01974e10d0E, symObjAddr: 0x2908, symBinAddr: 0x398D0, symSize: 0x34 }
  - { offset: 0xA6B56, size: 0x8, addend: 0x0, symName: __ZN3zip4spec3Pod12as_bytes_mut17hc8fdb6cb31598e77E, symObjAddr: 0x293C, symBinAddr: 0x39904, symSize: 0x34 }
  - { offset: 0xA6B8B, size: 0x8, addend: 0x0, symName: __ZN3zip4spec3Pod6zeroed17h3629d2ac58dec868E, symObjAddr: 0x2970, symBinAddr: 0x39938, symSize: 0x98 }
  - { offset: 0xA6CD0, size: 0x8, addend: 0x0, symName: __ZN3zip4spec3Pod6zeroed17h5309f08e7e80f18fE, symObjAddr: 0x2A08, symBinAddr: 0x399D0, symSize: 0xB4 }
  - { offset: 0xA6E1F, size: 0x8, addend: 0x0, symName: __ZN3zip4spec3Pod6zeroed17h9de28bb65e6ffedbE, symObjAddr: 0x2ABC, symBinAddr: 0x39A84, symSize: 0xA4 }
  - { offset: 0xA6F73, size: 0x8, addend: 0x0, symName: '__ZN98_$LT$zip..spec..DataAndPosition$LT$T$GT$$u20$as$u20$core..convert..From$LT$$LP$T$C$u64$RP$$GT$$GT$4from17h9e8ccef61cd4909bE', symObjAddr: 0x2C54, symBinAddr: 0x39B80, symSize: 0x38 }
  - { offset: 0xA6FAA, size: 0x8, addend: 0x0, symName: '__ZN98_$LT$zip..spec..DataAndPosition$LT$T$GT$$u20$as$u20$core..convert..From$LT$$LP$T$C$u64$RP$$GT$$GT$4from17hc9bf07340edb5e0fE', symObjAddr: 0x2C8C, symBinAddr: 0x39BB8, symSize: 0x64 }
  - { offset: 0xA7FD4, size: 0x8, addend: 0x0, symName: __ZN4core3cmp9PartialEq2ne17h281147046f9d4f97E, symObjAddr: 0x2BFC, symBinAddr: 0x39B28, symSize: 0x30 }
  - { offset: 0xA802F, size: 0x8, addend: 0x0, symName: '__ZN50_$LT$T$u20$as$u20$core..convert..Into$LT$U$GT$$GT$4into17h24375cab93f545b3E', symObjAddr: 0x2C2C, symBinAddr: 0x39B58, symSize: 0x14 }
  - { offset: 0xA8070, size: 0x8, addend: 0x0, symName: '__ZN50_$LT$T$u20$as$u20$core..convert..Into$LT$U$GT$$GT$4into17hedc412d72400b7b0E', symObjAddr: 0x2C40, symBinAddr: 0x39B6C, symSize: 0x14 }
  - { offset: 0xA8410, size: 0x8, addend: 0x0, symName: __ZN3zip4spec24Zip32CentralDirectoryEnd5parse17h7fbcc32de71cfbd8E, symObjAddr: 0x1DDC, symBinAddr: 0x391A4, symSize: 0x2F8 }
  - { offset: 0xA8507, size: 0x8, addend: 0x0, symName: __ZN3zip4spec24Zip64CentralDirectoryEnd5parse17h152e17ccbe36b96fE, symObjAddr: 0x22C8, symBinAddr: 0x3949C, symSize: 0x32C }
  - { offset: 0xA865E, size: 0x8, addend: 0x0, symName: __ZN3zip4spec31Zip64CentralDirectoryEndLocator5parse17hf26169a4b7af0b8dE, symObjAddr: 0x27B4, symBinAddr: 0x397C8, symSize: 0xD4 }
  - { offset: 0xA8EC6, size: 0x8, addend: 0x0, symName: '__ZN4core7convert3num67_$LT$impl$u20$core..convert..TryFrom$LT$u64$GT$$u20$for$u20$u32$GT$8try_from17h94b3edee005fe6fbE', symObjAddr: 0x0, symBinAddr: 0x39C1C, symSize: 0x5C }
  - { offset: 0xA8EE7, size: 0x8, addend: 0x0, symName: '__ZN4core7convert3num67_$LT$impl$u20$core..convert..TryFrom$LT$u64$GT$$u20$for$u20$u32$GT$8try_from17h94b3edee005fe6fbE', symObjAddr: 0x0, symBinAddr: 0x39C1C, symSize: 0x5C }
  - { offset: 0xA8FF3, size: 0x8, addend: 0x0, symName: __ZN3std3sys2io5error4unix17decode_error_kind17h8755f996b411ebe5E, symObjAddr: 0x0, symBinAddr: 0x39C78, symSize: 0x240 }
  - { offset: 0xA912D, size: 0x8, addend: 0x0, symName: __ZN3std3sys2io5error4unix17decode_error_kind17h8755f996b411ebe5E, symObjAddr: 0x0, symBinAddr: 0x39C78, symSize: 0x240 }
  - { offset: 0xAA15C, size: 0x8, addend: 0x0, symName: __ZN4core4iter6traits8iterator8Iterator3map17h0be14dc7ce9b10f9E, symObjAddr: 0x1C2C, symBinAddr: 0x3A2EC, symSize: 0x30 }
  - { offset: 0xAA1CA, size: 0x8, addend: 0x0, symName: __ZN4core4iter6traits8iterator8Iterator3map17h1894806ec47ebd54E, symObjAddr: 0x1C5C, symBinAddr: 0x3A31C, symSize: 0x30 }
  - { offset: 0xAA238, size: 0x8, addend: 0x0, symName: __ZN4core4iter6traits8iterator8Iterator3map17h249ddb9621371070E, symObjAddr: 0x1C8C, symBinAddr: 0x3A34C, symSize: 0x30 }
  - { offset: 0xAA2A6, size: 0x8, addend: 0x0, symName: __ZN4core4iter6traits8iterator8Iterator3map17h36183eb50b2ec88cE, symObjAddr: 0x1CBC, symBinAddr: 0x3A37C, symSize: 0x30 }
  - { offset: 0xAA314, size: 0x8, addend: 0x0, symName: __ZN4core4iter6traits8iterator8Iterator3map17h40082ec93d8deb74E, symObjAddr: 0x1D4C, symBinAddr: 0x3A3AC, symSize: 0x30 }
  - { offset: 0xAA382, size: 0x8, addend: 0x0, symName: __ZN4core4iter6traits8iterator8Iterator3map17h6a2f4ebf5dba81f4E, symObjAddr: 0x1E0C, symBinAddr: 0x3A3DC, symSize: 0x30 }
  - { offset: 0xAA3F0, size: 0x8, addend: 0x0, symName: __ZN4core4iter6traits8iterator8Iterator3map17h8a4ef49a2e0e5d64E, symObjAddr: 0x1F5C, symBinAddr: 0x3A40C, symSize: 0x30 }
  - { offset: 0xAA45E, size: 0x8, addend: 0x0, symName: __ZN4core4iter6traits8iterator8Iterator3map17h99f092848b8c8a05E, symObjAddr: 0x1FBC, symBinAddr: 0x3A43C, symSize: 0x30 }
  - { offset: 0xAA4CC, size: 0x8, addend: 0x0, symName: __ZN4core4iter6traits8iterator8Iterator3map17ha27b49c9eadcc120E, symObjAddr: 0x1FEC, symBinAddr: 0x3A46C, symSize: 0x30 }
  - { offset: 0xAA53A, size: 0x8, addend: 0x0, symName: __ZN4core4iter6traits8iterator8Iterator3map17hb87d75067f148698E, symObjAddr: 0x207C, symBinAddr: 0x3A49C, symSize: 0x30 }
  - { offset: 0xAA5A8, size: 0x8, addend: 0x0, symName: __ZN4core4iter6traits8iterator8Iterator3map17hc282f6a52eae898cE, symObjAddr: 0x210C, symBinAddr: 0x3A4CC, symSize: 0x30 }
  - { offset: 0xAA616, size: 0x8, addend: 0x0, symName: __ZN4core4iter6traits8iterator8Iterator3map17hc441f72ac2ffc23dE, symObjAddr: 0x216C, symBinAddr: 0x3A4FC, symSize: 0x30 }
  - { offset: 0xAA684, size: 0x8, addend: 0x0, symName: __ZN4core4iter6traits8iterator8Iterator3map17hd88ea31a78b1b4edE, symObjAddr: 0x2254, symBinAddr: 0x3A52C, symSize: 0x30 }
  - { offset: 0xAA6F2, size: 0x8, addend: 0x0, symName: __ZN4core4iter6traits8iterator8Iterator3map17he069dfe7f4ed8050E, symObjAddr: 0x2284, symBinAddr: 0x3A55C, symSize: 0x30 }
  - { offset: 0xAA760, size: 0x8, addend: 0x0, symName: __ZN4core4iter6traits8iterator8Iterator3map17hea7bcfc6389ee017E, symObjAddr: 0x22B4, symBinAddr: 0x3A58C, symSize: 0x30 }
  - { offset: 0xAACA9, size: 0x8, addend: 0x0, symName: '__ZN105_$LT$std..collections..hash..map..Iter$LT$K$C$V$GT$$u20$as$u20$core..iter..traits..iterator..Iterator$GT$4next17h39c0829cb6d5e56cE', symObjAddr: 0x2A4, symBinAddr: 0x39EB8, symSize: 0x24 }
  - { offset: 0xAACE9, size: 0x8, addend: 0x0, symName: '__ZN105_$LT$std..collections..hash..map..Iter$LT$K$C$V$GT$$u20$as$u20$core..iter..traits..iterator..Iterator$GT$4next17h72d46e15c749acd9E', symObjAddr: 0x2C8, symBinAddr: 0x39EDC, symSize: 0x24 }
  - { offset: 0xAAD29, size: 0x8, addend: 0x0, symName: '__ZN105_$LT$std..collections..hash..map..Iter$LT$K$C$V$GT$$u20$as$u20$core..iter..traits..iterator..Iterator$GT$9size_hint17h92c59f348f57af2aE', symObjAddr: 0x38C, symBinAddr: 0x39F00, symSize: 0x2C }
  - { offset: 0xAB038, size: 0x8, addend: 0x0, symName: '__ZN105_$LT$std..collections..hash..map..Keys$LT$K$C$V$GT$$u20$as$u20$core..iter..traits..iterator..Iterator$GT$4next17h6d2e3f61c479a21aE', symObjAddr: 0x3E4, symBinAddr: 0x39F2C, symSize: 0x60 }
  - { offset: 0xAB0DD, size: 0x8, addend: 0x0, symName: '__ZN105_$LT$std..collections..hash..map..Keys$LT$K$C$V$GT$$u20$as$u20$core..iter..traits..iterator..Iterator$GT$9size_hint17h86669b476ee167fdE', symObjAddr: 0x4D0, symBinAddr: 0x39F8C, symSize: 0x2C }
  - { offset: 0xAB391, size: 0x8, addend: 0x0, symName: '__ZN123_$LT$$RF$std..collections..hash..map..HashMap$LT$K$C$V$C$S$C$A$GT$$u20$as$u20$core..iter..traits..collect..IntoIterator$GT$9into_iter17h925f4d506693a5f2E', symObjAddr: 0x610, symBinAddr: 0x39FDC, symSize: 0x44 }
  - { offset: 0xACAA4, size: 0x8, addend: 0x0, symName: '__ZN10serde_core2de5impls111_$LT$impl$u20$serde_core..de..Deserialize$u20$for$u20$std..collections..hash..map..HashMap$LT$K$C$V$C$S$GT$$GT$11deserialize17h9fbf4c8cbe00ef6eE', symObjAddr: 0x4FC, symBinAddr: 0x39FB8, symSize: 0x24 }
  - { offset: 0xACFBC, size: 0x8, addend: 0x0, symName: '__ZN3std11collections4hash3map20HashMap$LT$K$C$V$GT$3new17h556756501d751f51E', symObjAddr: 0x14AC, symBinAddr: 0x3A020, symSize: 0x7C }
  - { offset: 0xAD0D1, size: 0x8, addend: 0x0, symName: '__ZN3std11collections4hash3map20HashMap$LT$K$C$V$GT$3new17had8f9b717d96fad0E', symObjAddr: 0x15A4, symBinAddr: 0x3A09C, symSize: 0x7C }
  - { offset: 0xAD180, size: 0x8, addend: 0x0, symName: '__ZN3std11collections4hash3map24HashMap$LT$K$C$V$C$S$GT$24with_capacity_and_hasher17h17cae5886a5949c8E', symObjAddr: 0x169C, symBinAddr: 0x3A118, symSize: 0x48 }
  - { offset: 0xAD1F4, size: 0x8, addend: 0x0, symName: '__ZN3std11collections4hash3map28HashMap$LT$K$C$V$C$S$C$A$GT$3get17h4ac5eee06864ac1aE', symObjAddr: 0x1714, symBinAddr: 0x3A160, symSize: 0x30 }
  - { offset: 0xAD253, size: 0x8, addend: 0x0, symName: '__ZN3std11collections4hash3map28HashMap$LT$K$C$V$C$S$C$A$GT$3get17h58d4b13fc0175f2aE', symObjAddr: 0x1744, symBinAddr: 0x3A190, symSize: 0x30 }
  - { offset: 0xAD2B2, size: 0x8, addend: 0x0, symName: '__ZN3std11collections4hash3map28HashMap$LT$K$C$V$C$S$C$A$GT$4iter17hcd9c1f6eb4f81f31E', symObjAddr: 0x18B0, symBinAddr: 0x3A1C0, symSize: 0x44 }
  - { offset: 0xAD330, size: 0x8, addend: 0x0, symName: '__ZN3std11collections4hash3map28HashMap$LT$K$C$V$C$S$C$A$GT$4keys17hf36c71772bd366b7E', symObjAddr: 0x1950, symBinAddr: 0x3A204, symSize: 0x5C }
  - { offset: 0xAD3A2, size: 0x8, addend: 0x0, symName: '__ZN3std11collections4hash3map28HashMap$LT$K$C$V$C$S$C$A$GT$6insert17h175323fca7b195aeE', symObjAddr: 0x1AB8, symBinAddr: 0x3A260, symSize: 0x24 }
  - { offset: 0xAD409, size: 0x8, addend: 0x0, symName: '__ZN3std11collections4hash3map28HashMap$LT$K$C$V$C$S$C$A$GT$6insert17h6bff50b494df35e6E', symObjAddr: 0x1B08, symBinAddr: 0x3A284, symSize: 0x24 }
  - { offset: 0xAD470, size: 0x8, addend: 0x0, symName: '__ZN3std11collections4hash3map28HashMap$LT$K$C$V$C$S$C$A$GT$6insert17h8812662e82d5e162E', symObjAddr: 0x1B2C, symBinAddr: 0x3A2A8, symSize: 0x24 }
  - { offset: 0xAD57A, size: 0x8, addend: 0x0, symName: '__ZN3std11collections4hash3map28HashMap$LT$K$C$V$C$S$C$A$GT$8is_empty17hf18ea175ae9ca3c7E', symObjAddr: 0x1BE0, symBinAddr: 0x3A2CC, symSize: 0x20 }
  - { offset: 0xAD974, size: 0x8, addend: 0x0, symName: '__ZN42_$LT$$RF$T$u20$as$u20$core..fmt..Debug$GT$3fmt17h4006571294583155E', symObjAddr: 0x0, symBinAddr: 0x3A5BC, symSize: 0x30 }
  - { offset: 0xADD09, size: 0x8, addend: 0x0, symName: '__ZN42_$LT$$RF$T$u20$as$u20$core..fmt..Debug$GT$3fmt17h4006571294583155E', symObjAddr: 0x0, symBinAddr: 0x3A5BC, symSize: 0x30 }
  - { offset: 0xADD55, size: 0x8, addend: 0x0, symName: '__ZN44_$LT$$RF$T$u20$as$u20$core..fmt..Display$GT$3fmt17h1568bb88b9174e76E', symObjAddr: 0x30, symBinAddr: 0x3A5EC, symSize: 0x30 }
  - { offset: 0xADF27, size: 0x8, addend: 0x0, symName: '__ZN55_$LT$$RF$T$u20$as$u20$thiserror..display..AsDisplay$GT$10as_display17h2a063fca5abc5c98E', symObjAddr: 0x94, symBinAddr: 0x3A61C, symSize: 0x18 }
  - { offset: 0xADFFA, size: 0x8, addend: 0x0, symName: '__ZN4core3cmp5impls69_$LT$impl$u20$core..cmp..PartialEq$LT$$RF$B$GT$$u20$for$u20$$RF$A$GT$2eq17h7c9fa7e2549258ccE', symObjAddr: 0x0, symBinAddr: 0x3A634, symSize: 0x34 }
  - { offset: 0xAE01B, size: 0x8, addend: 0x0, symName: '__ZN4core3cmp5impls69_$LT$impl$u20$core..cmp..PartialEq$LT$$RF$B$GT$$u20$for$u20$$RF$A$GT$2eq17h7c9fa7e2549258ccE', symObjAddr: 0x0, symBinAddr: 0x3A634, symSize: 0x34 }
  - { offset: 0xAE070, size: 0x8, addend: 0x0, symName: '__ZN4core3cmp5impls77_$LT$impl$u20$core..cmp..PartialEq$LT$$RF$mut$u20$B$GT$$u20$for$u20$$RF$A$GT$2eq17hb19eccc3f40e065fE', symObjAddr: 0xBC, symBinAddr: 0x3A668, symSize: 0x44 }
  - { offset: 0xAED7A, size: 0x8, addend: 0x0, symName: __ZN6trx_rs12mmap_backing11MmapBacking3len17h7cdf7d38ee29f19fE, symObjAddr: 0x10C, symBinAddr: 0x3A6AC, symSize: 0x28 }
  - { offset: 0xAEDBA, size: 0x8, addend: 0x0, symName: __ZN6trx_rs12mmap_backing11MmapBacking8as_bytes17h9f92117861b8816dE, symObjAddr: 0x134, symBinAddr: 0x3A6D4, symSize: 0xC4 }
  - { offset: 0xAF231, size: 0x8, addend: 0x0, symName: '__ZN5alloc5slice29_$LT$impl$u20$$u5b$T$u5d$$GT$6to_vec17h9eccc4221ee148abE', symObjAddr: 0x1E4, symBinAddr: 0x3A798, symSize: 0x28 }
  - { offset: 0xAF298, size: 0x8, addend: 0x0, symName: '__ZN87_$LT$T$u20$as$u20$alloc..slice..$LT$impl$u20$$u5b$T$u5d$$GT$..to_vec_in..ConvertVec$GT$6to_vec17h14b9fdd0ce2da086E', symObjAddr: 0x3A4, symBinAddr: 0x3A7C0, symSize: 0xF4 }
  - { offset: 0xAFB8E, size: 0x8, addend: 0x0, symName: '__ZN3zip4read12magic_finder20MagicFinder$LT$T$GT$3new17h848e2d86b72c7919E', symObjAddr: 0x0, symBinAddr: 0x3A8B4, symSize: 0x158 }
  - { offset: 0xB09B5, size: 0x8, addend: 0x0, symName: '__ZN3zip4read12magic_finder20MagicFinder$LT$T$GT$3new17h848e2d86b72c7919E', symObjAddr: 0x0, symBinAddr: 0x3A8B4, symSize: 0x158 }
  - { offset: 0xB0A82, size: 0x8, addend: 0x0, symName: '__ZN3zip4read12magic_finder20MagicFinder$LT$T$GT$3new17hfec196ecce7f3bd2E', symObjAddr: 0x158, symBinAddr: 0x3AA0C, symSize: 0x164 }
  - { offset: 0xB0B95, size: 0x8, addend: 0x0, symName: '__ZN3zip4read12magic_finder20MagicFinder$LT$T$GT$4next17h0dbce9354c2a086dE', symObjAddr: 0x2BC, symBinAddr: 0x3AB70, symSize: 0x408 }
  - { offset: 0xB0D5A, size: 0x8, addend: 0x0, symName: '__ZN3zip4read12magic_finder20MagicFinder$LT$T$GT$4next17h652d9009ca30a527E', symObjAddr: 0x6C4, symBinAddr: 0x3AF78, symSize: 0x3F4 }
  - { offset: 0xB0F12, size: 0x8, addend: 0x0, symName: '__ZN3zip4read12magic_finder20MagicFinder$LT$T$GT$9repurpose17heb6c791a7a93f81fE', symObjAddr: 0xAB8, symBinAddr: 0x3B36C, symSize: 0x11C }
  - { offset: 0xB0F8C, size: 0x8, addend: 0x0, symName: '__ZN3zip4read12magic_finder38OptimisticMagicFinder$LT$Direction$GT$4next17hb86724c68ef5fcc9E', symObjAddr: 0xBD4, symBinAddr: 0x3B488, symSize: 0x25C }
  - { offset: 0xB10A1, size: 0x8, addend: 0x0, symName: '__ZN3zip4read12magic_finder38OptimisticMagicFinder$LT$Direction$GT$9new_empty17h657787b2757a957dE', symObjAddr: 0xE30, symBinAddr: 0x3B6E4, symSize: 0x6C }
  - { offset: 0xB10BE, size: 0x8, addend: 0x0, symName: '__ZN3zip4read12magic_finder38OptimisticMagicFinder$LT$Direction$GT$9repurpose17had3f1525ec8c5690E', symObjAddr: 0xE9C, symBinAddr: 0x3B750, symSize: 0xA4 }
  - { offset: 0xB11FC, size: 0x8, addend: 0x0, symName: '__ZN59_$LT$trx_rs..dtype..DType$u20$as$u20$core..fmt..Display$GT$3fmt17h0cc71c8c7c598e5bE', symObjAddr: 0x310, symBinAddr: 0x3B7F4, symSize: 0x48 }
  - { offset: 0xB123C, size: 0x8, addend: 0x0, symName: '__ZN61_$LT$trx_rs..dtype..DType$u20$as$u20$core..cmp..PartialEq$GT$2eq17h3ee1fb8638669cd1E', symObjAddr: 0x358, symBinAddr: 0x3B83C, symSize: 0x34 }
  - { offset: 0xB16BA, size: 0x8, addend: 0x0, symName: __ZN6trx_rs5dtype5DType4name17h111c62616be7fa9bE, symObjAddr: 0x38C, symBinAddr: 0x3B870, symSize: 0x14C }
  - { offset: 0xB1DFB, size: 0x8, addend: 0x0, symName: __ZN6trx_rs5dtype5DType5parse17h784685df82c7ba3cE, symObjAddr: 0x4D8, symBinAddr: 0x3B9BC, symSize: 0x2FC }
  - { offset: 0xB1E1D, size: 0x8, addend: 0x0, symName: __ZN6trx_rs5dtype5DType7size_of17hb819d4815ee70469E, symObjAddr: 0x7D4, symBinAddr: 0x3BCB8, symSize: 0x70 }
  - { offset: 0xB1EFE, size: 0x8, addend: 0x0, symName: __ZN4core5slice3raw14from_raw_parts17h026a17b05da7a627E, symObjAddr: 0x0, symBinAddr: 0x3BD28, symSize: 0x58 }
  - { offset: 0xB1F1A, size: 0x8, addend: 0x0, symName: __ZN4core5slice3raw14from_raw_parts17h026a17b05da7a627E, symObjAddr: 0x0, symBinAddr: 0x3BD28, symSize: 0x58 }
  - { offset: 0xB1F5D, size: 0x8, addend: 0x0, symName: __ZN4core5slice3raw14from_raw_parts17h1b16317673d83350E, symObjAddr: 0x58, symBinAddr: 0x3BD80, symSize: 0x58 }
  - { offset: 0xB1FA0, size: 0x8, addend: 0x0, symName: __ZN4core5slice3raw14from_raw_parts17h1c901887118795e1E, symObjAddr: 0xB0, symBinAddr: 0x3BDD8, symSize: 0x5C }
  - { offset: 0xB1FE3, size: 0x8, addend: 0x0, symName: __ZN4core5slice3raw14from_raw_parts17h72f9896e4cdd8026E, symObjAddr: 0x10C, symBinAddr: 0x3BE34, symSize: 0x58 }
  - { offset: 0xB2026, size: 0x8, addend: 0x0, symName: __ZN4core5slice3raw14from_raw_parts17h7dcaa5fba83b740dE, symObjAddr: 0x164, symBinAddr: 0x3BE8C, symSize: 0x58 }
  - { offset: 0xB2069, size: 0x8, addend: 0x0, symName: __ZN4core5slice3raw14from_raw_parts17h7ec3f940674460abE, symObjAddr: 0x1BC, symBinAddr: 0x3BEE4, symSize: 0x5C }
  - { offset: 0xB20AC, size: 0x8, addend: 0x0, symName: __ZN4core5slice3raw14from_raw_parts17h82344297a83fe1d0E, symObjAddr: 0x218, symBinAddr: 0x3BF40, symSize: 0x58 }
  - { offset: 0xB20EF, size: 0x8, addend: 0x0, symName: __ZN4core5slice3raw14from_raw_parts17h8ff8f89ca4e267ffE, symObjAddr: 0x270, symBinAddr: 0x3BF98, symSize: 0x5C }
  - { offset: 0xB2132, size: 0x8, addend: 0x0, symName: __ZN4core5slice3raw14from_raw_parts17h940c03a5e59adb3fE, symObjAddr: 0x2CC, symBinAddr: 0x3BFF4, symSize: 0x58 }
  - { offset: 0xB2175, size: 0x8, addend: 0x0, symName: __ZN4core5slice3raw14from_raw_parts17hc8e6d23bf30a7f1cE, symObjAddr: 0x324, symBinAddr: 0x3C04C, symSize: 0x58 }
  - { offset: 0xB21B8, size: 0x8, addend: 0x0, symName: __ZN4core5slice3raw14from_raw_parts17hfee18d5170a9a2f7E, symObjAddr: 0x3D4, symBinAddr: 0x3C0A4, symSize: 0x58 }
  - { offset: 0xB21FB, size: 0x8, addend: 0x0, symName: __ZN4core5slice3raw18from_raw_parts_mut17hce8603594695a9f9E, symObjAddr: 0x42C, symBinAddr: 0x3C0FC, symSize: 0x58 }
  - { offset: 0xB2564, size: 0x8, addend: 0x0, symName: '__ZN47_$LT$std..fs..File$u20$as$u20$std..io..Read$GT$16is_read_vectored17h7814eddf87d14d80E', symObjAddr: 0x0, symBinAddr: 0x3C154, symSize: 0x18 }
  - { offset: 0xB2580, size: 0x8, addend: 0x0, symName: '__ZN47_$LT$std..fs..File$u20$as$u20$std..io..Read$GT$16is_read_vectored17h7814eddf87d14d80E', symObjAddr: 0x0, symBinAddr: 0x3C154, symSize: 0x18 }
  - { offset: 0xB260A, size: 0x8, addend: 0x0, symName: '__ZN59_$LT$std..fs..File$u20$as$u20$std..os..fd..raw..AsRawFd$GT$9as_raw_fd17hfe8804b0cf9ecc00E', symObjAddr: 0x2C, symBinAddr: 0x3C16C, symSize: 0x18 }
  - { offset: 0xB3308, size: 0x8, addend: 0x0, symName: '__ZN6trx_rs12any_trx_file10AnyTrxFile11dps_entries28_$u7b$$u7b$closure$u7d$$u7d$17hda501c38a5f9f62bE', symObjAddr: 0x1068, symBinAddr: 0x3C6B4, symSize: 0x4C }
  - { offset: 0xB333E, size: 0x8, addend: 0x0, symName: '__ZN6trx_rs12any_trx_file10AnyTrxFile11dps_entries28_$u7b$$u7b$closure$u7d$$u7d$17he509d7f13f0cdec6E', symObjAddr: 0x10B4, symBinAddr: 0x3C700, symSize: 0x4C }
  - { offset: 0xB3374, size: 0x8, addend: 0x0, symName: '__ZN6trx_rs12any_trx_file10AnyTrxFile11dps_entries28_$u7b$$u7b$closure$u7d$$u7d$17he8167a227dbc5a07E', symObjAddr: 0x1100, symBinAddr: 0x3C74C, symSize: 0x4C }
  - { offset: 0xB33AF, size: 0x8, addend: 0x0, symName: '__ZN6trx_rs12any_trx_file10AnyTrxFile11dps_entries28_$u7b$$u7b$closure$u7d$$u7d$28_$u7b$$u7b$closure$u7d$$u7d$17h09015c71fb8e62bbE', symObjAddr: 0x114C, symBinAddr: 0x3C798, symSize: 0x70 }
  - { offset: 0xB341B, size: 0x8, addend: 0x0, symName: '__ZN6trx_rs12any_trx_file10AnyTrxFile11dps_entries28_$u7b$$u7b$closure$u7d$$u7d$28_$u7b$$u7b$closure$u7d$$u7d$17h571ed2062f4d8725E', symObjAddr: 0x11BC, symBinAddr: 0x3C808, symSize: 0x70 }
  - { offset: 0xB3487, size: 0x8, addend: 0x0, symName: '__ZN6trx_rs12any_trx_file10AnyTrxFile11dps_entries28_$u7b$$u7b$closure$u7d$$u7d$28_$u7b$$u7b$closure$u7d$$u7d$17ha361afa6d7fc41d5E', symObjAddr: 0x122C, symBinAddr: 0x3C878, symSize: 0x70 }
  - { offset: 0xB3548, size: 0x8, addend: 0x0, symName: '__ZN6trx_rs12any_trx_file10AnyTrxFile11dpv_entries28_$u7b$$u7b$closure$u7d$$u7d$17h7cf6259e75c55f88E', symObjAddr: 0x129C, symBinAddr: 0x3C8E8, symSize: 0x4C }
  - { offset: 0xB357E, size: 0x8, addend: 0x0, symName: '__ZN6trx_rs12any_trx_file10AnyTrxFile11dpv_entries28_$u7b$$u7b$closure$u7d$$u7d$17h88debf8f982c53a9E', symObjAddr: 0x12E8, symBinAddr: 0x3C934, symSize: 0x4C }
  - { offset: 0xB35B4, size: 0x8, addend: 0x0, symName: '__ZN6trx_rs12any_trx_file10AnyTrxFile11dpv_entries28_$u7b$$u7b$closure$u7d$$u7d$17hfc1f769db96d8a2bE', symObjAddr: 0x1334, symBinAddr: 0x3C980, symSize: 0x4C }
  - { offset: 0xB35EF, size: 0x8, addend: 0x0, symName: '__ZN6trx_rs12any_trx_file10AnyTrxFile11dpv_entries28_$u7b$$u7b$closure$u7d$$u7d$28_$u7b$$u7b$closure$u7d$$u7d$17hb3af148c20b6dbf3E', symObjAddr: 0x1380, symBinAddr: 0x3C9CC, symSize: 0x70 }
  - { offset: 0xB365B, size: 0x8, addend: 0x0, symName: '__ZN6trx_rs12any_trx_file10AnyTrxFile11dpv_entries28_$u7b$$u7b$closure$u7d$$u7d$28_$u7b$$u7b$closure$u7d$$u7d$17hb9fc30c84ae32f48E', symObjAddr: 0x13F0, symBinAddr: 0x3CA3C, symSize: 0x70 }
  - { offset: 0xB36C7, size: 0x8, addend: 0x0, symName: '__ZN6trx_rs12any_trx_file10AnyTrxFile11dpv_entries28_$u7b$$u7b$closure$u7d$$u7d$28_$u7b$$u7b$closure$u7d$$u7d$17hd64b2f95957fa705E', symObjAddr: 0x1460, symBinAddr: 0x3CAAC, symSize: 0x70 }
  - { offset: 0xB3749, size: 0x8, addend: 0x0, symName: '__ZN6trx_rs12any_trx_file10AnyTrxFile17dpg_group_entries28_$u7b$$u7b$closure$u7d$$u7d$17h4991acf70467bd89E', symObjAddr: 0x1728, symBinAddr: 0x3CB1C, symSize: 0x24 }
  - { offset: 0xB377F, size: 0x8, addend: 0x0, symName: '__ZN6trx_rs12any_trx_file10AnyTrxFile17dpg_group_entries28_$u7b$$u7b$closure$u7d$$u7d$17h5af2a4d0c5d60568E', symObjAddr: 0x174C, symBinAddr: 0x3CB40, symSize: 0x24 }
  - { offset: 0xB37B5, size: 0x8, addend: 0x0, symName: '__ZN6trx_rs12any_trx_file10AnyTrxFile17dpg_group_entries28_$u7b$$u7b$closure$u7d$$u7d$17hc3626f6e5c8dcf8dE', symObjAddr: 0x1770, symBinAddr: 0x3CB64, symSize: 0x24 }
  - { offset: 0xB382C, size: 0x8, addend: 0x0, symName: __ZN6trx_rs12any_trx_file25collect_dpg_group_entries17h90296d7c50aa7d38E, symObjAddr: 0x1C50, symBinAddr: 0x3CB88, symSize: 0x64 }
  - { offset: 0xB3861, size: 0x8, addend: 0x0, symName: __ZN6trx_rs12any_trx_file25collect_dpg_group_entries17hc760508861756095E, symObjAddr: 0x1CB4, symBinAddr: 0x3CBEC, symSize: 0x64 }
  - { offset: 0xB3896, size: 0x8, addend: 0x0, symName: __ZN6trx_rs12any_trx_file25collect_dpg_group_entries17hc808c90add38881dE, symObjAddr: 0x1D18, symBinAddr: 0x3CC50, symSize: 0x64 }
  - { offset: 0xB38D0, size: 0x8, addend: 0x0, symName: '__ZN6trx_rs12any_trx_file25collect_dpg_group_entries28_$u7b$$u7b$closure$u7d$$u7d$17h4e8ec516959c819cE', symObjAddr: 0x1D7C, symBinAddr: 0x3CCB4, symSize: 0xDC }
  - { offset: 0xB392B, size: 0x8, addend: 0x0, symName: '__ZN6trx_rs12any_trx_file25collect_dpg_group_entries28_$u7b$$u7b$closure$u7d$$u7d$17h60fa919f42df1689E', symObjAddr: 0x1E58, symBinAddr: 0x3CD90, symSize: 0xDC }
  - { offset: 0xB3986, size: 0x8, addend: 0x0, symName: '__ZN6trx_rs12any_trx_file25collect_dpg_group_entries28_$u7b$$u7b$closure$u7d$$u7d$17hfa78d2ab60eacf8aE', symObjAddr: 0x1F34, symBinAddr: 0x3CE6C, symSize: 0xDC }
  - { offset: 0xB5051, size: 0x8, addend: 0x0, symName: __ZN6trx_rs12any_trx_file10AnyTrxFile10with_typed17h5f6be9906a86071aE, symObjAddr: 0x2E0, symBinAddr: 0x3C184, symSize: 0x14C }
  - { offset: 0xB5176, size: 0x8, addend: 0x0, symName: __ZN6trx_rs12any_trx_file10AnyTrxFile10with_typed17h950218597b60ec01E, symObjAddr: 0x70C, symBinAddr: 0x3C2D0, symSize: 0x14C }
  - { offset: 0xB5243, size: 0x8, addend: 0x0, symName: __ZN6trx_rs12any_trx_file10AnyTrxFile10with_typed17h970c21bf0120e4c7E, symObjAddr: 0x858, symBinAddr: 0x3C41C, symSize: 0x14C }
  - { offset: 0xB5358, size: 0x8, addend: 0x0, symName: __ZN6trx_rs12any_trx_file10AnyTrxFile10with_typed17hbec48eb099e3eac3E, symObjAddr: 0x9A4, symBinAddr: 0x3C568, symSize: 0x14C }
  - { offset: 0xB54AF, size: 0x8, addend: 0x0, symName: __ZN4core9ub_checks23maybe_is_nonoverlapping7runtime17h7f87fa3db59fc94dE, symObjAddr: 0x0, symBinAddr: 0x3CF48, symSize: 0xD8 }
  - { offset: 0xB5634, size: 0x8, addend: 0x0, symName: __ZN4core9ub_checks23maybe_is_nonoverlapping7runtime17h7f87fa3db59fc94dE, symObjAddr: 0x0, symBinAddr: 0x3CF48, symSize: 0xD8 }
  - { offset: 0xB5BFE, size: 0x8, addend: 0x0, symName: '__ZN104_$LT$core..iter..adapters..copied..Copied$LT$I$GT$$u20$as$u20$core..iter..traits..iterator..Iterator$GT$8try_fold17h5bf82d52d8384047E', symObjAddr: 0x80, symBinAddr: 0x3D020, symSize: 0x3C }
  - { offset: 0xB5C92, size: 0x8, addend: 0x0, symName: '__ZN104_$LT$core..iter..adapters..copied..Copied$LT$I$GT$$u20$as$u20$core..iter..traits..iterator..Iterator$GT$8try_fold17hd84f92e0baad8a09E', symObjAddr: 0xBC, symBinAddr: 0x3D05C, symSize: 0x3C }
  - { offset: 0xB5D26, size: 0x8, addend: 0x0, symName: '__ZN104_$LT$core..iter..adapters..copied..Copied$LT$I$GT$$u20$as$u20$core..iter..traits..iterator..Iterator$GT$9size_hint17hb9c3be72832fa41bE', symObjAddr: 0xF8, symBinAddr: 0x3D098, symSize: 0x24 }
  - { offset: 0xB5DD0, size: 0x8, addend: 0x0, symName: '__ZN4core4iter8adapters6copied13copy_try_fold28_$u7b$$u7b$closure$u7d$$u7d$17h6ab273ea1cb64862E', symObjAddr: 0x154, symBinAddr: 0x3D0F4, symSize: 0x34 }
  - { offset: 0xB5E57, size: 0x8, addend: 0x0, symName: '__ZN4core4iter8adapters6copied13copy_try_fold28_$u7b$$u7b$closure$u7d$$u7d$17hf13b32aaad824cfeE', symObjAddr: 0x188, symBinAddr: 0x3D128, symSize: 0x34 }
  - { offset: 0xB6063, size: 0x8, addend: 0x0, symName: __ZN4core4iter6traits8iterator8Iterator3map17h623b0a6816e171f0E, symObjAddr: 0x11C, symBinAddr: 0x3D0BC, symSize: 0x1C }
  - { offset: 0xB60BB, size: 0x8, addend: 0x0, symName: __ZN4core4iter6traits8iterator8Iterator3map17h9b32d6945f11df6bE, symObjAddr: 0x138, symBinAddr: 0x3D0D8, symSize: 0x1C }
  - { offset: 0xB6CD1, size: 0x8, addend: 0x0, symName: '__ZN99_$LT$core..array..iter..IntoIter$LT$T$C$_$GT$$u20$as$u20$core..iter..traits..iterator..Iterator$GT$4fold17hfc7b308b48ae257cE', symObjAddr: 0x1E0, symBinAddr: 0x3D15C, symSize: 0x84 }
  - { offset: 0xB80F9, size: 0x8, addend: 0x0, symName: '__ZN6trx_rs8trx_file16TrxFile$LT$P$GT$10lookup_dps28_$u7b$$u7b$closure$u7d$$u7d$17h021a5cc922b9eeadE', symObjAddr: 0x7A8, symBinAddr: 0x3D774, symSize: 0x80 }
  - { offset: 0xB818C, size: 0x8, addend: 0x0, symName: '__ZN6trx_rs8trx_file16TrxFile$LT$P$GT$10lookup_dps28_$u7b$$u7b$closure$u7d$$u7d$17h1ee83f634d2c9450E', symObjAddr: 0x828, symBinAddr: 0x3D7F4, symSize: 0x80 }
  - { offset: 0xB821F, size: 0x8, addend: 0x0, symName: '__ZN6trx_rs8trx_file16TrxFile$LT$P$GT$10lookup_dps28_$u7b$$u7b$closure$u7d$$u7d$17h6dabf1d6a1e68cc7E', symObjAddr: 0x8A8, symBinAddr: 0x3D874, symSize: 0x80 }
  - { offset: 0xB82B8, size: 0x8, addend: 0x0, symName: '__ZN6trx_rs8trx_file16TrxFile$LT$P$GT$10lookup_dpv28_$u7b$$u7b$closure$u7d$$u7d$17h2191169fe0fa874dE', symObjAddr: 0xA0C, symBinAddr: 0x3D9D8, symSize: 0x80 }
  - { offset: 0xB834B, size: 0x8, addend: 0x0, symName: '__ZN6trx_rs8trx_file16TrxFile$LT$P$GT$10lookup_dpv28_$u7b$$u7b$closure$u7d$$u7d$17h433f19446e7ac19fE', symObjAddr: 0xA8C, symBinAddr: 0x3DA58, symSize: 0x80 }
  - { offset: 0xB83DE, size: 0x8, addend: 0x0, symName: '__ZN6trx_rs8trx_file16TrxFile$LT$P$GT$10lookup_dpv28_$u7b$$u7b$closure$u7d$$u7d$17hb78ba235ced5da1fE', symObjAddr: 0xB0C, symBinAddr: 0x3DAD8, symSize: 0x80 }
  - { offset: 0xB8477, size: 0x8, addend: 0x0, symName: '__ZN6trx_rs8trx_file16TrxFile$LT$P$GT$11dpg_entries28_$u7b$$u7b$closure$u7d$$u7d$17h007f3bcecce83360E', symObjAddr: 0xE8C, symBinAddr: 0x3DE58, symSize: 0x80 }
  - { offset: 0xB850A, size: 0x8, addend: 0x0, symName: '__ZN6trx_rs8trx_file16TrxFile$LT$P$GT$11dpg_entries28_$u7b$$u7b$closure$u7d$$u7d$17h47c2735537088654E', symObjAddr: 0xF0C, symBinAddr: 0x3DED8, symSize: 0xAC }
  - { offset: 0xB8576, size: 0x8, addend: 0x0, symName: '__ZN6trx_rs8trx_file16TrxFile$LT$P$GT$11dpg_entries28_$u7b$$u7b$closure$u7d$$u7d$17h96509beb17f99e41E', symObjAddr: 0xFB8, symBinAddr: 0x3DF84, symSize: 0xAC }
  - { offset: 0xB85E2, size: 0x8, addend: 0x0, symName: '__ZN6trx_rs8trx_file16TrxFile$LT$P$GT$11dpg_entries28_$u7b$$u7b$closure$u7d$$u7d$17hf0374dbfec207cf4E', symObjAddr: 0x1064, symBinAddr: 0x3E030, symSize: 0x80 }
  - { offset: 0xB8675, size: 0x8, addend: 0x0, symName: '__ZN6trx_rs8trx_file16TrxFile$LT$P$GT$11dpg_entries28_$u7b$$u7b$closure$u7d$$u7d$17hf0e41081beb02c71E', symObjAddr: 0x10E4, symBinAddr: 0x3E0B0, symSize: 0x80 }
  - { offset: 0xB8708, size: 0x8, addend: 0x0, symName: '__ZN6trx_rs8trx_file16TrxFile$LT$P$GT$11dpg_entries28_$u7b$$u7b$closure$u7d$$u7d$17hf7bf32ef1f0caf35E', symObjAddr: 0x1164, symBinAddr: 0x3E130, symSize: 0xAC }
  - { offset: 0xB87A4, size: 0x8, addend: 0x0, symName: '__ZN6trx_rs8trx_file16TrxFile$LT$P$GT$11iter_groups28_$u7b$$u7b$closure$u7d$$u7d$17h3978bf4676a1e2e3E', symObjAddr: 0x1438, symBinAddr: 0x3E290, symSize: 0x7C }
  - { offset: 0xB8810, size: 0x8, addend: 0x0, symName: '__ZN6trx_rs8trx_file16TrxFile$LT$P$GT$11iter_groups28_$u7b$$u7b$closure$u7d$$u7d$17hdb01ad13738f86dfE', symObjAddr: 0x14B4, symBinAddr: 0x3E30C, symSize: 0x7C }
  - { offset: 0xB887C, size: 0x8, addend: 0x0, symName: '__ZN6trx_rs8trx_file16TrxFile$LT$P$GT$11iter_groups28_$u7b$$u7b$closure$u7d$$u7d$17he221d9668878aacaE', symObjAddr: 0x1530, symBinAddr: 0x3E388, symSize: 0x7C }
  - { offset: 0xB88EE, size: 0x8, addend: 0x0, symName: '__ZN6trx_rs8trx_file16TrxFile$LT$P$GT$15dpg_group_names28_$u7b$$u7b$closure$u7d$$u7d$17h3f0547d849db4579E', symObjAddr: 0x1E88, symBinAddr: 0x3E6D4, symSize: 0x30 }
  - { offset: 0xB8930, size: 0x8, addend: 0x0, symName: '__ZN6trx_rs8trx_file16TrxFile$LT$P$GT$15dpg_group_names28_$u7b$$u7b$closure$u7d$$u7d$17habb85c622e47c36bE', symObjAddr: 0x1EB8, symBinAddr: 0x3E704, symSize: 0x30 }
  - { offset: 0xB8972, size: 0x8, addend: 0x0, symName: '__ZN6trx_rs8trx_file16TrxFile$LT$P$GT$15dpg_group_names28_$u7b$$u7b$closure$u7d$$u7d$17hc61d344041bbc852E', symObjAddr: 0x1EE8, symBinAddr: 0x3E734, symSize: 0x30 }
  - { offset: 0xB89CF, size: 0x8, addend: 0x0, symName: '__ZN6trx_rs8trx_file16TrxFile$LT$P$GT$19group_entries_owned28_$u7b$$u7b$closure$u7d$$u7d$17h086ff74e6c06e476E', symObjAddr: 0x20F8, symBinAddr: 0x3E848, symSize: 0xB4 }
  - { offset: 0xB8A3C, size: 0x8, addend: 0x0, symName: '__ZN6trx_rs8trx_file16TrxFile$LT$P$GT$19group_entries_owned28_$u7b$$u7b$closure$u7d$$u7d$17h9cd25d185a4ba208E', symObjAddr: 0x21AC, symBinAddr: 0x3E8FC, symSize: 0xB4 }
  - { offset: 0xB8AA9, size: 0x8, addend: 0x0, symName: '__ZN6trx_rs8trx_file16TrxFile$LT$P$GT$19group_entries_owned28_$u7b$$u7b$closure$u7d$$u7d$17hc9d91b17ffddf067E', symObjAddr: 0x2260, symBinAddr: 0x3E9B0, symSize: 0xB4 }
  - { offset: 0xB8B46, size: 0x8, addend: 0x0, symName: '__ZN6trx_rs8trx_file16TrxFile$LT$P$GT$8iter_dps28_$u7b$$u7b$closure$u7d$$u7d$17h33fdf3b715089bb8E', symObjAddr: 0x4504, symBinAddr: 0x3EC38, symSize: 0x88 }
  - { offset: 0xB8BB2, size: 0x8, addend: 0x0, symName: '__ZN6trx_rs8trx_file16TrxFile$LT$P$GT$8iter_dps28_$u7b$$u7b$closure$u7d$$u7d$17h4f273d8253b71493E', symObjAddr: 0x458C, symBinAddr: 0x3ECC0, symSize: 0x88 }
  - { offset: 0xB8C1E, size: 0x8, addend: 0x0, symName: '__ZN6trx_rs8trx_file16TrxFile$LT$P$GT$8iter_dps28_$u7b$$u7b$closure$u7d$$u7d$17he9b9a42f648c55daE', symObjAddr: 0x4614, symBinAddr: 0x3ED48, symSize: 0x88 }
  - { offset: 0xB8CA5, size: 0x8, addend: 0x0, symName: '__ZN6trx_rs8trx_file16TrxFile$LT$P$GT$8iter_dpv28_$u7b$$u7b$closure$u7d$$u7d$17h310f2026b38ab09eE', symObjAddr: 0x4750, symBinAddr: 0x3EE84, symSize: 0x88 }
  - { offset: 0xB8D11, size: 0x8, addend: 0x0, symName: '__ZN6trx_rs8trx_file16TrxFile$LT$P$GT$8iter_dpv28_$u7b$$u7b$closure$u7d$$u7d$17h3973d750a6398d84E', symObjAddr: 0x47D8, symBinAddr: 0x3EF0C, symSize: 0x88 }
  - { offset: 0xB8D7D, size: 0x8, addend: 0x0, symName: '__ZN6trx_rs8trx_file16TrxFile$LT$P$GT$8iter_dpv28_$u7b$$u7b$closure$u7d$$u7d$17h4a79badcce150776E', symObjAddr: 0x4860, symBinAddr: 0x3EF94, symSize: 0x88 }
  - { offset: 0xBAF31, size: 0x8, addend: 0x0, symName: '__ZN6trx_rs8trx_file16TrxFile$LT$P$GT$10from_parts17h397a5f2f0683e75bE', symObjAddr: 0x214, symBinAddr: 0x3D1E0, symSize: 0x190 }
  - { offset: 0xBAF5D, size: 0x8, addend: 0x0, symName: '__ZN6trx_rs8trx_file16TrxFile$LT$P$GT$10from_parts17h642d3341a75bcb70E', symObjAddr: 0x3A4, symBinAddr: 0x3D370, symSize: 0x190 }
  - { offset: 0xBAF89, size: 0x8, addend: 0x0, symName: '__ZN6trx_rs8trx_file16TrxFile$LT$P$GT$10from_parts17hff4941ecf1cb79a0E', symObjAddr: 0x534, symBinAddr: 0x3D500, symSize: 0x190 }
  - { offset: 0xBB10D, size: 0x8, addend: 0x0, symName: '__ZN6trx_rs8trx_file16TrxFile$LT$P$GT$10lookup_dps17h90b36ebccc97cf91E', symObjAddr: 0x6C4, symBinAddr: 0x3D690, symSize: 0x4C }
  - { offset: 0xBB148, size: 0x8, addend: 0x0, symName: '__ZN6trx_rs8trx_file16TrxFile$LT$P$GT$10lookup_dps17hab4bfb80d80dc1edE', symObjAddr: 0x710, symBinAddr: 0x3D6DC, symSize: 0x4C }
  - { offset: 0xBB183, size: 0x8, addend: 0x0, symName: '__ZN6trx_rs8trx_file16TrxFile$LT$P$GT$10lookup_dps17hbe74b2cf420ea07dE', symObjAddr: 0x75C, symBinAddr: 0x3D728, symSize: 0x4C }
  - { offset: 0xBB1BE, size: 0x8, addend: 0x0, symName: '__ZN6trx_rs8trx_file16TrxFile$LT$P$GT$10lookup_dpv17h3ce65543163a031cE', symObjAddr: 0x928, symBinAddr: 0x3D8F4, symSize: 0x4C }
  - { offset: 0xBB1F9, size: 0x8, addend: 0x0, symName: '__ZN6trx_rs8trx_file16TrxFile$LT$P$GT$10lookup_dpv17hccd34900c0d1e01dE', symObjAddr: 0x974, symBinAddr: 0x3D940, symSize: 0x4C }
  - { offset: 0xBB234, size: 0x8, addend: 0x0, symName: '__ZN6trx_rs8trx_file16TrxFile$LT$P$GT$10lookup_dpv17hfe1cd4ec558bce42E', symObjAddr: 0x9C0, symBinAddr: 0x3D98C, symSize: 0x4C }
  - { offset: 0xBB28D, size: 0x8, addend: 0x0, symName: '__ZN6trx_rs8trx_file16TrxFile$LT$P$GT$11dpg_entries17h39697ae516d04d3fE', symObjAddr: 0xB8C, symBinAddr: 0x3DB58, symSize: 0x100 }
  - { offset: 0xBB305, size: 0x8, addend: 0x0, symName: '__ZN6trx_rs8trx_file16TrxFile$LT$P$GT$11dpg_entries17hafac32d5efc88ea6E', symObjAddr: 0xC8C, symBinAddr: 0x3DC58, symSize: 0x100 }
  - { offset: 0xBB37D, size: 0x8, addend: 0x0, symName: '__ZN6trx_rs8trx_file16TrxFile$LT$P$GT$11dpg_entries17hf1d98c314077e2baE', symObjAddr: 0xD8C, symBinAddr: 0x3DD58, symSize: 0x100 }
  - { offset: 0xBB42D, size: 0x8, addend: 0x0, symName: '__ZN6trx_rs8trx_file16TrxFile$LT$P$GT$11iter_groups17h1eff3be9d465066dE', symObjAddr: 0x1384, symBinAddr: 0x3E1DC, symSize: 0x3C }
  - { offset: 0xBB459, size: 0x8, addend: 0x0, symName: '__ZN6trx_rs8trx_file16TrxFile$LT$P$GT$11iter_groups17hbc5a497db8132a72E', symObjAddr: 0x13C0, symBinAddr: 0x3E218, symSize: 0x3C }
  - { offset: 0xBB485, size: 0x8, addend: 0x0, symName: '__ZN6trx_rs8trx_file16TrxFile$LT$P$GT$11iter_groups17hfa01b5f03a5a0c60E', symObjAddr: 0x13FC, symBinAddr: 0x3E254, symSize: 0x3C }
  - { offset: 0xBB4B1, size: 0x8, addend: 0x0, symName: '__ZN6trx_rs8trx_file16TrxFile$LT$P$GT$11nb_vertices17h8fcaaf5666d2652cE', symObjAddr: 0x15AC, symBinAddr: 0x3E404, symSize: 0x28 }
  - { offset: 0xBB4DC, size: 0x8, addend: 0x0, symName: '__ZN6trx_rs8trx_file16TrxFile$LT$P$GT$11nb_vertices17ha586c5a693242f66E', symObjAddr: 0x15D4, symBinAddr: 0x3E42C, symSize: 0x28 }
  - { offset: 0xBB507, size: 0x8, addend: 0x0, symName: '__ZN6trx_rs8trx_file16TrxFile$LT$P$GT$11nb_vertices17hadfc7b619eb1ec50E', symObjAddr: 0x15FC, symBinAddr: 0x3E454, symSize: 0x28 }
  - { offset: 0xBB557, size: 0x8, addend: 0x0, symName: '__ZN6trx_rs8trx_file16TrxFile$LT$P$GT$14nb_streamlines17h2005e06f7d71d35eE', symObjAddr: 0x1780, symBinAddr: 0x3E47C, symSize: 0x7C }
  - { offset: 0xBB59F, size: 0x8, addend: 0x0, symName: '__ZN6trx_rs8trx_file16TrxFile$LT$P$GT$14nb_streamlines17h7ad23d08a36c69e5E', symObjAddr: 0x17FC, symBinAddr: 0x3E4F8, symSize: 0x7C }
  - { offset: 0xBB5E7, size: 0x8, addend: 0x0, symName: '__ZN6trx_rs8trx_file16TrxFile$LT$P$GT$14nb_streamlines17he55cb1a46404ec7bE', symObjAddr: 0x1878, symBinAddr: 0x3E574, symSize: 0x7C }
  - { offset: 0xBB62F, size: 0x8, addend: 0x0, symName: '__ZN6trx_rs8trx_file16TrxFile$LT$P$GT$15dpg_group_names17hc1b0e7dfabf720e6E', symObjAddr: 0x1DA4, symBinAddr: 0x3E5F0, symSize: 0x4C }
  - { offset: 0xBB65B, size: 0x8, addend: 0x0, symName: '__ZN6trx_rs8trx_file16TrxFile$LT$P$GT$15dpg_group_names17hc3fcc4dd1d444bb9E', symObjAddr: 0x1DF0, symBinAddr: 0x3E63C, symSize: 0x4C }
  - { offset: 0xBB687, size: 0x8, addend: 0x0, symName: '__ZN6trx_rs8trx_file16TrxFile$LT$P$GT$15dpg_group_names17hd4ab9830d0e9a154E', symObjAddr: 0x1E3C, symBinAddr: 0x3E688, symSize: 0x4C }
  - { offset: 0xBB6EF, size: 0x8, addend: 0x0, symName: '__ZN6trx_rs8trx_file16TrxFile$LT$P$GT$19group_entries_owned17h1547b14d2ef3758dE', symObjAddr: 0x2014, symBinAddr: 0x3E764, symSize: 0x4C }
  - { offset: 0xBB71B, size: 0x8, addend: 0x0, symName: '__ZN6trx_rs8trx_file16TrxFile$LT$P$GT$19group_entries_owned17h8f3c59ada1570f1aE', symObjAddr: 0x2060, symBinAddr: 0x3E7B0, symSize: 0x4C }
  - { offset: 0xBB747, size: 0x8, addend: 0x0, symName: '__ZN6trx_rs8trx_file16TrxFile$LT$P$GT$19group_entries_owned17haaf5f1a9b7fbe47fE', symObjAddr: 0x20AC, symBinAddr: 0x3E7FC, symSize: 0x4C }
  - { offset: 0xBB773, size: 0x8, addend: 0x0, symName: '__ZN6trx_rs8trx_file16TrxFile$LT$P$GT$4load17h618521f6577f7dabE', symObjAddr: 0x40D8, symBinAddr: 0x3EA64, symSize: 0x28 }
  - { offset: 0xBB79F, size: 0x8, addend: 0x0, symName: '__ZN6trx_rs8trx_file16TrxFile$LT$P$GT$4load17hb0fecdf4e4664712E', symObjAddr: 0x4100, symBinAddr: 0x3EA8C, symSize: 0x28 }
  - { offset: 0xBB7CB, size: 0x8, addend: 0x0, symName: '__ZN6trx_rs8trx_file16TrxFile$LT$P$GT$4load17hb13a9e1caa60f063E', symObjAddr: 0x4128, symBinAddr: 0x3EAB4, symSize: 0x28 }
  - { offset: 0xBB804, size: 0x8, addend: 0x0, symName: '__ZN6trx_rs8trx_file16TrxFile$LT$P$GT$6header17h67e14e97f88abcd8E', symObjAddr: 0x43A8, symBinAddr: 0x3EADC, symSize: 0x14 }
  - { offset: 0xBB82F, size: 0x8, addend: 0x0, symName: '__ZN6trx_rs8trx_file16TrxFile$LT$P$GT$6header17hc6fd354805026665E', symObjAddr: 0x43BC, symBinAddr: 0x3EAF0, symSize: 0x14 }
  - { offset: 0xBB85A, size: 0x8, addend: 0x0, symName: '__ZN6trx_rs8trx_file16TrxFile$LT$P$GT$6header17hd4e40eaa5205403cE', symObjAddr: 0x43D0, symBinAddr: 0x3EB04, symSize: 0x14 }
  - { offset: 0xBB8AC, size: 0x8, addend: 0x0, symName: '__ZN6trx_rs8trx_file16TrxFile$LT$P$GT$7offsets17h06841ea1914f94d0E', symObjAddr: 0x43E4, symBinAddr: 0x3EB18, symSize: 0x24 }
  - { offset: 0xBB8D7, size: 0x8, addend: 0x0, symName: '__ZN6trx_rs8trx_file16TrxFile$LT$P$GT$7offsets17h98fdf9f9db3811b4E', symObjAddr: 0x4408, symBinAddr: 0x3EB3C, symSize: 0x24 }
  - { offset: 0xBB902, size: 0x8, addend: 0x0, symName: '__ZN6trx_rs8trx_file16TrxFile$LT$P$GT$7offsets17hc94ea6dd50bc4ef6E', symObjAddr: 0x442C, symBinAddr: 0x3EB60, symSize: 0x24 }
  - { offset: 0xBB92D, size: 0x8, addend: 0x0, symName: '__ZN6trx_rs8trx_file16TrxFile$LT$P$GT$8iter_dps17h235554847719e384E', symObjAddr: 0x4450, symBinAddr: 0x3EB84, symSize: 0x3C }
  - { offset: 0xBB959, size: 0x8, addend: 0x0, symName: '__ZN6trx_rs8trx_file16TrxFile$LT$P$GT$8iter_dps17h370bb97c5571912cE', symObjAddr: 0x448C, symBinAddr: 0x3EBC0, symSize: 0x3C }
  - { offset: 0xBB985, size: 0x8, addend: 0x0, symName: '__ZN6trx_rs8trx_file16TrxFile$LT$P$GT$8iter_dps17hb3641fde3107ab4bE', symObjAddr: 0x44C8, symBinAddr: 0x3EBFC, symSize: 0x3C }
  - { offset: 0xBB9B1, size: 0x8, addend: 0x0, symName: '__ZN6trx_rs8trx_file16TrxFile$LT$P$GT$8iter_dpv17h17b2d5c6cbc62f8dE', symObjAddr: 0x469C, symBinAddr: 0x3EDD0, symSize: 0x3C }
  - { offset: 0xBB9DD, size: 0x8, addend: 0x0, symName: '__ZN6trx_rs8trx_file16TrxFile$LT$P$GT$8iter_dpv17h356e6d9b83cf8cf6E', symObjAddr: 0x46D8, symBinAddr: 0x3EE0C, symSize: 0x3C }
  - { offset: 0xBBA09, size: 0x8, addend: 0x0, symName: '__ZN6trx_rs8trx_file16TrxFile$LT$P$GT$8iter_dpv17h870432040c06534cE', symObjAddr: 0x4714, symBinAddr: 0x3EE48, symSize: 0x3C }
  - { offset: 0xBBA69, size: 0x8, addend: 0x0, symName: '__ZN6trx_rs8trx_file16TrxFile$LT$P$GT$9positions17h1a8810882a2d66eeE', symObjAddr: 0x4BD0, symBinAddr: 0x3F01C, symSize: 0x28 }
  - { offset: 0xBBAC8, size: 0x8, addend: 0x0, symName: '__ZN6trx_rs8trx_file16TrxFile$LT$P$GT$9positions17h58ad71e37808d19aE', symObjAddr: 0x4BF8, symBinAddr: 0x3F044, symSize: 0x28 }
  - { offset: 0xBBB27, size: 0x8, addend: 0x0, symName: '__ZN6trx_rs8trx_file16TrxFile$LT$P$GT$9positions17hc814012fa726a2ffE', symObjAddr: 0x4C20, symBinAddr: 0x3F06C, symSize: 0x28 }
  - { offset: 0xBBC4A, size: 0x8, addend: 0x0, symName: __ZN6trx_rs8trx_file9DataArray10cast_slice17h9e55f10fc1d44cefE, symObjAddr: 0x4E74, symBinAddr: 0x3F094, symSize: 0x24 }
  - { offset: 0xBBF55, size: 0x8, addend: 0x0, symName: '__ZN4core5array4iter10iter_inner78PolymorphicIter$LT$$u5b$core..mem..maybe_uninit..MaybeUninit$LT$T$GT$$u5d$$GT$8try_fold28_$u7b$$u7b$closure$u7d$$u7d$17h97dfd07bac4845c0E', symObjAddr: 0x20C, symBinAddr: 0x3F0B8, symSize: 0xA8 }
  - { offset: 0xBC42A, size: 0x8, addend: 0x0, symName: __ZN7memmap22os9MmapInner3len17h503ab44eacf9b4b1E, symObjAddr: 0x0, symBinAddr: 0x3F160, symSize: 0x18 }
  - { offset: 0xBC4F2, size: 0x8, addend: 0x0, symName: __ZN7memmap22os9MmapInner3len17h503ab44eacf9b4b1E, symObjAddr: 0x0, symBinAddr: 0x3F160, symSize: 0x18 }
  - { offset: 0xBC522, size: 0x8, addend: 0x0, symName: __ZN7memmap22os9MmapInner3ptr17h92706f9c13e391eaE, symObjAddr: 0x18, symBinAddr: 0x3F178, symSize: 0x18 }
  - { offset: 0xBC57D, size: 0x8, addend: 0x0, symName: __ZN5alloc3fmt6format17h26c40a64e20b306dE, symObjAddr: 0x0, symBinAddr: 0x3F190, symSize: 0xD8 }
  - { offset: 0xBCA95, size: 0x8, addend: 0x0, symName: __ZN5alloc3fmt6format17h26c40a64e20b306dE, symObjAddr: 0x0, symBinAddr: 0x3F190, symSize: 0xD8 }
  - { offset: 0xBCC45, size: 0x8, addend: 0x0, symName: '__ZN4core5slice3cmp81_$LT$impl$u20$core..cmp..PartialEq$LT$$u5b$U$u5d$$GT$$u20$for$u20$$u5b$T$u5d$$GT$2eq17h40bf6219c0d8d909E', symObjAddr: 0x0, symBinAddr: 0x3F268, symSize: 0x34 }
  - { offset: 0xBCC66, size: 0x8, addend: 0x0, symName: '__ZN4core5slice3cmp81_$LT$impl$u20$core..cmp..PartialEq$LT$$u5b$U$u5d$$GT$$u20$for$u20$$u5b$T$u5d$$GT$2eq17h40bf6219c0d8d909E', symObjAddr: 0x0, symBinAddr: 0x3F268, symSize: 0x34 }
  - { offset: 0xBCD3F, size: 0x8, addend: 0x0, symName: '__ZN9hashbrown3raw21RawTable$LT$T$C$A$GT$14reserve_rehash28_$u7b$$u7b$closure$u7d$$u7d$17h23068fc43b076dd6E', symObjAddr: 0x7DFC, symBinAddr: 0x40718, symSize: 0xC0 }
  - { offset: 0xBCF1D, size: 0x8, addend: 0x0, symName: '__ZN9hashbrown3raw21RawTable$LT$T$C$A$GT$14reserve_rehash28_$u7b$$u7b$closure$u7d$$u7d$17h2bc2c88d62fe9917E', symObjAddr: 0x7F7C, symBinAddr: 0x407D8, symSize: 0xC0 }
  - { offset: 0xBD0FB, size: 0x8, addend: 0x0, symName: '__ZN9hashbrown3raw21RawTable$LT$T$C$A$GT$14reserve_rehash28_$u7b$$u7b$closure$u7d$$u7d$17h2dcac6c528b7181fE', symObjAddr: 0x803C, symBinAddr: 0x40898, symSize: 0xC0 }
  - { offset: 0xBD2D9, size: 0x8, addend: 0x0, symName: '__ZN9hashbrown3raw21RawTable$LT$T$C$A$GT$14reserve_rehash28_$u7b$$u7b$closure$u7d$$u7d$17h387ecf74f9a37feeE', symObjAddr: 0x80FC, symBinAddr: 0x40958, symSize: 0x30 }
  - { offset: 0xBD329, size: 0x8, addend: 0x0, symName: '__ZN9hashbrown3raw21RawTable$LT$T$C$A$GT$14reserve_rehash28_$u7b$$u7b$closure$u7d$$u7d$17hbd587034f2d6b0c5E', symObjAddr: 0x833C, symBinAddr: 0x40988, symSize: 0x30 }
  - { offset: 0xBD379, size: 0x8, addend: 0x0, symName: '__ZN9hashbrown3raw21RawTable$LT$T$C$A$GT$14reserve_rehash28_$u7b$$u7b$closure$u7d$$u7d$17hd9dd180e309c022dE', symObjAddr: 0x836C, symBinAddr: 0x409B8, symSize: 0x30 }
  - { offset: 0xBD3E4, size: 0x8, addend: 0x0, symName: '__ZN9hashbrown3raw21RawTable$LT$T$C$A$GT$25find_or_find_insert_index28_$u7b$$u7b$closure$u7d$$u7d$17h211456c1ae4e55f8E', symObjAddr: 0xA35C, symBinAddr: 0x41188, symSize: 0xC4 }
  - { offset: 0xBD5D1, size: 0x8, addend: 0x0, symName: '__ZN9hashbrown3raw21RawTable$LT$T$C$A$GT$25find_or_find_insert_index28_$u7b$$u7b$closure$u7d$$u7d$17h98eabf279f7b5e98E', symObjAddr: 0xA7F4, symBinAddr: 0x4124C, symSize: 0xC4 }
  - { offset: 0xBD7BE, size: 0x8, addend: 0x0, symName: '__ZN9hashbrown3raw21RawTable$LT$T$C$A$GT$25find_or_find_insert_index28_$u7b$$u7b$closure$u7d$$u7d$17hc35630c607b40e08E', symObjAddr: 0xA8B8, symBinAddr: 0x41310, symSize: 0xC4 }
  - { offset: 0xBD9B1, size: 0x8, addend: 0x0, symName: '__ZN9hashbrown3raw21RawTable$LT$T$C$A$GT$4find28_$u7b$$u7b$closure$u7d$$u7d$17h32c3e0aeae7fac71E', symObjAddr: 0xCAA8, symBinAddr: 0x41A04, symSize: 0xC4 }
  - { offset: 0xBDB95, size: 0x8, addend: 0x0, symName: '__ZN9hashbrown3raw21RawTable$LT$T$C$A$GT$4find28_$u7b$$u7b$closure$u7d$$u7d$17h60530666e9dd6b8fE', symObjAddr: 0xCE08, symBinAddr: 0x41AC8, symSize: 0xC4 }
  - { offset: 0xBFF8C, size: 0x8, addend: 0x0, symName: '__ZN9hashbrown3raw13RawTableInner14prepare_resize28_$u7b$$u7b$closure$u7d$$u7d$17h09c47a26deb6cf5aE', symObjAddr: 0xC60, symBinAddr: 0x3F6B0, symSize: 0xB0 }
  - { offset: 0xC0140, size: 0x8, addend: 0x0, symName: '__ZN9hashbrown3raw13RawTableInner15rehash_in_place28_$u7b$$u7b$closure$u7d$$u7d$17h2c52a7575793c22bE', symObjAddr: 0xD10, symBinAddr: 0x3F760, symSize: 0x1F8 }
  - { offset: 0xC4AB3, size: 0x8, addend: 0x0, symName: __ZN9hashbrown3raw13RawTableInner13drop_elements17h54e064d72cca89f4E, symObjAddr: 0x2AC, symBinAddr: 0x3F29C, symSize: 0x15C }
  - { offset: 0xC4E8B, size: 0x8, addend: 0x0, symName: __ZN9hashbrown3raw13RawTableInner13drop_elements17h687320b3e8dd49d7E, symObjAddr: 0x564, symBinAddr: 0x3F3F8, symSize: 0x15C }
  - { offset: 0xC528A, size: 0x8, addend: 0x0, symName: __ZN9hashbrown3raw13RawTableInner13drop_elements17h86ed2d32a9c7464fE, symObjAddr: 0x84C, symBinAddr: 0x3F554, symSize: 0x15C }
  - { offset: 0xC583D, size: 0x8, addend: 0x0, symName: __ZN9hashbrown3raw13RawTableInner16drop_inner_table17h447df75e1af2d57dE, symObjAddr: 0x1068, symBinAddr: 0x3F958, symSize: 0xB0 }
  - { offset: 0xC5AC2, size: 0x8, addend: 0x0, symName: __ZN9hashbrown3raw13RawTableInner16drop_inner_table17h79c17880438906daE, symObjAddr: 0x1278, symBinAddr: 0x3FA08, symSize: 0xB0 }
  - { offset: 0xC5D47, size: 0x8, addend: 0x0, symName: __ZN9hashbrown3raw13RawTableInner16drop_inner_table17hd9e4b62ab7e0934aE, symObjAddr: 0x13D8, symBinAddr: 0x3FAB8, symSize: 0xB0 }
  - { offset: 0xC5F6B, size: 0x8, addend: 0x0, symName: __ZN9hashbrown3raw13RawTableInner17new_uninitialized17h7dc8200ae0c83ce2E, symObjAddr: 0x1488, symBinAddr: 0x3FB68, symSize: 0x2AC }
  - { offset: 0xC6298, size: 0x8, addend: 0x0, symName: __ZN9hashbrown3raw13RawTableInner22fallible_with_capacity17h12b1ff1a0018cac1E, symObjAddr: 0x1734, symBinAddr: 0x3FE14, symSize: 0x220 }
  - { offset: 0xC65ED, size: 0x8, addend: 0x0, symName: '__ZN9hashbrown3raw21RawIterRange$LT$T$GT$3new17h39bd9e6f576f45bcE', symObjAddr: 0x1B08, symBinAddr: 0x40034, symSize: 0x98 }
  - { offset: 0xC675A, size: 0x8, addend: 0x0, symName: '__ZN9hashbrown3raw21RawIterRange$LT$T$GT$3new17h80a6a486b37c1e83E', symObjAddr: 0x1CD0, symBinAddr: 0x400CC, symSize: 0x98 }
  - { offset: 0xC68C7, size: 0x8, addend: 0x0, symName: '__ZN9hashbrown3raw21RawIterRange$LT$T$GT$3new17hf52e8fe5a5105dcbE', symObjAddr: 0x1D68, symBinAddr: 0x40164, symSize: 0x98 }
  - { offset: 0xC6C5F, size: 0x8, addend: 0x0, symName: '__ZN9hashbrown3raw21RawIterRange$LT$T$GT$9next_impl17h3aeb213244974532E', symObjAddr: 0x3518, symBinAddr: 0x401FC, symSize: 0x1B4 }
  - { offset: 0xC70AA, size: 0x8, addend: 0x0, symName: '__ZN9hashbrown3raw21RawIterRange$LT$T$GT$9next_impl17hb10f222800b91f93E', symObjAddr: 0x36CC, symBinAddr: 0x403B0, symSize: 0x1B4 }
  - { offset: 0xC74F5, size: 0x8, addend: 0x0, symName: '__ZN9hashbrown3raw21RawIterRange$LT$T$GT$9next_impl17hdb5eb4f7a06fd438E', symObjAddr: 0x3880, symBinAddr: 0x40564, symSize: 0x1B4 }
  - { offset: 0xC7CF4, size: 0x8, addend: 0x0, symName: '__ZN9hashbrown3raw21RawTable$LT$T$C$A$GT$14reserve_rehash17h86c5780b50f53959E', symObjAddr: 0x4F68, symBinAddr: 0x13CB34, symSize: 0x7A4 }
  - { offset: 0xC85C5, size: 0x8, addend: 0x0, symName: '__ZN9hashbrown3raw21RawTable$LT$T$C$A$GT$14reserve_rehash17hd105792f7331736eE', symObjAddr: 0x6654, symBinAddr: 0x13D2D8, symSize: 0x7A0 }
  - { offset: 0xC8E7C, size: 0x8, addend: 0x0, symName: '__ZN9hashbrown3raw21RawTable$LT$T$C$A$GT$14reserve_rehash17hec5e95fa7d227d1dE', symObjAddr: 0x7598, symBinAddr: 0x13DA78, symSize: 0x7A4 }
  - { offset: 0xC9B9A, size: 0x8, addend: 0x0, symName: '__ZN9hashbrown3raw21RawTable$LT$T$C$A$GT$16with_capacity_in17h7d7eafbe9ebeb6b8E', symObjAddr: 0x8D8C, symBinAddr: 0x409E8, symSize: 0x98 }
  - { offset: 0xC9DCE, size: 0x8, addend: 0x0, symName: '__ZN9hashbrown3raw21RawTable$LT$T$C$A$GT$22insert_tagged_at_index17h434af0bdbba50f04E', symObjAddr: 0x92E4, symBinAddr: 0x40A80, symSize: 0x124 }
  - { offset: 0xCA2F4, size: 0x8, addend: 0x0, symName: '__ZN9hashbrown3raw21RawTable$LT$T$C$A$GT$22insert_tagged_at_index17h8e69a2759e3abf70E', symObjAddr: 0x952C, symBinAddr: 0x40BA4, symSize: 0x124 }
  - { offset: 0xCA81A, size: 0x8, addend: 0x0, symName: '__ZN9hashbrown3raw21RawTable$LT$T$C$A$GT$22insert_tagged_at_index17h946cc33f7073aab1E', symObjAddr: 0x9650, symBinAddr: 0x40CC8, symSize: 0x124 }
  - { offset: 0xCAC80, size: 0x8, addend: 0x0, symName: '__ZN9hashbrown3raw21RawTable$LT$T$C$A$GT$25find_or_find_insert_index17h6b48195a26bbfda6E', symObjAddr: 0x9C24, symBinAddr: 0x40DEC, symSize: 0x134 }
  - { offset: 0xCAF3A, size: 0x8, addend: 0x0, symName: '__ZN9hashbrown3raw21RawTable$LT$T$C$A$GT$25find_or_find_insert_index17h8e93088704f38851E', symObjAddr: 0x9D58, symBinAddr: 0x40F20, symSize: 0x134 }
  - { offset: 0xCB1F4, size: 0x8, addend: 0x0, symName: '__ZN9hashbrown3raw21RawTable$LT$T$C$A$GT$25find_or_find_insert_index17hcc2435cd109a79aeE', symObjAddr: 0xA0F4, symBinAddr: 0x41054, symSize: 0x134 }
  - { offset: 0xCBA98, size: 0x8, addend: 0x0, symName: '__ZN9hashbrown3raw21RawTable$LT$T$C$A$GT$4find17h32c15d6274f1d06aE', symObjAddr: 0xAD0C, symBinAddr: 0x413D4, symSize: 0x318 }
  - { offset: 0xCC020, size: 0x8, addend: 0x0, symName: '__ZN9hashbrown3raw21RawTable$LT$T$C$A$GT$4find17he1bb693882ed13c7E', symObjAddr: 0xBF90, symBinAddr: 0x416EC, symSize: 0x318 }
  - { offset: 0xCC791, size: 0x8, addend: 0x0, symName: '__ZN9hashbrown3raw21RawTable$LT$T$C$A$GT$7reserve17h30118c530d58d2f2E', symObjAddr: 0xD090, symBinAddr: 0x41B8C, symSize: 0xB0 }
  - { offset: 0xCC895, size: 0x8, addend: 0x0, symName: '__ZN9hashbrown3raw21RawTable$LT$T$C$A$GT$7reserve17h5e98b08c0b8dfeabE', symObjAddr: 0xD1F0, symBinAddr: 0x41C3C, symSize: 0xB0 }
  - { offset: 0xCC999, size: 0x8, addend: 0x0, symName: '__ZN9hashbrown3raw21RawTable$LT$T$C$A$GT$7reserve17hddce6b8ba40eb371E', symObjAddr: 0xD350, symBinAddr: 0x41CEC, symSize: 0xB0 }
  - { offset: 0xCCAA5, size: 0x8, addend: 0x0, symName: '__ZN4core5slice29_$LT$impl$u20$$u5b$T$u5d$$GT$3get17h1e50fd3b6b3ffb4fE', symObjAddr: 0x0, symBinAddr: 0x41D9C, symSize: 0x44 }
  - { offset: 0xCCDB8, size: 0x8, addend: 0x0, symName: '__ZN4core5slice29_$LT$impl$u20$$u5b$T$u5d$$GT$3get17h1e50fd3b6b3ffb4fE', symObjAddr: 0x0, symBinAddr: 0x41D9C, symSize: 0x44 }
  - { offset: 0xCD6BC, size: 0x8, addend: 0x0, symName: '__ZN8indexmap19Bucket$LT$K$C$V$GT$4refs17h2eda8deab3640b41E', symObjAddr: 0x108, symBinAddr: 0x41DE0, symSize: 0x1C }
  - { offset: 0xCE108, size: 0x8, addend: 0x0, symName: '__ZN10serde_json3map59Map$LT$alloc..string..String$C$serde_json..value..Value$GT$3new17h0608f5b12b282e3dE', symObjAddr: 0x24, symBinAddr: 0x41DFC, symSize: 0x38 }
  - { offset: 0xCE128, size: 0x8, addend: 0x0, symName: '__ZN10serde_json3map59Map$LT$alloc..string..String$C$serde_json..value..Value$GT$6insert17h45a4dd8c44f46cacE', symObjAddr: 0x5C, symBinAddr: 0x41E34, symSize: 0x54 }
  - { offset: 0xCE1CA, size: 0x8, addend: 0x0, symName: '__ZN102_$LT$core..iter..adapters..map..Map$LT$I$C$F$GT$$u20$as$u20$core..iter..traits..iterator..Iterator$GT$4fold17h30933ed489f717dcE', symObjAddr: 0x258, symBinAddr: 0x41E88, symSize: 0x58 }
  - { offset: 0xCE263, size: 0x8, addend: 0x0, symName: '__ZN102_$LT$core..iter..adapters..map..Map$LT$I$C$F$GT$$u20$as$u20$core..iter..traits..iterator..Iterator$GT$4fold17h74ea497d2285688aE', symObjAddr: 0x694, symBinAddr: 0x41EE0, symSize: 0x58 }
  - { offset: 0xCE2FC, size: 0x8, addend: 0x0, symName: '__ZN102_$LT$core..iter..adapters..map..Map$LT$I$C$F$GT$$u20$as$u20$core..iter..traits..iterator..Iterator$GT$4fold17hd3f8b447f178358bE', symObjAddr: 0xB58, symBinAddr: 0x41F38, symSize: 0x58 }
  - { offset: 0xCE395, size: 0x8, addend: 0x0, symName: '__ZN102_$LT$core..iter..adapters..map..Map$LT$I$C$F$GT$$u20$as$u20$core..iter..traits..iterator..Iterator$GT$4next17h05980eb2e9a954f5E', symObjAddr: 0xD68, symBinAddr: 0x41F90, symSize: 0xC4 }
  - { offset: 0xCE433, size: 0x8, addend: 0x0, symName: '__ZN102_$LT$core..iter..adapters..map..Map$LT$I$C$F$GT$$u20$as$u20$core..iter..traits..iterator..Iterator$GT$4next17h24b77934c64c4a09E', symObjAddr: 0xE2C, symBinAddr: 0x42054, symSize: 0x80 }
  - { offset: 0xCE4CF, size: 0x8, addend: 0x0, symName: '__ZN102_$LT$core..iter..adapters..map..Map$LT$I$C$F$GT$$u20$as$u20$core..iter..traits..iterator..Iterator$GT$4next17h267f9b8686f6ece6E', symObjAddr: 0xEAC, symBinAddr: 0x420D4, symSize: 0xAC }
  - { offset: 0xCE56C, size: 0x8, addend: 0x0, symName: '__ZN102_$LT$core..iter..adapters..map..Map$LT$I$C$F$GT$$u20$as$u20$core..iter..traits..iterator..Iterator$GT$4next17h27f8852d582c34a2E', symObjAddr: 0xF58, symBinAddr: 0x42180, symSize: 0xA8 }
  - { offset: 0xCE608, size: 0x8, addend: 0x0, symName: '__ZN102_$LT$core..iter..adapters..map..Map$LT$I$C$F$GT$$u20$as$u20$core..iter..traits..iterator..Iterator$GT$4next17h2c08f966d72f10ebE', symObjAddr: 0x1000, symBinAddr: 0x42228, symSize: 0xC4 }
  - { offset: 0xCE6A6, size: 0x8, addend: 0x0, symName: '__ZN102_$LT$core..iter..adapters..map..Map$LT$I$C$F$GT$$u20$as$u20$core..iter..traits..iterator..Iterator$GT$4next17h3a360a663b9235d7E', symObjAddr: 0x1144, symBinAddr: 0x422EC, symSize: 0xA8 }
  - { offset: 0xCE742, size: 0x8, addend: 0x0, symName: '__ZN102_$LT$core..iter..adapters..map..Map$LT$I$C$F$GT$$u20$as$u20$core..iter..traits..iterator..Iterator$GT$4next17h57ab38e6266a5a99E', symObjAddr: 0x137C, symBinAddr: 0x42394, symSize: 0x80 }
  - { offset: 0xCE7DE, size: 0x8, addend: 0x0, symName: '__ZN102_$LT$core..iter..adapters..map..Map$LT$I$C$F$GT$$u20$as$u20$core..iter..traits..iterator..Iterator$GT$4next17h5b98548d8c110494E', symObjAddr: 0x13FC, symBinAddr: 0x42414, symSize: 0xA8 }
  - { offset: 0xCE87A, size: 0x8, addend: 0x0, symName: '__ZN102_$LT$core..iter..adapters..map..Map$LT$I$C$F$GT$$u20$as$u20$core..iter..traits..iterator..Iterator$GT$4next17h5beb776db24eff17E', symObjAddr: 0x14A4, symBinAddr: 0x424BC, symSize: 0x80 }
  - { offset: 0xCE916, size: 0x8, addend: 0x0, symName: '__ZN102_$LT$core..iter..adapters..map..Map$LT$I$C$F$GT$$u20$as$u20$core..iter..traits..iterator..Iterator$GT$4next17h5c55d631c78e51b4E', symObjAddr: 0x1524, symBinAddr: 0x4253C, symSize: 0xA0 }
  - { offset: 0xCE9B2, size: 0x8, addend: 0x0, symName: '__ZN102_$LT$core..iter..adapters..map..Map$LT$I$C$F$GT$$u20$as$u20$core..iter..traits..iterator..Iterator$GT$4next17h68d142b105c3385cE', symObjAddr: 0x1644, symBinAddr: 0x425DC, symSize: 0xC4 }
  - { offset: 0xCEA50, size: 0x8, addend: 0x0, symName: '__ZN102_$LT$core..iter..adapters..map..Map$LT$I$C$F$GT$$u20$as$u20$core..iter..traits..iterator..Iterator$GT$4next17h74e4cc8373bff38bE', symObjAddr: 0x17AC, symBinAddr: 0x426A0, symSize: 0xA8 }
  - { offset: 0xCEAEC, size: 0x8, addend: 0x0, symName: '__ZN102_$LT$core..iter..adapters..map..Map$LT$I$C$F$GT$$u20$as$u20$core..iter..traits..iterator..Iterator$GT$4next17h83bdba70b6ae64cfE', symObjAddr: 0x18D4, symBinAddr: 0x42748, symSize: 0xA0 }
  - { offset: 0xCEB88, size: 0x8, addend: 0x0, symName: '__ZN102_$LT$core..iter..adapters..map..Map$LT$I$C$F$GT$$u20$as$u20$core..iter..traits..iterator..Iterator$GT$4next17h8b9497dbe298f281E', symObjAddr: 0x1974, symBinAddr: 0x427E8, symSize: 0xC4 }
  - { offset: 0xCEC26, size: 0x8, addend: 0x0, symName: '__ZN102_$LT$core..iter..adapters..map..Map$LT$I$C$F$GT$$u20$as$u20$core..iter..traits..iterator..Iterator$GT$4next17ha5f8053d3a5b33c9E', symObjAddr: 0x1AB8, symBinAddr: 0x428AC, symSize: 0xA8 }
  - { offset: 0xCECC2, size: 0x8, addend: 0x0, symName: '__ZN102_$LT$core..iter..adapters..map..Map$LT$I$C$F$GT$$u20$as$u20$core..iter..traits..iterator..Iterator$GT$4next17ha69c1bf7ff1c6fdfE', symObjAddr: 0x1B60, symBinAddr: 0x42954, symSize: 0xAC }
  - { offset: 0xCED5F, size: 0x8, addend: 0x0, symName: '__ZN102_$LT$core..iter..adapters..map..Map$LT$I$C$F$GT$$u20$as$u20$core..iter..traits..iterator..Iterator$GT$4next17haa76acd8d0e74d71E', symObjAddr: 0x1C0C, symBinAddr: 0x42A00, symSize: 0xA8 }
  - { offset: 0xCEDFB, size: 0x8, addend: 0x0, symName: '__ZN102_$LT$core..iter..adapters..map..Map$LT$I$C$F$GT$$u20$as$u20$core..iter..traits..iterator..Iterator$GT$4next17hbc232796d8ab8e3dE', symObjAddr: 0x1DC4, symBinAddr: 0x42AA8, symSize: 0xA8 }
  - { offset: 0xCEE97, size: 0x8, addend: 0x0, symName: '__ZN102_$LT$core..iter..adapters..map..Map$LT$I$C$F$GT$$u20$as$u20$core..iter..traits..iterator..Iterator$GT$4next17hbf86814fb0e054b7E', symObjAddr: 0x1E6C, symBinAddr: 0x42B50, symSize: 0xAC }
  - { offset: 0xCEF34, size: 0x8, addend: 0x0, symName: '__ZN102_$LT$core..iter..adapters..map..Map$LT$I$C$F$GT$$u20$as$u20$core..iter..traits..iterator..Iterator$GT$4next17hc7ca784ad04d7dcaE', symObjAddr: 0x1F98, symBinAddr: 0x42BFC, symSize: 0xC4 }
  - { offset: 0xCEFD2, size: 0x8, addend: 0x0, symName: '__ZN102_$LT$core..iter..adapters..map..Map$LT$I$C$F$GT$$u20$as$u20$core..iter..traits..iterator..Iterator$GT$4next17he07a65424240b15eE', symObjAddr: 0x205C, symBinAddr: 0x42CC0, symSize: 0xA0 }
  - { offset: 0xCF06E, size: 0x8, addend: 0x0, symName: '__ZN102_$LT$core..iter..adapters..map..Map$LT$I$C$F$GT$$u20$as$u20$core..iter..traits..iterator..Iterator$GT$4next17hf8fb2f90e5ac62adE', symObjAddr: 0x220C, symBinAddr: 0x42D60, symSize: 0xC4 }
  - { offset: 0xCF10C, size: 0x8, addend: 0x0, symName: '__ZN102_$LT$core..iter..adapters..map..Map$LT$I$C$F$GT$$u20$as$u20$core..iter..traits..iterator..Iterator$GT$4next17hfb51744e1bdeed86E', symObjAddr: 0x22D0, symBinAddr: 0x42E24, symSize: 0xA8 }
  - { offset: 0xCF1A8, size: 0x8, addend: 0x0, symName: '__ZN102_$LT$core..iter..adapters..map..Map$LT$I$C$F$GT$$u20$as$u20$core..iter..traits..iterator..Iterator$GT$4next17hfef2a6089ec6de1dE', symObjAddr: 0x2378, symBinAddr: 0x42ECC, symSize: 0xA8 }
  - { offset: 0xCF244, size: 0x8, addend: 0x0, symName: '__ZN102_$LT$core..iter..adapters..map..Map$LT$I$C$F$GT$$u20$as$u20$core..iter..traits..iterator..Iterator$GT$8try_fold17h071ef315c125a005E', symObjAddr: 0x2420, symBinAddr: 0x42F74, symSize: 0x54 }
  - { offset: 0xCF2E7, size: 0x8, addend: 0x0, symName: '__ZN102_$LT$core..iter..adapters..map..Map$LT$I$C$F$GT$$u20$as$u20$core..iter..traits..iterator..Iterator$GT$8try_fold17h9dd6678db00a7c4dE', symObjAddr: 0x2474, symBinAddr: 0x42FC8, symSize: 0x54 }
  - { offset: 0xCF38A, size: 0x8, addend: 0x0, symName: '__ZN102_$LT$core..iter..adapters..map..Map$LT$I$C$F$GT$$u20$as$u20$core..iter..traits..iterator..Iterator$GT$9size_hint17h079219176e80d866E', symObjAddr: 0x2538, symBinAddr: 0x4301C, symSize: 0x24 }
  - { offset: 0xCF3D1, size: 0x8, addend: 0x0, symName: '__ZN102_$LT$core..iter..adapters..map..Map$LT$I$C$F$GT$$u20$as$u20$core..iter..traits..iterator..Iterator$GT$9size_hint17h07cb1fb061b182c0E', symObjAddr: 0x255C, symBinAddr: 0x43040, symSize: 0x24 }
  - { offset: 0xCF418, size: 0x8, addend: 0x0, symName: '__ZN102_$LT$core..iter..adapters..map..Map$LT$I$C$F$GT$$u20$as$u20$core..iter..traits..iterator..Iterator$GT$9size_hint17h11acfd1871861a62E', symObjAddr: 0x25A4, symBinAddr: 0x43064, symSize: 0x24 }
  - { offset: 0xCF45F, size: 0x8, addend: 0x0, symName: '__ZN102_$LT$core..iter..adapters..map..Map$LT$I$C$F$GT$$u20$as$u20$core..iter..traits..iterator..Iterator$GT$9size_hint17h1385db4e648c2653E', symObjAddr: 0x25C8, symBinAddr: 0x43088, symSize: 0x24 }
  - { offset: 0xCF4A6, size: 0x8, addend: 0x0, symName: '__ZN102_$LT$core..iter..adapters..map..Map$LT$I$C$F$GT$$u20$as$u20$core..iter..traits..iterator..Iterator$GT$9size_hint17h13ea2b87c69835cfE', symObjAddr: 0x25EC, symBinAddr: 0x430AC, symSize: 0x24 }
  - { offset: 0xCF4ED, size: 0x8, addend: 0x0, symName: '__ZN102_$LT$core..iter..adapters..map..Map$LT$I$C$F$GT$$u20$as$u20$core..iter..traits..iterator..Iterator$GT$9size_hint17h15cdb649f76db68dE', symObjAddr: 0x2610, symBinAddr: 0x430D0, symSize: 0x24 }
  - { offset: 0xCF534, size: 0x8, addend: 0x0, symName: '__ZN102_$LT$core..iter..adapters..map..Map$LT$I$C$F$GT$$u20$as$u20$core..iter..traits..iterator..Iterator$GT$9size_hint17h29690e7c969890b1E', symObjAddr: 0x270C, symBinAddr: 0x430F4, symSize: 0x24 }
  - { offset: 0xCF57B, size: 0x8, addend: 0x0, symName: '__ZN102_$LT$core..iter..adapters..map..Map$LT$I$C$F$GT$$u20$as$u20$core..iter..traits..iterator..Iterator$GT$9size_hint17h5797bf48ab93164fE', symObjAddr: 0x2850, symBinAddr: 0x43118, symSize: 0x24 }
  - { offset: 0xCF5C2, size: 0x8, addend: 0x0, symName: '__ZN102_$LT$core..iter..adapters..map..Map$LT$I$C$F$GT$$u20$as$u20$core..iter..traits..iterator..Iterator$GT$9size_hint17h5e851c17d060af50E', symObjAddr: 0x28E0, symBinAddr: 0x4313C, symSize: 0x24 }
  - { offset: 0xCF609, size: 0x8, addend: 0x0, symName: '__ZN102_$LT$core..iter..adapters..map..Map$LT$I$C$F$GT$$u20$as$u20$core..iter..traits..iterator..Iterator$GT$9size_hint17h6e51f8829b3d7b13E', symObjAddr: 0x2994, symBinAddr: 0x43160, symSize: 0x24 }
  - { offset: 0xCF650, size: 0x8, addend: 0x0, symName: '__ZN102_$LT$core..iter..adapters..map..Map$LT$I$C$F$GT$$u20$as$u20$core..iter..traits..iterator..Iterator$GT$9size_hint17h72066c8288b64aadE', symObjAddr: 0x29B8, symBinAddr: 0x43184, symSize: 0x24 }
  - { offset: 0xCF697, size: 0x8, addend: 0x0, symName: '__ZN102_$LT$core..iter..adapters..map..Map$LT$I$C$F$GT$$u20$as$u20$core..iter..traits..iterator..Iterator$GT$9size_hint17h761ec8edfc3c74c1E', symObjAddr: 0x2A00, symBinAddr: 0x431A8, symSize: 0x24 }
  - { offset: 0xCF6DE, size: 0x8, addend: 0x0, symName: '__ZN102_$LT$core..iter..adapters..map..Map$LT$I$C$F$GT$$u20$as$u20$core..iter..traits..iterator..Iterator$GT$9size_hint17h76f275cd5a406dd6E', symObjAddr: 0x2A24, symBinAddr: 0x431CC, symSize: 0x24 }
  - { offset: 0xCF725, size: 0x8, addend: 0x0, symName: '__ZN102_$LT$core..iter..adapters..map..Map$LT$I$C$F$GT$$u20$as$u20$core..iter..traits..iterator..Iterator$GT$9size_hint17h904cfd8578be41a7E', symObjAddr: 0x2AD8, symBinAddr: 0x431F0, symSize: 0x24 }
  - { offset: 0xCF76C, size: 0x8, addend: 0x0, symName: '__ZN102_$LT$core..iter..adapters..map..Map$LT$I$C$F$GT$$u20$as$u20$core..iter..traits..iterator..Iterator$GT$9size_hint17h91699d6891adc77aE', symObjAddr: 0x2AFC, symBinAddr: 0x43214, symSize: 0x24 }
  - { offset: 0xCF7B3, size: 0x8, addend: 0x0, symName: '__ZN102_$LT$core..iter..adapters..map..Map$LT$I$C$F$GT$$u20$as$u20$core..iter..traits..iterator..Iterator$GT$9size_hint17h96750954cbab72f5E', symObjAddr: 0x2B44, symBinAddr: 0x43238, symSize: 0x24 }
  - { offset: 0xCF7FA, size: 0x8, addend: 0x0, symName: '__ZN102_$LT$core..iter..adapters..map..Map$LT$I$C$F$GT$$u20$as$u20$core..iter..traits..iterator..Iterator$GT$9size_hint17h97f2c6d205471958E', symObjAddr: 0x2B8C, symBinAddr: 0x4325C, symSize: 0x24 }
  - { offset: 0xCF841, size: 0x8, addend: 0x0, symName: '__ZN102_$LT$core..iter..adapters..map..Map$LT$I$C$F$GT$$u20$as$u20$core..iter..traits..iterator..Iterator$GT$9size_hint17ha03c1503fe6085f2E', symObjAddr: 0x2BF8, symBinAddr: 0x43280, symSize: 0x24 }
  - { offset: 0xCF888, size: 0x8, addend: 0x0, symName: '__ZN102_$LT$core..iter..adapters..map..Map$LT$I$C$F$GT$$u20$as$u20$core..iter..traits..iterator..Iterator$GT$9size_hint17hac231f0ed4e613aaE', symObjAddr: 0x2C88, symBinAddr: 0x432A4, symSize: 0x24 }
  - { offset: 0xCF8CF, size: 0x8, addend: 0x0, symName: '__ZN102_$LT$core..iter..adapters..map..Map$LT$I$C$F$GT$$u20$as$u20$core..iter..traits..iterator..Iterator$GT$9size_hint17hbffc20cacd6ac2c8E', symObjAddr: 0x2D60, symBinAddr: 0x432C8, symSize: 0x24 }
  - { offset: 0xCF916, size: 0x8, addend: 0x0, symName: '__ZN102_$LT$core..iter..adapters..map..Map$LT$I$C$F$GT$$u20$as$u20$core..iter..traits..iterator..Iterator$GT$9size_hint17hcb3d7d222c3a349bE', symObjAddr: 0x2DA8, symBinAddr: 0x432EC, symSize: 0x24 }
  - { offset: 0xCF95D, size: 0x8, addend: 0x0, symName: '__ZN102_$LT$core..iter..adapters..map..Map$LT$I$C$F$GT$$u20$as$u20$core..iter..traits..iterator..Iterator$GT$9size_hint17hcc9e71bc9b0de432E', symObjAddr: 0x2DCC, symBinAddr: 0x43310, symSize: 0x24 }
  - { offset: 0xCF9A4, size: 0x8, addend: 0x0, symName: '__ZN102_$LT$core..iter..adapters..map..Map$LT$I$C$F$GT$$u20$as$u20$core..iter..traits..iterator..Iterator$GT$9size_hint17hd189ecce41e606a4E', symObjAddr: 0x2DF0, symBinAddr: 0x43334, symSize: 0x24 }
  - { offset: 0xCF9EB, size: 0x8, addend: 0x0, symName: '__ZN102_$LT$core..iter..adapters..map..Map$LT$I$C$F$GT$$u20$as$u20$core..iter..traits..iterator..Iterator$GT$9size_hint17he0a226821a12fe8eE', symObjAddr: 0x2E80, symBinAddr: 0x43358, symSize: 0x24 }
  - { offset: 0xCFA32, size: 0x8, addend: 0x0, symName: '__ZN102_$LT$core..iter..adapters..map..Map$LT$I$C$F$GT$$u20$as$u20$core..iter..traits..iterator..Iterator$GT$9size_hint17he505b3908b4bad9bE', symObjAddr: 0x2EEC, symBinAddr: 0x4337C, symSize: 0x24 }
  - { offset: 0xCFA79, size: 0x8, addend: 0x0, symName: '__ZN102_$LT$core..iter..adapters..map..Map$LT$I$C$F$GT$$u20$as$u20$core..iter..traits..iterator..Iterator$GT$9size_hint17he69d1304f49cce95E', symObjAddr: 0x2F10, symBinAddr: 0x433A0, symSize: 0x24 }
  - { offset: 0xCFAC0, size: 0x8, addend: 0x0, symName: '__ZN102_$LT$core..iter..adapters..map..Map$LT$I$C$F$GT$$u20$as$u20$core..iter..traits..iterator..Iterator$GT$9size_hint17heabd52ef2bd23a94E', symObjAddr: 0x2F34, symBinAddr: 0x433C4, symSize: 0x24 }
  - { offset: 0xCFB07, size: 0x8, addend: 0x0, symName: '__ZN102_$LT$core..iter..adapters..map..Map$LT$I$C$F$GT$$u20$as$u20$core..iter..traits..iterator..Iterator$GT$9size_hint17hf41413bc9b8a21f0E', symObjAddr: 0x2FC4, symBinAddr: 0x433E8, symSize: 0x24 }
  - { offset: 0xCFB4E, size: 0x8, addend: 0x0, symName: '__ZN102_$LT$core..iter..adapters..map..Map$LT$I$C$F$GT$$u20$as$u20$core..iter..traits..iterator..Iterator$GT$9size_hint17hf96741686950182cE', symObjAddr: 0x300C, symBinAddr: 0x4340C, symSize: 0x24 }
  - { offset: 0xCFBF5, size: 0x8, addend: 0x0, symName: '__ZN4core4iter8adapters3map8map_fold28_$u7b$$u7b$closure$u7d$$u7d$17h1d63175c1f88794eE', symObjAddr: 0x481C, symBinAddr: 0x43974, symSize: 0x94 }
  - { offset: 0xCFC7C, size: 0x8, addend: 0x0, symName: '__ZN4core4iter8adapters3map8map_fold28_$u7b$$u7b$closure$u7d$$u7d$17h28604d07cda538aaE', symObjAddr: 0x4978, symBinAddr: 0x43A08, symSize: 0x98 }
  - { offset: 0xCFD01, size: 0x8, addend: 0x0, symName: '__ZN4core4iter8adapters3map8map_fold28_$u7b$$u7b$closure$u7d$$u7d$17h8aae0e3189d3a474E', symObjAddr: 0x5450, symBinAddr: 0x43AA0, symSize: 0x98 }
  - { offset: 0xCFD86, size: 0x8, addend: 0x0, symName: '__ZN4core4iter8adapters3map8map_fold28_$u7b$$u7b$closure$u7d$$u7d$17hf3b880dc62a7e71eE', symObjAddr: 0x5F9C, symBinAddr: 0x43B38, symSize: 0x98 }
  - { offset: 0xCFFA6, size: 0x8, addend: 0x0, symName: '__ZN4core4iter8adapters3map12map_try_fold28_$u7b$$u7b$closure$u7d$$u7d$17h1e00ad87024fc4adE', symObjAddr: 0x4430, symBinAddr: 0x4383C, symSize: 0x9C }
  - { offset: 0xD0038, size: 0x8, addend: 0x0, symName: '__ZN4core4iter8adapters3map12map_try_fold28_$u7b$$u7b$closure$u7d$$u7d$17h5aca7e0ed4e50129E', symObjAddr: 0x44CC, symBinAddr: 0x438D8, symSize: 0x9C }
  - { offset: 0xD09EC, size: 0x8, addend: 0x0, symName: __ZN4core4iter6traits8iterator8Iterator3map17h3d30e5dab8f3795eE, symObjAddr: 0x3054, symBinAddr: 0x43430, symSize: 0x30 }
  - { offset: 0xD0A5A, size: 0x8, addend: 0x0, symName: __ZN4core4iter6traits8iterator8Iterator3map17h69bd40d20776e13aE, symObjAddr: 0x3084, symBinAddr: 0x43460, symSize: 0x30 }
  - { offset: 0xD0AC8, size: 0x8, addend: 0x0, symName: __ZN4core4iter6traits8iterator8Iterator3map17h7a320f8b06450991E, symObjAddr: 0x30B4, symBinAddr: 0x43490, symSize: 0x30 }
  - { offset: 0xD0B36, size: 0x8, addend: 0x0, symName: __ZN4core4iter6traits8iterator8Iterator3map17h7f920bacbe95fda2E, symObjAddr: 0x30E4, symBinAddr: 0x434C0, symSize: 0x30 }
  - { offset: 0xD0BA4, size: 0x8, addend: 0x0, symName: __ZN4core4iter6traits8iterator8Iterator3map17h81be042010e50b84E, symObjAddr: 0x3114, symBinAddr: 0x434F0, symSize: 0x30 }
  - { offset: 0xD0C12, size: 0x8, addend: 0x0, symName: __ZN4core4iter6traits8iterator8Iterator3map17h8f5745b35b834221E, symObjAddr: 0x3144, symBinAddr: 0x43520, symSize: 0x30 }
  - { offset: 0xD0C80, size: 0x8, addend: 0x0, symName: __ZN4core4iter6traits8iterator8Iterator3map17ha24d033ccb67fe7cE, symObjAddr: 0x3174, symBinAddr: 0x43550, symSize: 0x30 }
  - { offset: 0xD0CEE, size: 0x8, addend: 0x0, symName: __ZN4core4iter6traits8iterator8Iterator3map17hd24aac94962c18b6E, symObjAddr: 0x31A4, symBinAddr: 0x43580, symSize: 0x30 }
  - { offset: 0xD0D5C, size: 0x8, addend: 0x0, symName: __ZN4core4iter6traits8iterator8Iterator3map17hf99c74ee0334bcceE, symObjAddr: 0x31D4, symBinAddr: 0x435B0, symSize: 0x30 }
  - { offset: 0xD0DCA, size: 0x8, addend: 0x0, symName: __ZN4core4iter6traits8iterator8Iterator7collect17h004d5267972784ddE, symObjAddr: 0x3234, symBinAddr: 0x435E0, symSize: 0x14 }
  - { offset: 0xD0E0B, size: 0x8, addend: 0x0, symName: __ZN4core4iter6traits8iterator8Iterator7collect17h1eab05d428ad761fE, symObjAddr: 0x3374, symBinAddr: 0x435F4, symSize: 0x14 }
  - { offset: 0xD0E4C, size: 0x8, addend: 0x0, symName: __ZN4core4iter6traits8iterator8Iterator7collect17h1f39a4f02619be75E, symObjAddr: 0x3388, symBinAddr: 0x43608, symSize: 0x14 }
  - { offset: 0xD0E8D, size: 0x8, addend: 0x0, symName: __ZN4core4iter6traits8iterator8Iterator7collect17h2f7fa280d1a72067E, symObjAddr: 0x33C4, symBinAddr: 0x4361C, symSize: 0x14 }
  - { offset: 0xD0ECE, size: 0x8, addend: 0x0, symName: __ZN4core4iter6traits8iterator8Iterator7collect17h40c9f2a5cf09e90aE, symObjAddr: 0x3440, symBinAddr: 0x43630, symSize: 0x14 }
  - { offset: 0xD0F0F, size: 0x8, addend: 0x0, symName: __ZN4core4iter6traits8iterator8Iterator7collect17h4227520b0b1d4fa6E, symObjAddr: 0x3454, symBinAddr: 0x43644, symSize: 0x14 }
  - { offset: 0xD0F50, size: 0x8, addend: 0x0, symName: __ZN4core4iter6traits8iterator8Iterator7collect17h467c80e97e07974fE, symObjAddr: 0x3468, symBinAddr: 0x43658, symSize: 0x14 }
  - { offset: 0xD0F91, size: 0x8, addend: 0x0, symName: __ZN4core4iter6traits8iterator8Iterator7collect17h48b2995fa0c6e092E, symObjAddr: 0x347C, symBinAddr: 0x4366C, symSize: 0x14 }
  - { offset: 0xD0FD2, size: 0x8, addend: 0x0, symName: __ZN4core4iter6traits8iterator8Iterator7collect17h4cbf289e3f9dd688E, symObjAddr: 0x34A4, symBinAddr: 0x43680, symSize: 0x14 }
  - { offset: 0xD1013, size: 0x8, addend: 0x0, symName: __ZN4core4iter6traits8iterator8Iterator7collect17h56a9ca902ced84edE, symObjAddr: 0x34E4, symBinAddr: 0x43694, symSize: 0x14 }
  - { offset: 0xD1054, size: 0x8, addend: 0x0, symName: __ZN4core4iter6traits8iterator8Iterator7collect17h7994e9916c8054b2E, symObjAddr: 0x35D0, symBinAddr: 0x436A8, symSize: 0x14 }
  - { offset: 0xD1095, size: 0x8, addend: 0x0, symName: __ZN4core4iter6traits8iterator8Iterator7collect17h79e19beaa0765cdaE, symObjAddr: 0x35E4, symBinAddr: 0x436BC, symSize: 0x14 }
  - { offset: 0xD10D6, size: 0x8, addend: 0x0, symName: __ZN4core4iter6traits8iterator8Iterator7collect17h90546ca877413a8bE, symObjAddr: 0x36FC, symBinAddr: 0x436D0, symSize: 0x14 }
  - { offset: 0xD1117, size: 0x8, addend: 0x0, symName: __ZN4core4iter6traits8iterator8Iterator7collect17h92547162750ff39eE, symObjAddr: 0x3710, symBinAddr: 0x436E4, symSize: 0x14 }
  - { offset: 0xD1158, size: 0x8, addend: 0x0, symName: __ZN4core4iter6traits8iterator8Iterator7collect17hb227f2bcca2df524E, symObjAddr: 0x3790, symBinAddr: 0x436F8, symSize: 0x14 }
  - { offset: 0xD1199, size: 0x8, addend: 0x0, symName: __ZN4core4iter6traits8iterator8Iterator7collect17hb679ee0472404a88E, symObjAddr: 0x37E4, symBinAddr: 0x4370C, symSize: 0x14 }
  - { offset: 0xD11DA, size: 0x8, addend: 0x0, symName: __ZN4core4iter6traits8iterator8Iterator7collect17hbc593ad57e20fc74E, symObjAddr: 0x380C, symBinAddr: 0x43720, symSize: 0x14 }
  - { offset: 0xD121B, size: 0x8, addend: 0x0, symName: __ZN4core4iter6traits8iterator8Iterator7collect17hc50bc608603cb41cE, symObjAddr: 0x3848, symBinAddr: 0x43734, symSize: 0x2C }
  - { offset: 0xD125B, size: 0x8, addend: 0x0, symName: __ZN4core4iter6traits8iterator8Iterator7collect17hcd9030202004cefdE, symObjAddr: 0x390C, symBinAddr: 0x43760, symSize: 0x2C }
  - { offset: 0xD129B, size: 0x8, addend: 0x0, symName: __ZN4core4iter6traits8iterator8Iterator7collect17hd7f3a6294ba57539E, symObjAddr: 0x3960, symBinAddr: 0x4378C, symSize: 0x14 }
  - { offset: 0xD12DC, size: 0x8, addend: 0x0, symName: __ZN4core4iter6traits8iterator8Iterator8for_each17h6dac7dd325057d99E, symObjAddr: 0x3D7C, symBinAddr: 0x437A0, symSize: 0x34 }
  - { offset: 0xD1348, size: 0x8, addend: 0x0, symName: __ZN4core4iter6traits8iterator8Iterator8for_each17h9876bdf1b17bf686E, symObjAddr: 0x40B4, symBinAddr: 0x437D4, symSize: 0x34 }
  - { offset: 0xD13B4, size: 0x8, addend: 0x0, symName: __ZN4core4iter6traits8iterator8Iterator8for_each17hd63ccf4e9b7d9726E, symObjAddr: 0x4240, symBinAddr: 0x43808, symSize: 0x34 }
  - { offset: 0xD142C, size: 0x8, addend: 0x0, symName: '__ZN63_$LT$I$u20$as$u20$core..iter..traits..collect..IntoIterator$GT$9into_iter17h0e7ac10ca17b7045E', symObjAddr: 0x611C, symBinAddr: 0x43BD0, symSize: 0x1C }
  - { offset: 0xD1463, size: 0x8, addend: 0x0, symName: '__ZN63_$LT$I$u20$as$u20$core..iter..traits..collect..IntoIterator$GT$9into_iter17h22d69acdaa842383E', symObjAddr: 0x61E0, symBinAddr: 0x43BEC, symSize: 0x30 }
  - { offset: 0xD149B, size: 0x8, addend: 0x0, symName: '__ZN63_$LT$I$u20$as$u20$core..iter..traits..collect..IntoIterator$GT$9into_iter17h26a14ceaa2874305E', symObjAddr: 0x622C, symBinAddr: 0x43C1C, symSize: 0x30 }
  - { offset: 0xD14D3, size: 0x8, addend: 0x0, symName: '__ZN63_$LT$I$u20$as$u20$core..iter..traits..collect..IntoIterator$GT$9into_iter17h2b8b6604a36ce68eE', symObjAddr: 0x6278, symBinAddr: 0x43C4C, symSize: 0x30 }
  - { offset: 0xD150B, size: 0x8, addend: 0x0, symName: '__ZN63_$LT$I$u20$as$u20$core..iter..traits..collect..IntoIterator$GT$9into_iter17h384b1e7e915e01ccE', symObjAddr: 0x634C, symBinAddr: 0x43C7C, symSize: 0x1C }
  - { offset: 0xD1542, size: 0x8, addend: 0x0, symName: '__ZN63_$LT$I$u20$as$u20$core..iter..traits..collect..IntoIterator$GT$9into_iter17h453b4d64e42ae666E', symObjAddr: 0x6368, symBinAddr: 0x43C98, symSize: 0x30 }
  - { offset: 0xD157A, size: 0x8, addend: 0x0, symName: '__ZN63_$LT$I$u20$as$u20$core..iter..traits..collect..IntoIterator$GT$9into_iter17h57f8cd48e7a45cc8E', symObjAddr: 0x63F8, symBinAddr: 0x43CC8, symSize: 0x30 }
  - { offset: 0xD15B2, size: 0x8, addend: 0x0, symName: '__ZN63_$LT$I$u20$as$u20$core..iter..traits..collect..IntoIterator$GT$9into_iter17h700acdde493296d4E', symObjAddr: 0x6498, symBinAddr: 0x43CF8, symSize: 0x30 }
  - { offset: 0xD15EA, size: 0x8, addend: 0x0, symName: '__ZN63_$LT$I$u20$as$u20$core..iter..traits..collect..IntoIterator$GT$9into_iter17h71c512b9a486dafcE', symObjAddr: 0x64C8, symBinAddr: 0x43D28, symSize: 0x30 }
  - { offset: 0xD1622, size: 0x8, addend: 0x0, symName: '__ZN63_$LT$I$u20$as$u20$core..iter..traits..collect..IntoIterator$GT$9into_iter17h7a563bdb893ee20fE', symObjAddr: 0x6544, symBinAddr: 0x43D58, symSize: 0x30 }
  - { offset: 0xD165A, size: 0x8, addend: 0x0, symName: '__ZN63_$LT$I$u20$as$u20$core..iter..traits..collect..IntoIterator$GT$9into_iter17h885106d6a595fde0E', symObjAddr: 0x65C0, symBinAddr: 0x43D88, symSize: 0x30 }
  - { offset: 0xD1692, size: 0x8, addend: 0x0, symName: '__ZN63_$LT$I$u20$as$u20$core..iter..traits..collect..IntoIterator$GT$9into_iter17ha6320a113fe9d3afE', symObjAddr: 0x6730, symBinAddr: 0x43DB8, symSize: 0x30 }
  - { offset: 0xD16CA, size: 0x8, addend: 0x0, symName: '__ZN63_$LT$I$u20$as$u20$core..iter..traits..collect..IntoIterator$GT$9into_iter17hacb182eecf57a6baE', symObjAddr: 0x6760, symBinAddr: 0x43DE8, symSize: 0x30 }
  - { offset: 0xD1702, size: 0x8, addend: 0x0, symName: '__ZN63_$LT$I$u20$as$u20$core..iter..traits..collect..IntoIterator$GT$9into_iter17hb315c2889640af48E', symObjAddr: 0x67C0, symBinAddr: 0x43E18, symSize: 0x30 }
  - { offset: 0xD173A, size: 0x8, addend: 0x0, symName: '__ZN63_$LT$I$u20$as$u20$core..iter..traits..collect..IntoIterator$GT$9into_iter17hb5cd714609a3817dE', symObjAddr: 0x6828, symBinAddr: 0x43E48, symSize: 0x30 }
  - { offset: 0xD1772, size: 0x8, addend: 0x0, symName: '__ZN63_$LT$I$u20$as$u20$core..iter..traits..collect..IntoIterator$GT$9into_iter17hb7816566f344c632E', symObjAddr: 0x6858, symBinAddr: 0x43E78, symSize: 0x30 }
  - { offset: 0xD17AA, size: 0x8, addend: 0x0, symName: '__ZN63_$LT$I$u20$as$u20$core..iter..traits..collect..IntoIterator$GT$9into_iter17he0a07113fb26c585E', symObjAddr: 0x6A70, symBinAddr: 0x43EA8, symSize: 0x30 }
  - { offset: 0xD17E2, size: 0x8, addend: 0x0, symName: '__ZN63_$LT$I$u20$as$u20$core..iter..traits..collect..IntoIterator$GT$9into_iter17he66bab160b8badcbE', symObjAddr: 0x6AD8, symBinAddr: 0x43ED8, symSize: 0x30 }
  - { offset: 0xD181A, size: 0x8, addend: 0x0, symName: '__ZN63_$LT$I$u20$as$u20$core..iter..traits..collect..IntoIterator$GT$9into_iter17heacc361dfb191619E', symObjAddr: 0x6B54, symBinAddr: 0x43F08, symSize: 0x30 }
  - { offset: 0xD1852, size: 0x8, addend: 0x0, symName: '__ZN63_$LT$I$u20$as$u20$core..iter..traits..collect..IntoIterator$GT$9into_iter17hfb752b20b4f19bbfE', symObjAddr: 0x6C00, symBinAddr: 0x43F38, symSize: 0x30 }
  - { offset: 0xD5C9B, size: 0x8, addend: 0x0, symName: '__ZN77_$LT$alloc..borrow..Cow$LT$str$GT$$u20$as$u20$alloc..string..SpecToString$GT$14spec_to_string17h0fdaf279a89b196eE', symObjAddr: 0x0, symBinAddr: 0x43F68, symSize: 0x9C }
  - { offset: 0xD5E0E, size: 0x8, addend: 0x0, symName: '__ZN77_$LT$alloc..borrow..Cow$LT$str$GT$$u20$as$u20$alloc..string..SpecToString$GT$14spec_to_string17h0fdaf279a89b196eE', symObjAddr: 0x0, symBinAddr: 0x43F68, symSize: 0x9C }
  - { offset: 0xD652B, size: 0x8, addend: 0x0, symName: '__ZN4core3num21_$LT$impl$u20$u64$GT$11checked_add17hf0d416e683ef8c8fE', symObjAddr: 0xB4, symBinAddr: 0x44004, symSize: 0x7C }
  - { offset: 0xD65F6, size: 0x8, addend: 0x0, symName: '__ZN4core3num21_$LT$impl$u20$u64$GT$14saturating_mul17ha7b948e91505d457E', symObjAddr: 0x130, symBinAddr: 0x44080, symSize: 0x64 }
  - { offset: 0xD66F4, size: 0x8, addend: 0x0, symName: '__ZN4core3num23_$LT$impl$u20$usize$GT$13unchecked_add18precondition_check17hddf4e46d8dbd29b2E', symObjAddr: 0x6E8, symBinAddr: 0x440E4, symSize: 0x64 }
  - { offset: 0xD67DE, size: 0x8, addend: 0x0, symName: '__ZN4core3num23_$LT$impl$u20$usize$GT$14saturating_mul17h4374ebc5ed1f6353E', symObjAddr: 0x7AC, symBinAddr: 0x44148, symSize: 0x64 }
  - { offset: 0xD6A8D, size: 0x8, addend: 0x0, symName: '__ZN60_$LT$trx_rs..error..TrxError$u20$as$u20$core..fmt..Debug$GT$3fmt17he08f7e098d6bcc58E', symObjAddr: 0x0, symBinAddr: 0x441AC, symSize: 0x220 }
  - { offset: 0xD7574, size: 0x8, addend: 0x0, symName: '__ZN60_$LT$trx_rs..error..TrxError$u20$as$u20$core..fmt..Debug$GT$3fmt17he08f7e098d6bcc58E', symObjAddr: 0x0, symBinAddr: 0x441AC, symSize: 0x220 }
  - { offset: 0xD767F, size: 0x8, addend: 0x0, symName: '__ZN62_$LT$trx_rs..error..TrxError$u20$as$u20$core..fmt..Display$GT$3fmt17hd2cbcf5a07b6b5b4E', symObjAddr: 0x330, symBinAddr: 0x443CC, symSize: 0x3C8 }
  - { offset: 0xD79E5, size: 0x8, addend: 0x0, symName: '__ZN92_$LT$trx_rs..error..TrxError$u20$as$u20$core..convert..From$LT$std..io..error..Error$GT$$GT$4from17h10f0a338b1c68160E', symObjAddr: 0x6F8, symBinAddr: 0x44794, symSize: 0x1C }
  - { offset: 0xD7A17, size: 0x8, addend: 0x0, symName: '__ZN92_$LT$trx_rs..error..TrxError$u20$as$u20$core..convert..From$LT$zip..result..ZipError$GT$$GT$4from17h3be309e5a0a75c1fE', symObjAddr: 0x714, symBinAddr: 0x447B0, symSize: 0x20 }
  - { offset: 0xD7A49, size: 0x8, addend: 0x0, symName: '__ZN95_$LT$trx_rs..error..TrxError$u20$as$u20$core..convert..From$LT$serde_json..error..Error$GT$$GT$4from17h3bb5729dff7f60c1E', symObjAddr: 0x734, symBinAddr: 0x447D0, symSize: 0x24 }
  - { offset: 0xD7D0F, size: 0x8, addend: 0x0, symName: __ZN10serde_core7private9size_hint8cautious17h62c990b56798933bE, symObjAddr: 0x0, symBinAddr: 0x447F4, symSize: 0x84 }
  - { offset: 0xD7D2B, size: 0x8, addend: 0x0, symName: __ZN10serde_core7private9size_hint8cautious17h62c990b56798933bE, symObjAddr: 0x0, symBinAddr: 0x447F4, symSize: 0x84 }
  - { offset: 0xD7D60, size: 0x8, addend: 0x0, symName: __ZN10serde_core7private9size_hint8cautious17h7120e6dec2ad23d0E, symObjAddr: 0x84, symBinAddr: 0x44878, symSize: 0x84 }
  - { offset: 0xD7D95, size: 0x8, addend: 0x0, symName: __ZN10serde_core7private9size_hint8cautious17hea7a758b0d8bee6eE, symObjAddr: 0x108, symBinAddr: 0x448FC, symSize: 0x84 }
  - { offset: 0xD8FE8, size: 0x8, addend: 0x0, symName: __ZN6trx_rs8trx_file9DataArray12from_backing17h7e447a6f458ff6a7E, symObjAddr: 0x4D0, symBinAddr: 0x44980, symSize: 0x2C }
  - { offset: 0xD9026, size: 0x8, addend: 0x0, symName: __ZN6trx_rs8trx_file9DataArray4info17h6bcf78435aafbf61E, symObjAddr: 0x4FC, symBinAddr: 0x449AC, symSize: 0x50 }
  - { offset: 0xD9049, size: 0x8, addend: 0x0, symName: __ZN6trx_rs8trx_file9DataArray5dtype17h819317846c45a538E, symObjAddr: 0x54C, symBinAddr: 0x449FC, symSize: 0x18 }
  - { offset: 0xD906B, size: 0x8, addend: 0x0, symName: __ZN6trx_rs8trx_file9DataArray5ncols17hecb6aec5cba8e29aE, symObjAddr: 0x564, symBinAddr: 0x44A14, symSize: 0x18 }
  - { offset: 0xD908D, size: 0x8, addend: 0x0, symName: __ZN6trx_rs8trx_file9DataArray5nrows17hbfe487fa8aee9bbcE, symObjAddr: 0x57C, symBinAddr: 0x44A2C, symSize: 0xAC }
  - { offset: 0xD90EB, size: 0x8, addend: 0x0, symName: __ZN6trx_rs8trx_file9DataArray8as_bytes17h73e773300834dcb7E, symObjAddr: 0x628, symBinAddr: 0x44AD8, symSize: 0x24 }
  - { offset: 0xD910D, size: 0x8, addend: 0x0, symName: __ZN6trx_rs8trx_file9DataArray9len_bytes17hf051121caba0c7b0E, symObjAddr: 0x64C, symBinAddr: 0x44AFC, symSize: 0x24 }
  - { offset: 0xDA41E, size: 0x8, addend: 0x0, symName: __ZN6trx_rs2io3zip13load_from_zip17h1a2b7a1292b7fc7cE, symObjAddr: 0x9C, symBinAddr: 0x44B20, symSize: 0x80C }
  - { offset: 0xDA68C, size: 0x8, addend: 0x0, symName: __ZN6trx_rs2io3zip13load_from_zip17h3ddafc3764297bfaE, symObjAddr: 0x8A8, symBinAddr: 0x4532C, symSize: 0x80C }
  - { offset: 0xDA8FA, size: 0x8, addend: 0x0, symName: __ZN6trx_rs2io3zip13load_from_zip17hbd898636e8dbb359E, symObjAddr: 0x10B4, symBinAddr: 0x45B38, symSize: 0x80C }
  - { offset: 0xDCB3F, size: 0x8, addend: 0x0, symName: '__ZN3std4sync9once_lock17OnceLock$LT$T$GT$10initialize17h6f1caa1f9ec31816E', symObjAddr: 0x0, symBinAddr: 0x13E21C, symSize: 0x6C }
  - { offset: 0xDD48B, size: 0x8, addend: 0x0, symName: '__ZN3std4sync9once_lock17OnceLock$LT$T$GT$11get_or_init28_$u7b$$u7b$closure$u7d$$u7d$17hfb281a9aef081cbaE', symObjAddr: 0x408, symBinAddr: 0x464A8, symSize: 0x24 }
  - { offset: 0xDD4E5, size: 0x8, addend: 0x0, symName: '__ZN3std4sync9once_lock17OnceLock$LT$T$GT$10try_insert28_$u7b$$u7b$closure$u7d$$u7d$17hf9e4566b21928d0cE', symObjAddr: 0x2F8, symBinAddr: 0x46448, symSize: 0x60 }
  - { offset: 0xDD576, size: 0x8, addend: 0x0, symName: '__ZN3std4sync9once_lock17OnceLock$LT$T$GT$10initialize28_$u7b$$u7b$closure$u7d$$u7d$17h62a524fff3e29026E', symObjAddr: 0x1F4, symBinAddr: 0x46344, symSize: 0x58 }
  - { offset: 0xDD758, size: 0x8, addend: 0x0, symName: '__ZN3std4sync9once_lock17OnceLock$LT$T$GT$10initialize17h6f1caa1f9ec31816E', symObjAddr: 0x0, symBinAddr: 0x13E21C, symSize: 0x6C }
  - { offset: 0xDD902, size: 0x8, addend: 0x0, symName: '__ZN3std4sync9once_lock17OnceLock$LT$T$GT$10try_insert17hbe64c97cb82d1969E', symObjAddr: 0x24C, symBinAddr: 0x4639C, symSize: 0xAC }
  - { offset: 0xDDB3F, size: 0x8, addend: 0x0, symName: '__ZN3std4sync9once_lock17OnceLock$LT$T$GT$15get_or_try_init17hbb9cde12d9e97b7aE', symObjAddr: 0x5EC, symBinAddr: 0x464CC, symSize: 0xE0 }
  - { offset: 0xDDD8B, size: 0x8, addend: 0x0, symName: '__ZN3std4sync9once_lock17OnceLock$LT$T$GT$3new17ha215bdbf51f87420E', symObjAddr: 0x6CC, symBinAddr: 0x465AC, symSize: 0x34 }
  - { offset: 0xDDDE6, size: 0x8, addend: 0x0, symName: '__ZN3std4sync9once_lock17OnceLock$LT$T$GT$3set17he17cc4bc01130a2aE', symObjAddr: 0x700, symBinAddr: 0x465E0, symSize: 0x68 }
  - { offset: 0xDDE67, size: 0x8, addend: 0x0, symName: '__ZN57_$LT$memmap2..Mmap$u20$as$u20$core..ops..deref..Deref$GT$5deref17hcf55c8b1ae2cb267E', symObjAddr: 0x0, symBinAddr: 0x46648, symSize: 0x4C }
  - { offset: 0xDDEA9, size: 0x8, addend: 0x0, symName: '__ZN57_$LT$memmap2..Mmap$u20$as$u20$core..ops..deref..Deref$GT$5deref17hcf55c8b1ae2cb267E', symObjAddr: 0x0, symBinAddr: 0x46648, symSize: 0x4C }
  - { offset: 0xDDEDD, size: 0x8, addend: 0x0, symName: '__ZN60_$LT$memmap2..MmapMut$u20$as$u20$core..ops..deref..Deref$GT$5deref17h3218b8db25c9b114E', symObjAddr: 0x4C, symBinAddr: 0x46694, symSize: 0x4C }
  - { offset: 0xDDF11, size: 0x8, addend: 0x0, symName: '__ZN74_$LT$memmap2..Mmap$u20$as$u20$core..convert..AsRef$LT$$u5b$u8$u5d$$GT$$GT$6as_ref17h8e04c0c79031d4f8E', symObjAddr: 0xE4, symBinAddr: 0x466E0, symSize: 0x24 }
  - { offset: 0xDE005, size: 0x8, addend: 0x0, symName: '__ZN52_$LT$char$u20$as$u20$core..str..pattern..Pattern$GT$13into_searcher17h01898b0b4d90409bE', symObjAddr: 0x0, symBinAddr: 0x46704, symSize: 0x114 }
  - { offset: 0xDE0C4, size: 0x8, addend: 0x0, symName: '__ZN52_$LT$char$u20$as$u20$core..str..pattern..Pattern$GT$13into_searcher17h01898b0b4d90409bE', symObjAddr: 0x0, symBinAddr: 0x46704, symSize: 0x114 }
  - { offset: 0xDE249, size: 0x8, addend: 0x0, symName: '__ZN81_$LT$core..str..pattern..CharSearcher$u20$as$u20$core..str..pattern..Searcher$GT$8haystack17h4d1f881d13b8b8adE', symObjAddr: 0x5C4, symBinAddr: 0x46818, symSize: 0x20 }
  - { offset: 0xDE27D, size: 0x8, addend: 0x0, symName: '__ZN88_$LT$core..str..pattern..CharSearcher$u20$as$u20$core..str..pattern..ReverseSearcher$GT$15next_match_back17hec4bf7dd75fa75ccE', symObjAddr: 0x5E4, symBinAddr: 0x46838, symSize: 0x384 }
  - { offset: 0xDEFE7, size: 0x8, addend: 0x0, symName: __ZN4core4char7methods15encode_utf8_raw17h5ea94a9c1933ce2bE, symObjAddr: 0x0, symBinAddr: 0x46BBC, symSize: 0x100 }
  - { offset: 0xDF059, size: 0x8, addend: 0x0, symName: __ZN4core4char7methods15encode_utf8_raw8do_panic7runtime17hd9e2ab49ca73da79E, symObjAddr: 0x100, symBinAddr: 0x46CBC, symSize: 0xC4 }
  - { offset: 0xDF156, size: 0x8, addend: 0x0, symName: __ZN4core4char7methods15encode_utf8_raw17h5ea94a9c1933ce2bE, symObjAddr: 0x0, symBinAddr: 0x46BBC, symSize: 0x100 }
  - { offset: 0xDF277, size: 0x8, addend: 0x0, symName: '__ZN4core4char7methods22_$LT$impl$u20$char$GT$11encode_utf817hf12b27b2645ff776E', symObjAddr: 0x1C4, symBinAddr: 0x46D80, symSize: 0x38 }
  - { offset: 0xDF2D3, size: 0x8, addend: 0x0, symName: __ZN4core4char7methods25encode_utf8_raw_unchecked17h4d9dcaf68e6c935eE, symObjAddr: 0x3AC, symBinAddr: 0x46DB8, symSize: 0x188 }
  - { offset: 0xDFA2B, size: 0x8, addend: 0x0, symName: __ZN9hashbrown7control5group4neon5Group10match_full17h20a7fa86c77520a4E, symObjAddr: 0x0, symBinAddr: 0x46F40, symSize: 0x68 }
  - { offset: 0xDFB43, size: 0x8, addend: 0x0, symName: __ZN9hashbrown7control5group4neon5Group10match_full17h20a7fa86c77520a4E, symObjAddr: 0x0, symBinAddr: 0x46F40, symSize: 0x68 }
  - { offset: 0xDFB7B, size: 0x8, addend: 0x0, symName: __ZN9hashbrown7control5group4neon5Group22match_empty_or_deleted17h0ff878cacf289ca2E, symObjAddr: 0x94, symBinAddr: 0x46FA8, symSize: 0x68 }
  - { offset: 0xDFBB3, size: 0x8, addend: 0x0, symName: __ZN9hashbrown7control5group4neon5Group44convert_special_to_empty_and_full_to_deleted17h138989e98c5d9380E, symObjAddr: 0xFC, symBinAddr: 0x47010, symSize: 0x88 }
  - { offset: 0xDFBEB, size: 0x8, addend: 0x0, symName: __ZN9hashbrown7control5group4neon5Group9match_tag17haef1eee2008ebefeE, symObjAddr: 0x240, symBinAddr: 0x47098, symSize: 0x7C }
  - { offset: 0xDFC57, size: 0x8, addend: 0x0, symName: __ZN4core9core_arch10arm_shared4neon9generated18vreinterpret_s8_u817hb1c90ba2c8324f34E, symObjAddr: 0x0, symBinAddr: 0x47114, symSize: 0xC }
  - { offset: 0xDFC7D, size: 0x8, addend: 0x0, symName: __ZN4core9core_arch10arm_shared4neon9generated18vreinterpret_s8_u817hb1c90ba2c8324f34E, symObjAddr: 0x0, symBinAddr: 0x47114, symSize: 0xC }
  - { offset: 0xDFCAB, size: 0x8, addend: 0x0, symName: __ZN4core9core_arch10arm_shared4neon9generated19vreinterpret_u64_u817he57bc67bfb7a729dE, symObjAddr: 0xC, symBinAddr: 0x47120, symSize: 0xC }
  - { offset: 0xDFCD9, size: 0x8, addend: 0x0, symName: __ZN4core9core_arch10arm_shared4neon9generated7vceq_u817h91168245ee824631E, symObjAddr: 0x18, symBinAddr: 0x4712C, symSize: 0x14 }
  - { offset: 0xDFD16, size: 0x8, addend: 0x0, symName: __ZN4core9core_arch10arm_shared4neon9generated7vorr_u817h87a702c3754c2089E, symObjAddr: 0x2C, symBinAddr: 0x47140, symSize: 0x14 }
  - { offset: 0xDFD53, size: 0x8, addend: 0x0, symName: __ZN4core9core_arch10arm_shared4neon9generated9vdup_n_u817h2327fae771e795eeE, symObjAddr: 0x40, symBinAddr: 0x47154, symSize: 0x2C }
  - { offset: 0xDFEE2, size: 0x8, addend: 0x0, symName: '__ZN185_$LT$core..ops..control_flow..ControlFlow$LT$B$C$C$GT$$u20$as$u20$core..ops..try_trait..FromResidual$LT$core..ops..control_flow..ControlFlow$LT$B$C$core..convert..Infallible$GT$$GT$$GT$13from_residual17h383a588265e86177E', symObjAddr: 0x1C, symBinAddr: 0x47180, symSize: 0x18 }
  - { offset: 0xDFF20, size: 0x8, addend: 0x0, symName: '__ZN185_$LT$core..ops..control_flow..ControlFlow$LT$B$C$C$GT$$u20$as$u20$core..ops..try_trait..FromResidual$LT$core..ops..control_flow..ControlFlow$LT$B$C$core..convert..Infallible$GT$$GT$$GT$13from_residual17he5269f87b92e01ebE', symObjAddr: 0x4C, symBinAddr: 0x47198, symSize: 0x14 }
  - { offset: 0xDFF69, size: 0x8, addend: 0x0, symName: __ZN4core3ops12control_flow11ControlFlow5Break17hc33a2ce2aa453eabE, symObjAddr: 0x60, symBinAddr: 0x471AC, symSize: 0x18 }
  - { offset: 0xDFFAA, size: 0x8, addend: 0x0, symName: '__ZN95_$LT$core..ops..control_flow..ControlFlow$LT$B$C$C$GT$$u20$as$u20$core..ops..try_trait..Try$GT$11from_output17hbd38c4deccf4d717E', symObjAddr: 0x98, symBinAddr: 0x471C4, symSize: 0x10 }
  - { offset: 0xDFFE8, size: 0x8, addend: 0x0, symName: '__ZN95_$LT$core..ops..control_flow..ControlFlow$LT$B$C$C$GT$$u20$as$u20$core..ops..try_trait..Try$GT$11from_output17hdd12e3a9d737af5dE', symObjAddr: 0xA8, symBinAddr: 0x471D4, symSize: 0x10 }
  - { offset: 0xE0026, size: 0x8, addend: 0x0, symName: '__ZN95_$LT$core..ops..control_flow..ControlFlow$LT$B$C$C$GT$$u20$as$u20$core..ops..try_trait..Try$GT$6branch17h44fd3e50cd6e088fE', symObjAddr: 0x10C, symBinAddr: 0x471E4, symSize: 0x50 }
  - { offset: 0xE009E, size: 0x8, addend: 0x0, symName: '__ZN95_$LT$core..ops..control_flow..ControlFlow$LT$B$C$C$GT$$u20$as$u20$core..ops..try_trait..Try$GT$6branch17h621940a22db076d7E', symObjAddr: 0x15C, symBinAddr: 0x47234, symSize: 0x58 }
  - { offset: 0xE044F, size: 0x8, addend: 0x0, symName: __ZN4core4char7convert18from_u32_unchecked18precondition_check17h2ec58249a177d629E, symObjAddr: 0x0, symBinAddr: 0x4728C, symSize: 0x7C }
  - { offset: 0xE04DA, size: 0x8, addend: 0x0, symName: __ZN4core4char7convert18from_u32_unchecked18precondition_check17h2ec58249a177d629E, symObjAddr: 0x0, symBinAddr: 0x4728C, symSize: 0x7C }
  - { offset: 0xE064E, size: 0x8, addend: 0x0, symName: __ZN4core3fmt9Arguments23as_statically_known_str17h6d6cc35f6af6369bE, symObjAddr: 0x0, symBinAddr: 0x47308, symSize: 0x104 }
  - { offset: 0xE0B40, size: 0x8, addend: 0x0, symName: __ZN4core3fmt9Arguments23as_statically_known_str17h6d6cc35f6af6369bE, symObjAddr: 0x0, symBinAddr: 0x47308, symSize: 0x104 }
  - { offset: 0xE0C1A, size: 0x8, addend: 0x0, symName: __ZN4core3fmt9Formatter9write_fmt17hf73b45198029125bE, symObjAddr: 0x124, symBinAddr: 0x4740C, symSize: 0xA4 }
  - { offset: 0xE1DA2, size: 0x8, addend: 0x0, symName: __ZN4core4iter6traits8iterator8Iterator3map17h72429a634f93b2a9E, symObjAddr: 0xC9C, symBinAddr: 0x4793C, symSize: 0x28 }
  - { offset: 0xE1E0F, size: 0x8, addend: 0x0, symName: __ZN4core4iter6traits8iterator8Iterator3map17h8998629777e3eab9E, symObjAddr: 0xCC4, symBinAddr: 0x47964, symSize: 0x28 }
  - { offset: 0xE1E7C, size: 0x8, addend: 0x0, symName: __ZN4core4iter6traits8iterator8Iterator3map17hcb0d9c3cbf97874bE, symObjAddr: 0xD08, symBinAddr: 0x4798C, symSize: 0x28 }
  - { offset: 0xE22D6, size: 0x8, addend: 0x0, symName: '__ZN103_$LT$alloc..vec..into_iter..IntoIter$LT$T$C$A$GT$$u20$as$u20$core..iter..traits..iterator..Iterator$GT$4fold17h31c10a741b437da3E', symObjAddr: 0x3C, symBinAddr: 0x474B0, symSize: 0x10C }
  - { offset: 0xE2485, size: 0x8, addend: 0x0, symName: '__ZN103_$LT$alloc..vec..into_iter..IntoIter$LT$T$C$A$GT$$u20$as$u20$core..iter..traits..iterator..Iterator$GT$4fold17h9ffd7a6fe6c4fc83E', symObjAddr: 0x254, symBinAddr: 0x475BC, symSize: 0x10C }
  - { offset: 0xE2634, size: 0x8, addend: 0x0, symName: '__ZN103_$LT$alloc..vec..into_iter..IntoIter$LT$T$C$A$GT$$u20$as$u20$core..iter..traits..iterator..Iterator$GT$4fold17hb939533a765786a9E', symObjAddr: 0x360, symBinAddr: 0x476C8, symSize: 0x10C }
  - { offset: 0xE27E3, size: 0x8, addend: 0x0, symName: '__ZN103_$LT$alloc..vec..into_iter..IntoIter$LT$T$C$A$GT$$u20$as$u20$core..iter..traits..iterator..Iterator$GT$9size_hint17h3c8ae67d150a15faE', symObjAddr: 0x83C, symBinAddr: 0x477D4, symSize: 0xB4 }
  - { offset: 0xE28FC, size: 0x8, addend: 0x0, symName: '__ZN103_$LT$alloc..vec..into_iter..IntoIter$LT$T$C$A$GT$$u20$as$u20$core..iter..traits..iterator..Iterator$GT$9size_hint17h45a3a649ac73baa4E', symObjAddr: 0x8F0, symBinAddr: 0x47888, symSize: 0xB4 }
  - { offset: 0xE3A06, size: 0x8, addend: 0x0, symName: '__ZN5alloc3vec9into_iter21IntoIter$LT$T$C$A$GT$16as_raw_mut_slice17hc779bdb94fae6165E', symObjAddr: 0xFFC, symBinAddr: 0x479B4, symSize: 0xCC }
  - { offset: 0xE3B56, size: 0x8, addend: 0x0, symName: '__ZN5alloc3vec9into_iter21IntoIter$LT$T$C$A$GT$16as_raw_mut_slice17he79f0e28bcdbea70E', symObjAddr: 0x1194, symBinAddr: 0x47A80, symSize: 0xCC }
  - { offset: 0xE3D16, size: 0x8, addend: 0x0, symName: '__ZN5alloc4sync16Arc$LT$T$C$A$GT$9drop_slow17hf940d48b36309c74E', symObjAddr: 0x0, symBinAddr: 0x47B4C, symSize: 0x74 }
  - { offset: 0xE427A, size: 0x8, addend: 0x0, symName: '__ZN73_$LT$alloc..sync..Arc$LT$T$C$A$GT$$u20$as$u20$core..ops..deref..Deref$GT$5deref17h11b0940156811a70E', symObjAddr: 0x74, symBinAddr: 0x47BC0, symSize: 0x1C }
  - { offset: 0xE42F3, size: 0x8, addend: 0x0, symName: '__ZN74_$LT$alloc..sync..Arc$LT$T$GT$$u20$as$u20$core..convert..From$LT$T$GT$$GT$4from17he901d8861376ffc1E', symObjAddr: 0x150, symBinAddr: 0x47BDC, symSize: 0xD0 }
  - { offset: 0xE4FA3, size: 0x8, addend: 0x0, symName: '__ZN5alloc4sync16Arc$LT$T$C$A$GT$9drop_slow17hf940d48b36309c74E', symObjAddr: 0x0, symBinAddr: 0x47B4C, symSize: 0x74 }
  - { offset: 0xE5137, size: 0x8, addend: 0x0, symName: '__ZN6trx_rs2io9directory13load_data_dir28_$u7b$$u7b$closure$u7d$$u7d$17h16d841efeb44e9a3E', symObjAddr: 0x0, symBinAddr: 0x47CAC, symSize: 0x98 }
  - { offset: 0xE5F5D, size: 0x8, addend: 0x0, symName: '__ZN6trx_rs2io9directory13load_data_dir28_$u7b$$u7b$closure$u7d$$u7d$17h16d841efeb44e9a3E', symObjAddr: 0x0, symBinAddr: 0x47CAC, symSize: 0x98 }
  - { offset: 0xE5FE2, size: 0x8, addend: 0x0, symName: '__ZN6trx_rs2io9directory13load_data_dir28_$u7b$$u7b$closure$u7d$$u7d$17hd3973c63d3aabeeeE', symObjAddr: 0x98, symBinAddr: 0x47D44, symSize: 0x28 }
  - { offset: 0xE6020, size: 0x8, addend: 0x0, symName: __ZN6trx_rs2io9directory19load_from_directory17h0c8f57e555becf68E, symObjAddr: 0x186C, symBinAddr: 0x47D6C, symSize: 0x142C }
  - { offset: 0xE64EB, size: 0x8, addend: 0x0, symName: __ZN6trx_rs2io9directory19load_from_directory17h75a106718e53070eE, symObjAddr: 0x2C98, symBinAddr: 0x49198, symSize: 0x142C }
  - { offset: 0xE69B6, size: 0x8, addend: 0x0, symName: __ZN6trx_rs2io9directory19load_from_directory17hec984d68ca28a01bE, symObjAddr: 0x40C4, symBinAddr: 0x4A5C4, symSize: 0x142C }
  - { offset: 0xE6E86, size: 0x8, addend: 0x0, symName: '__ZN6trx_rs2io9directory19load_from_directory28_$u7b$$u7b$closure$u7d$$u7d$17h06b0633aedf9deb0E', symObjAddr: 0x54F0, symBinAddr: 0x4B9F0, symSize: 0x58 }
  - { offset: 0xE6EB7, size: 0x8, addend: 0x0, symName: '__ZN6trx_rs2io9directory19load_from_directory28_$u7b$$u7b$closure$u7d$$u7d$17h1379afa43a9bb2c4E', symObjAddr: 0x5548, symBinAddr: 0x4BA48, symSize: 0x28 }
  - { offset: 0xE6EF6, size: 0x8, addend: 0x0, symName: '__ZN6trx_rs2io9directory19load_from_directory28_$u7b$$u7b$closure$u7d$$u7d$17h34b2f25eb7940e7bE', symObjAddr: 0x5570, symBinAddr: 0x4BA70, symSize: 0x28 }
  - { offset: 0xE6F35, size: 0x8, addend: 0x0, symName: '__ZN6trx_rs2io9directory19load_from_directory28_$u7b$$u7b$closure$u7d$$u7d$17h5bb03e170b449a77E', symObjAddr: 0x5598, symBinAddr: 0x4BA98, symSize: 0x58 }
  - { offset: 0xE6F66, size: 0x8, addend: 0x0, symName: '__ZN6trx_rs2io9directory19load_from_directory28_$u7b$$u7b$closure$u7d$$u7d$17h641d9eff758458d7E', symObjAddr: 0x55F0, symBinAddr: 0x4BAF0, symSize: 0x28 }
  - { offset: 0xE6FA5, size: 0x8, addend: 0x0, symName: '__ZN6trx_rs2io9directory19load_from_directory28_$u7b$$u7b$closure$u7d$$u7d$17h75f52d081d0092acE', symObjAddr: 0x5618, symBinAddr: 0x4BB18, symSize: 0x28 }
  - { offset: 0xE6FE4, size: 0x8, addend: 0x0, symName: '__ZN6trx_rs2io9directory19load_from_directory28_$u7b$$u7b$closure$u7d$$u7d$17h8156e439c1270fc9E', symObjAddr: 0x5640, symBinAddr: 0x4BB40, symSize: 0x58 }
  - { offset: 0xE7015, size: 0x8, addend: 0x0, symName: '__ZN6trx_rs2io9directory19load_from_directory28_$u7b$$u7b$closure$u7d$$u7d$17h93618b44a57fd5faE', symObjAddr: 0x5698, symBinAddr: 0x4BB98, symSize: 0x58 }
  - { offset: 0xE7046, size: 0x8, addend: 0x0, symName: '__ZN6trx_rs2io9directory19load_from_directory28_$u7b$$u7b$closure$u7d$$u7d$17hb7fe4e7dbf0a81abE', symObjAddr: 0x56F0, symBinAddr: 0x4BBF0, symSize: 0x58 }
  - { offset: 0xE7077, size: 0x8, addend: 0x0, symName: '__ZN6trx_rs2io9directory19load_from_directory28_$u7b$$u7b$closure$u7d$$u7d$17hd55d621a5ec37642E', symObjAddr: 0x5748, symBinAddr: 0x4BC48, symSize: 0x28 }
  - { offset: 0xE70B6, size: 0x8, addend: 0x0, symName: '__ZN6trx_rs2io9directory19load_from_directory28_$u7b$$u7b$closure$u7d$$u7d$17heca0c51bb047e799E', symObjAddr: 0x5770, symBinAddr: 0x4BC70, symSize: 0x58 }
  - { offset: 0xE70E7, size: 0x8, addend: 0x0, symName: '__ZN6trx_rs2io9directory19load_from_directory28_$u7b$$u7b$closure$u7d$$u7d$17hfe1d6fa651285d87E', symObjAddr: 0x57C8, symBinAddr: 0x4BCC8, symSize: 0x28 }
  - { offset: 0xE7180, size: 0x8, addend: 0x0, symName: '__ZN6trx_rs2io9directory22convert_offsets_to_u3228_$u7b$$u7b$closure$u7d$$u7d$17h1588139d7874d6bdE', symObjAddr: 0x57F0, symBinAddr: 0x4BCF0, symSize: 0x40 }
  - { offset: 0xE71B6, size: 0x8, addend: 0x0, symName: '__ZN6trx_rs2io9directory22convert_offsets_to_u3228_$u7b$$u7b$closure$u7d$$u7d$17h2044272a4766da78E', symObjAddr: 0x5830, symBinAddr: 0x4BD30, symSize: 0x40 }
  - { offset: 0xE71F1, size: 0x8, addend: 0x0, symName: '__ZN6trx_rs2io9directory22convert_offsets_to_u3228_$u7b$$u7b$closure$u7d$$u7d$28_$u7b$$u7b$closure$u7d$$u7d$17h1fa85ffd481fc7e6E', symObjAddr: 0x5870, symBinAddr: 0x4BD70, symSize: 0x80 }
  - { offset: 0xE7287, size: 0x8, addend: 0x0, symName: '__ZN6trx_rs2io9directory22convert_offsets_to_u3228_$u7b$$u7b$closure$u7d$$u7d$28_$u7b$$u7b$closure$u7d$$u7d$17ha2063d78d427f054E', symObjAddr: 0x58F0, symBinAddr: 0x4BDF0, symSize: 0x80 }
  - { offset: 0xE965A, size: 0x8, addend: 0x0, symName: '__ZN8indexmap3map25IndexMap$LT$K$C$V$C$S$GT$10as_entries17hcecbbf101589d8e9E', symObjAddr: 0xD4, symBinAddr: 0x4BE70, symSize: 0x24 }
  - { offset: 0xE96FA, size: 0x8, addend: 0x0, symName: '__ZN8indexmap3map25IndexMap$LT$K$C$V$C$S$GT$3len17hb5ca1af72bf6a3d6E', symObjAddr: 0x248, symBinAddr: 0x4BE94, symSize: 0x24 }
  - { offset: 0xE979A, size: 0x8, addend: 0x0, symName: '__ZN8indexmap3map25IndexMap$LT$K$C$V$C$S$GT$9get_index17h3a367cade2ac2800E', symObjAddr: 0x310, symBinAddr: 0x4BEB8, symSize: 0x38 }
  - { offset: 0xE9852, size: 0x8, addend: 0x0, symName: __ZN4core4sync6atomic5fence17h002a34cd1b6fc3f2E, symObjAddr: 0x24, symBinAddr: 0x4BEF0, symSize: 0xB0 }
  - { offset: 0xEB041, size: 0x8, addend: 0x0, symName: __ZN6trx_rs12any_trx_file22detect_positions_dtype17hca1d2b59f7ec14f3E, symObjAddr: 0xB2C, symBinAddr: 0x4C74C, symSize: 0xBC }
  - { offset: 0xEB06D, size: 0x8, addend: 0x0, symName: __ZN6trx_rs12any_trx_file26detect_positions_dtype_dir17h307dab86eb882beaE, symObjAddr: 0xBE8, symBinAddr: 0x4C808, symSize: 0x518 }
  - { offset: 0xEB1B7, size: 0x8, addend: 0x0, symName: __ZN6trx_rs12any_trx_file26detect_positions_dtype_zip17h7b9b8f6e40eaa6dfE, symObjAddr: 0x1100, symBinAddr: 0x4CD20, symSize: 0x4B8 }
  - { offset: 0xECDCF, size: 0x8, addend: 0x0, symName: __ZN6trx_rs12any_trx_file10AnyTrxFile11dps_entries17h85f68352957405e2E, symObjAddr: 0xB8, symBinAddr: 0x4BFA0, symSize: 0x24 }
  - { offset: 0xECDF1, size: 0x8, addend: 0x0, symName: __ZN6trx_rs12any_trx_file10AnyTrxFile11dpv_entries17h0c7abdcceba784c5E, symObjAddr: 0xDC, symBinAddr: 0x4BFC4, symSize: 0x24 }
  - { offset: 0xECE13, size: 0x8, addend: 0x0, symName: __ZN6trx_rs12any_trx_file10AnyTrxFile11nb_vertices17h1122d53286500307E, symObjAddr: 0x100, symBinAddr: 0x4BFE8, symSize: 0xA0 }
  - { offset: 0xECEB1, size: 0x8, addend: 0x0, symName: __ZN6trx_rs12any_trx_file10AnyTrxFile12groups_owned17hb90f9af35f2f9827E, symObjAddr: 0x1C4, symBinAddr: 0x4C088, symSize: 0x24 }
  - { offset: 0xECF6F, size: 0x8, addend: 0x0, symName: __ZN6trx_rs12any_trx_file10AnyTrxFile13positions_ref17ha435e61f6362503eE, symObjAddr: 0x29C, symBinAddr: 0x4C0AC, symSize: 0xCC }
  - { offset: 0xECFE8, size: 0x8, addend: 0x0, symName: __ZN6trx_rs12any_trx_file10AnyTrxFile14nb_streamlines17hf3562506c462ff54E, symObjAddr: 0x368, symBinAddr: 0x4C178, symSize: 0xA0 }
  - { offset: 0xED147, size: 0x8, addend: 0x0, symName: __ZN6trx_rs12any_trx_file10AnyTrxFile17dpg_group_entries17h124f93ea6154abd9E, symObjAddr: 0x498, symBinAddr: 0x4C218, symSize: 0x24 }
  - { offset: 0xED187, size: 0x8, addend: 0x0, symName: __ZN6trx_rs12any_trx_file10AnyTrxFile4load17h90edd7adf92f98d3E, symObjAddr: 0x5D4, symBinAddr: 0x4C23C, symSize: 0x414 }
  - { offset: 0xED2AF, size: 0x8, addend: 0x0, symName: __ZN6trx_rs12any_trx_file10AnyTrxFile5dtype17hd1544dd29e502355E, symObjAddr: 0xA30, symBinAddr: 0x4C650, symSize: 0x5C }
  - { offset: 0xED2DE, size: 0x8, addend: 0x0, symName: __ZN6trx_rs12any_trx_file10AnyTrxFile6header17hf64c685295598673E, symObjAddr: 0xA8C, symBinAddr: 0x4C6AC, symSize: 0xA0 }
  - { offset: 0xED663, size: 0x8, addend: 0x0, symName: __ZN8bytemuck8internal13is_aligned_to17h1de60627a9c5c674E, symObjAddr: 0x0, symBinAddr: 0x4D1D8, symSize: 0x58 }
  - { offset: 0xED67A, size: 0x8, addend: 0x0, symName: __ZN8bytemuck8internal13is_aligned_to17h1de60627a9c5c674E, symObjAddr: 0x0, symBinAddr: 0x4D1D8, symSize: 0x58 }
  - { offset: 0xED6F6, size: 0x8, addend: 0x0, symName: __ZN8bytemuck8internal10cast_slice17h4222c8448799082bE, symObjAddr: 0x0, symBinAddr: 0x4D230, symSize: 0x70 }
  - { offset: 0xED731, size: 0x8, addend: 0x0, symName: __ZN8bytemuck8internal10cast_slice17h4222c8448799082bE, symObjAddr: 0x0, symBinAddr: 0x4D230, symSize: 0x70 }
  - { offset: 0xED78D, size: 0x8, addend: 0x0, symName: __ZN8bytemuck8internal10cast_slice17h47be22d3d70f3ce4E, symObjAddr: 0x70, symBinAddr: 0x4D2A0, symSize: 0x70 }
  - { offset: 0xED7E9, size: 0x8, addend: 0x0, symName: __ZN8bytemuck8internal10cast_slice17h4d7fff1051c0ba6fE, symObjAddr: 0xE0, symBinAddr: 0x4D310, symSize: 0x70 }
  - { offset: 0xED845, size: 0x8, addend: 0x0, symName: __ZN8bytemuck8internal10cast_slice17h7a1e2a41c9efc165E, symObjAddr: 0x1C0, symBinAddr: 0x4D380, symSize: 0x70 }
  - { offset: 0xED8A1, size: 0x8, addend: 0x0, symName: __ZN8bytemuck8internal10cast_slice17h8ef0a526a618f942E, symObjAddr: 0x2A0, symBinAddr: 0x4D3F0, symSize: 0x70 }
  - { offset: 0xED8FD, size: 0x8, addend: 0x0, symName: __ZN8bytemuck8internal10cast_slice17h8feae410c851b436E, symObjAddr: 0x310, symBinAddr: 0x4D460, symSize: 0x70 }
  - { offset: 0xED959, size: 0x8, addend: 0x0, symName: __ZN8bytemuck8internal10cast_slice17h964770e0fb90ff87E, symObjAddr: 0x3F0, symBinAddr: 0x4D4D0, symSize: 0x70 }
  - { offset: 0xED9B5, size: 0x8, addend: 0x0, symName: __ZN8bytemuck8internal10cast_slice17hb6ba8f39212a8c67E, symObjAddr: 0x460, symBinAddr: 0x4D540, symSize: 0x70 }
  - { offset: 0xEDA11, size: 0x8, addend: 0x0, symName: __ZN8bytemuck8internal10cast_slice17hc8aac259136ca1f0E, symObjAddr: 0x4D0, symBinAddr: 0x4D5B0, symSize: 0x70 }
  - { offset: 0xEDA6D, size: 0x8, addend: 0x0, symName: __ZN8bytemuck8internal10cast_slice17hd9d6c55453fdd849E, symObjAddr: 0x5B0, symBinAddr: 0x4D620, symSize: 0x70 }
  - { offset: 0xEDAC9, size: 0x8, addend: 0x0, symName: __ZN8bytemuck8internal10cast_slice17he28de181c28f201aE, symObjAddr: 0x620, symBinAddr: 0x4D690, symSize: 0x70 }
  - { offset: 0xEDB25, size: 0x8, addend: 0x0, symName: __ZN8bytemuck8internal10cast_slice17he98f728e06fd62e0E, symObjAddr: 0x690, symBinAddr: 0x4D700, symSize: 0x70 }
  - { offset: 0xEDB81, size: 0x8, addend: 0x0, symName: __ZN8bytemuck8internal10cast_slice17heb92255c764f9c14E, symObjAddr: 0x700, symBinAddr: 0x4D770, symSize: 0x70 }
  - { offset: 0xEDBDD, size: 0x8, addend: 0x0, symName: __ZN8bytemuck8internal14try_cast_slice17h0ebfa5620d419969E, symObjAddr: 0xB20, symBinAddr: 0x4D7E0, symSize: 0x1A0 }
  - { offset: 0xEDC51, size: 0x8, addend: 0x0, symName: __ZN8bytemuck8internal14try_cast_slice17h383b4020b0829c91E, symObjAddr: 0xE60, symBinAddr: 0x4D980, symSize: 0x1A0 }
  - { offset: 0xEDCC5, size: 0x8, addend: 0x0, symName: __ZN8bytemuck8internal14try_cast_slice17h787e25ed35533268E, symObjAddr: 0x1000, symBinAddr: 0x4DB20, symSize: 0x1A0 }
  - { offset: 0xEDD39, size: 0x8, addend: 0x0, symName: __ZN8bytemuck8internal14try_cast_slice17h859850485ee1187dE, symObjAddr: 0x1340, symBinAddr: 0x4DCC0, symSize: 0x1A0 }
  - { offset: 0xEDDAD, size: 0x8, addend: 0x0, symName: __ZN8bytemuck8internal14try_cast_slice17h86f07fce5e89d474E, symObjAddr: 0x14E0, symBinAddr: 0x4DE60, symSize: 0x1A0 }
  - { offset: 0xEDE21, size: 0x8, addend: 0x0, symName: __ZN8bytemuck8internal14try_cast_slice17h8f79cab641fc9406E, symObjAddr: 0x1680, symBinAddr: 0x4E000, symSize: 0x1A0 }
  - { offset: 0xEDE95, size: 0x8, addend: 0x0, symName: __ZN8bytemuck8internal14try_cast_slice17ha74504dad2c25196E, symObjAddr: 0x1820, symBinAddr: 0x4E1A0, symSize: 0x1A0 }
  - { offset: 0xEDF09, size: 0x8, addend: 0x0, symName: __ZN8bytemuck8internal14try_cast_slice17haab60968215707c9E, symObjAddr: 0x19C0, symBinAddr: 0x4E340, symSize: 0x1A0 }
  - { offset: 0xEDF7D, size: 0x8, addend: 0x0, symName: __ZN8bytemuck8internal14try_cast_slice17hac436d7b7d6c7707E, symObjAddr: 0x1B60, symBinAddr: 0x4E4E0, symSize: 0x1A0 }
  - { offset: 0xEDFF1, size: 0x8, addend: 0x0, symName: __ZN8bytemuck8internal14try_cast_slice17hbd00849a4c942c7aE, symObjAddr: 0x1D00, symBinAddr: 0x4E680, symSize: 0x1A0 }
  - { offset: 0xEE065, size: 0x8, addend: 0x0, symName: __ZN8bytemuck8internal14try_cast_slice17hbde48b4ed370e4b1E, symObjAddr: 0x1EA0, symBinAddr: 0x4E820, symSize: 0x1A0 }
  - { offset: 0xEE0D9, size: 0x8, addend: 0x0, symName: __ZN8bytemuck8internal14try_cast_slice17hc4a4322e23b5c88dE, symObjAddr: 0x2040, symBinAddr: 0x4E9C0, symSize: 0x1A0 }
  - { offset: 0xEE14D, size: 0x8, addend: 0x0, symName: __ZN8bytemuck8internal14try_cast_slice17he598e4a35ecb7682E, symObjAddr: 0x21E0, symBinAddr: 0x4EB60, symSize: 0x1A0 }
  - { offset: 0xEE1C1, size: 0x8, addend: 0x0, symName: __ZN8bytemuck8internal20something_went_wrong17h8899152e9b4b1901E, symObjAddr: 0x2520, symBinAddr: 0x13E288, symSize: 0xAC }
  - { offset: 0xF0EF9, size: 0x8, addend: 0x0, symName: '__ZN92_$LT$hashbrown..map..Iter$LT$K$C$V$GT$$u20$as$u20$core..iter..traits..iterator..Iterator$GT$4next17h9b218a0e33eec05fE', symObjAddr: 0x1880, symBinAddr: 0x4ED00, symSize: 0xF0 }
  - { offset: 0xF1014, size: 0x8, addend: 0x0, symName: '__ZN92_$LT$hashbrown..map..Iter$LT$K$C$V$GT$$u20$as$u20$core..iter..traits..iterator..Iterator$GT$4next17hcb1c1432ded9c045E', symObjAddr: 0x1970, symBinAddr: 0x4EDF0, symSize: 0xF0 }
  - { offset: 0xF112F, size: 0x8, addend: 0x0, symName: '__ZN92_$LT$hashbrown..map..Iter$LT$K$C$V$GT$$u20$as$u20$core..iter..traits..iterator..Iterator$GT$4next17hec2756d8262e8681E', symObjAddr: 0x1A60, symBinAddr: 0x4EEE0, symSize: 0xF0 }
  - { offset: 0xF1289, size: 0x8, addend: 0x0, symName: '__ZN9hashbrown3map11make_hasher28_$u7b$$u7b$closure$u7d$$u7d$17h0a95d98854bed1a2E', symObjAddr: 0x1C9C, symBinAddr: 0x4EFD0, symSize: 0x3C }
  - { offset: 0xF1305, size: 0x8, addend: 0x0, symName: '__ZN9hashbrown3map11make_hasher28_$u7b$$u7b$closure$u7d$$u7d$17h6034caf5a5000017E', symObjAddr: 0x1D50, symBinAddr: 0x4F00C, symSize: 0x3C }
  - { offset: 0xF1381, size: 0x8, addend: 0x0, symName: '__ZN9hashbrown3map11make_hasher28_$u7b$$u7b$closure$u7d$$u7d$17h7f62d97e58307fcbE', symObjAddr: 0x1DC8, symBinAddr: 0x4F048, symSize: 0x3C }
  - { offset: 0xF1475, size: 0x8, addend: 0x0, symName: '__ZN9hashbrown3map14equivalent_key28_$u7b$$u7b$closure$u7d$$u7d$17h0dfbc0bdb3019d04E', symObjAddr: 0x1E7C, symBinAddr: 0x4F084, symSize: 0x30 }
  - { offset: 0xF14CC, size: 0x8, addend: 0x0, symName: '__ZN9hashbrown3map14equivalent_key28_$u7b$$u7b$closure$u7d$$u7d$17h0fd0a9fe7cf21a40E', symObjAddr: 0x1EAC, symBinAddr: 0x4F0B4, symSize: 0x30 }
  - { offset: 0xF1523, size: 0x8, addend: 0x0, symName: '__ZN9hashbrown3map14equivalent_key28_$u7b$$u7b$closure$u7d$$u7d$17h248afcced51d87e4E', symObjAddr: 0x1EDC, symBinAddr: 0x4F0E4, symSize: 0x3C }
  - { offset: 0xF157A, size: 0x8, addend: 0x0, symName: '__ZN9hashbrown3map14equivalent_key28_$u7b$$u7b$closure$u7d$$u7d$17h9a35c84a96f959bfE', symObjAddr: 0x1FF0, symBinAddr: 0x4F120, symSize: 0x3C }
  - { offset: 0xF15D1, size: 0x8, addend: 0x0, symName: '__ZN9hashbrown3map14equivalent_key28_$u7b$$u7b$closure$u7d$$u7d$17hcd7c2606dd01f0ffE', symObjAddr: 0x208C, symBinAddr: 0x4F15C, symSize: 0x30 }
  - { offset: 0xF269F, size: 0x8, addend: 0x0, symName: '__ZN9hashbrown3map24HashMap$LT$K$C$V$C$S$GT$24with_capacity_and_hasher17hd00be3ee26aad4c5E', symObjAddr: 0x20EC, symBinAddr: 0x4F18C, symSize: 0x78 }
  - { offset: 0xF2831, size: 0x8, addend: 0x0, symName: '__ZN9hashbrown3map28HashMap$LT$K$C$V$C$S$C$A$GT$3get17h174cb9fe884ae896E', symObjAddr: 0x2164, symBinAddr: 0x4F204, symSize: 0x118 }
  - { offset: 0xF2AFA, size: 0x8, addend: 0x0, symName: '__ZN9hashbrown3map28HashMap$LT$K$C$V$C$S$C$A$GT$3get17hc491f1ed27ba46c8E', symObjAddr: 0x26B4, symBinAddr: 0x4F31C, symSize: 0x118 }
  - { offset: 0xF2E22, size: 0x8, addend: 0x0, symName: '__ZN9hashbrown3map28HashMap$LT$K$C$V$C$S$C$A$GT$4iter17h53efaa5472fcd176E', symObjAddr: 0x2978, symBinAddr: 0x4F434, symSize: 0xA8 }
  - { offset: 0xF3108, size: 0x8, addend: 0x0, symName: '__ZN9hashbrown3map28HashMap$LT$K$C$V$C$S$C$A$GT$4iter17h6d4076e199d1cf04E', symObjAddr: 0x2A20, symBinAddr: 0x4F4DC, symSize: 0xA8 }
  - { offset: 0xF33C7, size: 0x8, addend: 0x0, symName: '__ZN9hashbrown3map28HashMap$LT$K$C$V$C$S$C$A$GT$4iter17h8784b305684ecd8fE', symObjAddr: 0x2AC8, symBinAddr: 0x4F584, symSize: 0xA8 }
  - { offset: 0xF369A, size: 0x8, addend: 0x0, symName: '__ZN9hashbrown3map28HashMap$LT$K$C$V$C$S$C$A$GT$6insert17h0889306d7c4aa300E', symObjAddr: 0x2C18, symBinAddr: 0x4F62C, symSize: 0x228 }
  - { offset: 0xF39BB, size: 0x8, addend: 0x0, symName: '__ZN9hashbrown3map28HashMap$LT$K$C$V$C$S$C$A$GT$6insert17h60f2bd22edfffc58E', symObjAddr: 0x3494, symBinAddr: 0x4F854, symSize: 0x254 }
  - { offset: 0xF3CED, size: 0x8, addend: 0x0, symName: '__ZN9hashbrown3map28HashMap$LT$K$C$V$C$S$C$A$GT$6insert17ha2421ee9560b2db0E', symObjAddr: 0x3ABC, symBinAddr: 0x4FAA8, symSize: 0x25C }
  - { offset: 0xF3F78, size: 0x8, addend: 0x0, symName: '__ZN4core3str21_$LT$impl$u20$str$GT$6rsplit17hef0f3a2d5673ac31E', symObjAddr: 0x2F4, symBinAddr: 0x4FD04, symSize: 0x98 }
  - { offset: 0xF4056, size: 0x8, addend: 0x0, symName: '__ZN4core3str21_$LT$impl$u20$str$GT$7rsplitn17h70b47045ff3f1bcfE', symObjAddr: 0x38C, symBinAddr: 0x4FD9C, symSize: 0xD0 }
  - { offset: 0xF42D2, size: 0x8, addend: 0x0, symName: '__ZN45_$LT$T$u20$as$u20$alloc..string..ToString$GT$9to_string17h7b6d1fb51f9cdbe4E', symObjAddr: 0x0, symBinAddr: 0x4FE6C, symSize: 0x24 }
  - { offset: 0xF42EE, size: 0x8, addend: 0x0, symName: '__ZN45_$LT$T$u20$as$u20$alloc..string..ToString$GT$9to_string17h7b6d1fb51f9cdbe4E', symObjAddr: 0x0, symBinAddr: 0x4FE6C, symSize: 0x24 }
  - { offset: 0xF4346, size: 0x8, addend: 0x0, symName: '__ZN71_$LT$alloc..borrow..Cow$LT$B$GT$$u20$as$u20$core..ops..deref..Deref$GT$5deref17h62bb94ac8697413bE', symObjAddr: 0x38, symBinAddr: 0x4FEA4, symSize: 0x78 }
  - { offset: 0xF44D7, size: 0x8, addend: 0x0, symName: '__ZN50_$LT$T$u20$as$u20$core..convert..Into$LT$U$GT$$GT$4into17h015254b596055126E', symObjAddr: 0x24, symBinAddr: 0x4FE90, symSize: 0x14 }
  - { offset: 0xF4718, size: 0x8, addend: 0x0, symName: '__ZN4core4iter6traits8iterator8Iterator12try_for_each4call28_$u7b$$u7b$closure$u7d$$u7d$17h8ff7a6246c5bf8e7E', symObjAddr: 0x60, symBinAddr: 0x4FF1C, symSize: 0x28 }
  - { offset: 0xF4789, size: 0x8, addend: 0x0, symName: '__ZN4core4iter6traits8iterator8Iterator8for_each4call28_$u7b$$u7b$closure$u7d$$u7d$17h05e6c0684e7f9491E', symObjAddr: 0x21C, symBinAddr: 0x4FF44, symSize: 0x40 }
  - { offset: 0xF47E2, size: 0x8, addend: 0x0, symName: '__ZN4core4iter6traits8iterator8Iterator8for_each4call28_$u7b$$u7b$closure$u7d$$u7d$17hc93b7de7d999512aE', symObjAddr: 0x964, symBinAddr: 0x4FF84, symSize: 0x40 }
  - { offset: 0xF483B, size: 0x8, addend: 0x0, symName: '__ZN4core4iter6traits8iterator8Iterator8for_each4call28_$u7b$$u7b$closure$u7d$$u7d$17hefa69dab32e8885dE', symObjAddr: 0xB9C, symBinAddr: 0x4FFC4, symSize: 0x40 }
  - { offset: 0xF4F45, size: 0x8, addend: 0x0, symName: '__ZN55_$LT$$RF$T$u20$as$u20$thiserror..display..AsDisplay$GT$10as_display17h0a7d8c87522f6092E', symObjAddr: 0x20, symBinAddr: 0x50004, symSize: 0x18 }
  - { offset: 0xF5067, size: 0x8, addend: 0x0, symName: __ZN10serde_core2de5Error13missing_field17hfb27addfce57a340E, symObjAddr: 0x0, symBinAddr: 0x13E334, symSize: 0x54 }
  - { offset: 0xF5336, size: 0x8, addend: 0x0, symName: '__ZN66_$LT$serde_json..error..Error$u20$as$u20$serde_core..de..Error$GT$6custom17he48c3210d14459eeE', symObjAddr: 0x1B4, symBinAddr: 0x13E454, symSize: 0x60 }
  - { offset: 0xF5673, size: 0x8, addend: 0x0, symName: '__ZN42_$LT$$RF$T$u20$as$u20$core..fmt..Debug$GT$3fmt17ha807972c52661e96E', symObjAddr: 0x120, symBinAddr: 0x5001C, symSize: 0x30 }
  - { offset: 0xF56BF, size: 0x8, addend: 0x0, symName: '__ZN44_$LT$$RF$T$u20$as$u20$core..fmt..Display$GT$3fmt17h3118d288c168f6c6E', symObjAddr: 0x150, symBinAddr: 0x5004C, symSize: 0x30 }
  - { offset: 0xF590F, size: 0x8, addend: 0x0, symName: __ZN10serde_core2de5Error13missing_field17hfb27addfce57a340E, symObjAddr: 0x0, symBinAddr: 0x13E334, symSize: 0x54 }
  - { offset: 0xF5982, size: 0x8, addend: 0x0, symName: __ZN10serde_core2de5Error14invalid_length17hba20b8c754676d2cE, symObjAddr: 0x54, symBinAddr: 0x13E388, symSize: 0x78 }
  - { offset: 0xF59FF, size: 0x8, addend: 0x0, symName: __ZN10serde_core2de5Error15duplicate_field17h7f84c415678c00e7E, symObjAddr: 0xCC, symBinAddr: 0x13E400, symSize: 0x54 }
  - { offset: 0xF5A84, size: 0x8, addend: 0x0, symName: '__ZN55_$LT$$RF$T$u20$as$u20$thiserror..display..AsDisplay$GT$10as_display17h012c12dcc7c291d1E', symObjAddr: 0x19C, symBinAddr: 0x5007C, symSize: 0x18 }
  - { offset: 0xF5C3B, size: 0x8, addend: 0x0, symName: '__ZN166_$LT$trx_rs..header.._..$LT$impl$u20$serde_core..de..Deserialize$u20$for$u20$trx_rs..header..Header$GT$..deserialize..__Visitor$u20$as$u20$serde_core..de..Visitor$GT$9expecting17hd499ddb31f2580cfE', symObjAddr: 0x0, symBinAddr: 0x50094, symSize: 0x40 }
  - { offset: 0xF5FE5, size: 0x8, addend: 0x0, symName: '__ZN166_$LT$trx_rs..header.._..$LT$impl$u20$serde_core..de..Deserialize$u20$for$u20$trx_rs..header..Header$GT$..deserialize..__Visitor$u20$as$u20$serde_core..de..Visitor$GT$9expecting17hd499ddb31f2580cfE', symObjAddr: 0x0, symBinAddr: 0x50094, symSize: 0x40 }
  - { offset: 0xF73C6, size: 0x8, addend: 0x0, symName: __ZN6trx_rs6header6Header9from_file17hd3547ae593b69bafE, symObjAddr: 0x414, symBinAddr: 0x500D4, symSize: 0x178 }
  - { offset: 0xF7775, size: 0x8, addend: 0x0, symName: __ZN3std2io4Read14read_buf_exact17h770135b143510513E, symObjAddr: 0x638, symBinAddr: 0x50428, symSize: 0x2C }
  - { offset: 0xF77C2, size: 0x8, addend: 0x0, symName: __ZN3std2fs14read_to_string17ha3184bea5b4dfe41E, symObjAddr: 0x74, symBinAddr: 0x5024C, symSize: 0x68 }
  - { offset: 0xF78F2, size: 0x8, addend: 0x0, symName: __ZN3std2fs8read_dir17hc5cf1ac0c3805cecE, symObjAddr: 0x570, symBinAddr: 0x50360, symSize: 0xC8 }
  - { offset: 0xF8052, size: 0x8, addend: 0x0, symName: '__ZN63_$LT$I$u20$as$u20$core..iter..traits..collect..IntoIterator$GT$9into_iter17h46b6a375ac192ad2E', symObjAddr: 0x714, symBinAddr: 0x5047C, symSize: 0x18 }
  - { offset: 0xF8230, size: 0x8, addend: 0x0, symName: __ZN3std2fs4File4open17hbe2c253c6a159be1E, symObjAddr: 0xDC, symBinAddr: 0x502B4, symSize: 0xAC }
  - { offset: 0xF84C5, size: 0x8, addend: 0x0, symName: '__ZN48_$LT$$RF$T$u20$as$u20$memmap2..MmapAsRawDesc$GT$11as_raw_desc17h2bfd639273135637E', symObjAddr: 0x6EC, symBinAddr: 0x50454, symSize: 0x28 }
  - { offset: 0xF8591, size: 0x8, addend: 0x0, symName: '__ZN4core3ptr9const_ptr33_$LT$impl$u20$$BP$const$u20$T$GT$20offset_from_unsigned18precondition_check17hbd003ed7cd0693cbE', symObjAddr: 0x0, symBinAddr: 0x50494, symSize: 0x60 }
  - { offset: 0xF85B7, size: 0x8, addend: 0x0, symName: '__ZN4core3ptr9const_ptr33_$LT$impl$u20$$BP$const$u20$T$GT$20offset_from_unsigned18precondition_check17hbd003ed7cd0693cbE', symObjAddr: 0x0, symBinAddr: 0x50494, symSize: 0x60 }
  - { offset: 0xF8676, size: 0x8, addend: 0x0, symName: __ZN4core3mem11size_of_val17h0cb62761bb62fffcE, symObjAddr: 0x0, symBinAddr: 0x504F4, symSize: 0x20 }
  - { offset: 0xF869B, size: 0x8, addend: 0x0, symName: __ZN4core3mem11size_of_val17h0cb62761bb62fffcE, symObjAddr: 0x0, symBinAddr: 0x504F4, symSize: 0x20 }
  - { offset: 0xF86D2, size: 0x8, addend: 0x0, symName: __ZN4core3mem11size_of_val17h17e730bc20c0f4d8E, symObjAddr: 0x20, symBinAddr: 0x50514, symSize: 0x20 }
  - { offset: 0xF8709, size: 0x8, addend: 0x0, symName: __ZN4core3mem11size_of_val17h2b9e8a5dc68bdfe7E, symObjAddr: 0x40, symBinAddr: 0x50534, symSize: 0x24 }
  - { offset: 0xF8740, size: 0x8, addend: 0x0, symName: __ZN4core3mem11size_of_val17h32043161f7b35d30E, symObjAddr: 0x64, symBinAddr: 0x50558, symSize: 0x24 }
  - { offset: 0xF8777, size: 0x8, addend: 0x0, symName: __ZN4core3mem11size_of_val17hb022ef417cbde177E, symObjAddr: 0x88, symBinAddr: 0x5057C, symSize: 0x24 }
  - { offset: 0xF8918, size: 0x8, addend: 0x0, symName: '__ZN166_$LT$trx_rs..header.._..$LT$impl$u20$serde_core..de..Deserialize$u20$for$u20$trx_rs..header..Header$GT$..deserialize..__Visitor$u20$as$u20$serde_core..de..Visitor$GT$9visit_map17h832fc473dcfae5d0E', symObjAddr: 0x0, symBinAddr: 0x505A0, symSize: 0xA38 }
  - { offset: 0xF912C, size: 0x8, addend: 0x0, symName: '__ZN166_$LT$trx_rs..header.._..$LT$impl$u20$serde_core..de..Deserialize$u20$for$u20$trx_rs..header..Header$GT$..deserialize..__Visitor$u20$as$u20$serde_core..de..Visitor$GT$9visit_map17h832fc473dcfae5d0E', symObjAddr: 0x0, symBinAddr: 0x505A0, symSize: 0xA38 }
  - { offset: 0xF9477, size: 0x8, addend: 0x0, symName: '__ZN168_$LT$trx_rs..header.._..$LT$impl$u20$serde_core..de..Deserialize$u20$for$u20$trx_rs..header..Header$GT$..deserialize..__Field$u20$as$u20$serde_core..de..Deserialize$GT$11deserialize17hc54a2e890a29d933E', symObjAddr: 0xA38, symBinAddr: 0x50FD8, symSize: 0x24 }
  - { offset: 0xF94B2, size: 0x8, addend: 0x0, symName: '__ZN171_$LT$trx_rs..header.._..$LT$impl$u20$serde_core..de..Deserialize$u20$for$u20$trx_rs..header..Header$GT$..deserialize..__FieldVisitor$u20$as$u20$serde_core..de..Visitor$GT$18visit_borrowed_str17h3b5744c13cbcbb4eE', symObjAddr: 0xA5C, symBinAddr: 0x50FFC, symSize: 0x180 }
  - { offset: 0xF951E, size: 0x8, addend: 0x0, symName: '__ZN171_$LT$trx_rs..header.._..$LT$impl$u20$serde_core..de..Deserialize$u20$for$u20$trx_rs..header..Header$GT$..deserialize..__FieldVisitor$u20$as$u20$serde_core..de..Visitor$GT$9visit_str17hb3d2fb834166cbc8E', symObjAddr: 0xBDC, symBinAddr: 0x5117C, symSize: 0x1A0 }
  - { offset: 0xF9645, size: 0x8, addend: 0x0, symName: '__ZN6trx_rs6header1_80_$LT$impl$u20$serde_core..de..Deserialize$u20$for$u20$trx_rs..header..Header$GT$11deserialize17h7b3d6d04ec757488E', symObjAddr: 0x1118, symBinAddr: 0x51348, symSize: 0x24 }
  - { offset: 0xF96D2, size: 0x8, addend: 0x0, symName: '__ZN46_$LT$T$u20$as$u20$serde_core..de..Expected$GT$3fmt17h187f90e03a3aa78fE', symObjAddr: 0xD7C, symBinAddr: 0x5131C, symSize: 0x2C }
  - { offset: 0xFA9C8, size: 0x8, addend: 0x0, symName: __ZN3std2io5error5Error4kind17hdf3f76e5a2557ab2E, symObjAddr: 0x0, symBinAddr: 0x5136C, symSize: 0xB4 }
  - { offset: 0xFAD26, size: 0x8, addend: 0x0, symName: '__ZN66_$LT$std..io..error..ErrorKind$u20$as$u20$core..cmp..PartialEq$GT$2eq17h92865f17d5df47faE', symObjAddr: 0xB4, symBinAddr: 0x51420, symSize: 0x2C }
  - { offset: 0xFAE9E, size: 0x8, addend: 0x0, symName: __ZN3std2io5error5Error4kind17hdf3f76e5a2557ab2E, symObjAddr: 0x0, symBinAddr: 0x5136C, symSize: 0xB4 }
  - { offset: 0xFCE2D, size: 0x8, addend: 0x0, symName: '__ZN4core3ptr100drop_in_place$LT$core..result..Result$LT$$u5b$f64$u3b$$u20$4$u5d$$C$serde_json..error..Error$GT$$GT$17h24664a9551d8206eE', symObjAddr: 0x1E78, symBinAddr: 0x51CD8, symSize: 0x40 }
  - { offset: 0xFCE5C, size: 0x8, addend: 0x0, symName: '__ZN4core3ptr100drop_in_place$LT$core..result..Result$LT$$u5b$u64$u3b$$u20$3$u5d$$C$serde_json..error..Error$GT$$GT$17h1bab30a735a102c8E', symObjAddr: 0x1EB8, symBinAddr: 0x51D18, symSize: 0x40 }
  - { offset: 0xFCE8B, size: 0x8, addend: 0x0, symName: '__ZN4core3ptr100drop_in_place$LT$core..result..Result$LT$core..convert..Infallible$C$trx_rs..error..TrxError$GT$$GT$17h140fa21e6b157794E', symObjAddr: 0x1EF8, symBinAddr: 0x51D58, symSize: 0x30 }
  - { offset: 0xFCEBA, size: 0x8, addend: 0x0, symName: '__ZN4core3ptr102drop_in_place$LT$alloc..vec..Vec$LT$$LP$alloc..string..String$C$alloc..vec..Vec$LT$u32$GT$$RP$$GT$$GT$17hb99b562ee4ca9e27E', symObjAddr: 0x1F94, symBinAddr: 0x51D88, symSize: 0x5C }
  - { offset: 0xFCEE9, size: 0x8, addend: 0x0, symName: '__ZN4core3ptr103drop_in_place$LT$alloc..sync..Weak$LT$zip..read..zip_archive..Shared$C$$RF$alloc..alloc..Global$GT$$GT$17hd6a93f5356b84102E', symObjAddr: 0x1FF0, symBinAddr: 0x51DE4, symSize: 0x24 }
  - { offset: 0xFCF18, size: 0x8, addend: 0x0, symName: '__ZN4core3ptr107drop_in_place$LT$alloc..vec..Vec$LT$$LP$alloc..string..String$C$trx_rs..trx_file..DataArrayInfo$RP$$GT$$GT$17h9328991821ee0787E', symObjAddr: 0x2080, symBinAddr: 0x51E08, symSize: 0x5C }
  - { offset: 0xFCF47, size: 0x8, addend: 0x0, symName: '__ZN4core3ptr107drop_in_place$LT$zip..read..magic_finder..OptimisticMagicFinder$LT$zip..read..magic_finder..Forward$GT$$GT$17h2da1a60da1ce6f6fE', symObjAddr: 0x2100, symBinAddr: 0x51E64, symSize: 0x24 }
  - { offset: 0xFCF76, size: 0x8, addend: 0x0, symName: '__ZN4core3ptr109drop_in_place$LT$alloc..raw_vec..RawVec$LT$$LP$alloc..string..String$C$alloc..vec..Vec$LT$u32$GT$$RP$$GT$$GT$17h9e3afd2145ecd088E', symObjAddr: 0x220C, symBinAddr: 0x51E88, symSize: 0x24 }
  - { offset: 0xFCFA5, size: 0x8, addend: 0x0, symName: '__ZN4core3ptr109drop_in_place$LT$hashbrown..raw..RawTable$LT$$LP$alloc..string..String$C$serde_json..value..Value$RP$$GT$$GT$17ha660417901c26e89E', symObjAddr: 0x2254, symBinAddr: 0x51EAC, symSize: 0x24 }
  - { offset: 0xFCFD4, size: 0x8, addend: 0x0, symName: '__ZN4core3ptr110drop_in_place$LT$core..result..Result$LT$zip..read..zip_archive..SharedBuilder$C$zip..result..ZipError$GT$$GT$17h8d2d8694769c4fc4E', symObjAddr: 0x2278, symBinAddr: 0x51ED0, symSize: 0x58 }
  - { offset: 0xFD003, size: 0x8, addend: 0x0, symName: '__ZN4core3ptr112drop_in_place$LT$hashbrown..raw..RawTable$LT$$LP$alloc..string..String$C$trx_rs..trx_file..DataArray$RP$$GT$$GT$17h066cfb8c3173efefE', symObjAddr: 0x233C, symBinAddr: 0x51F28, symSize: 0x24 }
  - { offset: 0xFD032, size: 0x8, addend: 0x0, symName: '__ZN4core3ptr113drop_in_place$LT$core..result..Result$LT$serde_core..private..content..Content$C$serde_json..error..Error$GT$$GT$17h9d047a0ae2a90f55E', symObjAddr: 0x2360, symBinAddr: 0x51F4C, symSize: 0x58 }
  - { offset: 0xFD061, size: 0x8, addend: 0x0, symName: '__ZN4core3ptr113drop_in_place$LT$std..collections..hash..map..HashMap$LT$alloc..string..String$C$serde_json..value..Value$GT$$GT$17h3123b58d44b418b1E', symObjAddr: 0x23DC, symBinAddr: 0x51FA4, symSize: 0x24 }
  - { offset: 0xFD090, size: 0x8, addend: 0x0, symName: '__ZN4core3ptr114drop_in_place$LT$alloc..raw_vec..RawVec$LT$$LP$alloc..string..String$C$trx_rs..trx_file..DataArrayInfo$RP$$GT$$GT$17h0c4b6466670512c1E', symObjAddr: 0x2400, symBinAddr: 0x51FC8, symSize: 0x24 }
  - { offset: 0xFD0BF, size: 0x8, addend: 0x0, symName: '__ZN4core3ptr116drop_in_place$LT$std..collections..hash..map..HashMap$LT$alloc..string..String$C$trx_rs..trx_file..DataArray$GT$$GT$17h9cff7336ce464d69E', symObjAddr: 0x2490, symBinAddr: 0x51FEC, symSize: 0x24 }
  - { offset: 0xFD0EE, size: 0x8, addend: 0x0, symName: '__ZN4core3ptr118drop_in_place$LT$alloc..vec..into_iter..IntoIter$LT$$LP$alloc..string..String$C$alloc..vec..Vec$LT$u32$GT$$RP$$GT$$GT$17hb81f16c4372dbda4E', symObjAddr: 0x24D8, symBinAddr: 0x52010, symSize: 0x24 }
  - { offset: 0xFD11D, size: 0x8, addend: 0x0, symName: '__ZN4core3ptr118drop_in_place$LT$core..option..Option$LT$zip..spec..DataAndPosition$LT$zip..spec..Zip64CentralDirectoryEnd$GT$$GT$$GT$17h447a93254573f53bE', symObjAddr: 0x24FC, symBinAddr: 0x52034, symSize: 0x44 }
  - { offset: 0xFD14C, size: 0x8, addend: 0x0, symName: '__ZN4core3ptr121drop_in_place$LT$core..result..Result$LT$$u5b$$u5b$f64$u3b$$u20$4$u5d$$u3b$$u20$4$u5d$$C$serde_json..error..Error$GT$$GT$17h297974a4b1d7c123E', symObjAddr: 0x2724, symBinAddr: 0x52078, symSize: 0x40 }
  - { offset: 0xFD17B, size: 0x8, addend: 0x0, symName: '__ZN4core3ptr128drop_in_place$LT$core..option..Option$LT$core..result..Result$LT$core..convert..Infallible$C$trx_rs..error..TrxError$GT$$GT$$GT$17heb94d4ffa9bba12bE', symObjAddr: 0x2874, symBinAddr: 0x520B8, symSize: 0x44 }
  - { offset: 0xFD1AA, size: 0x8, addend: 0x0, symName: '__ZN4core3ptr129drop_in_place$LT$core..result..Result$LT$$LP$u64$C$zip..spec..Zip64CentralDirectoryEndLocator$RP$$C$zip..result..ZipError$GT$$GT$17h1cf0f096a61b28fdE', symObjAddr: 0x28B8, symBinAddr: 0x520FC, symSize: 0x40 }
  - { offset: 0xFD1D9, size: 0x8, addend: 0x0, symName: '__ZN4core3ptr133drop_in_place$LT$hashbrown..map..HashMap$LT$alloc..string..String$C$serde_json..value..Value$C$std..hash..random..RandomState$GT$$GT$17h9b14eedfd182c45fE', symObjAddr: 0x29A8, symBinAddr: 0x5213C, symSize: 0x24 }
  - { offset: 0xFD208, size: 0x8, addend: 0x0, symName: '__ZN4core3ptr134drop_in_place$LT$core..option..Option$LT$$LP$serde_core..private..content..Content$C$serde_core..private..content..Content$RP$$GT$$GT$17h259030199908c723E', symObjAddr: 0x29CC, symBinAddr: 0x52160, symSize: 0x44 }
  - { offset: 0xFD237, size: 0x8, addend: 0x0, symName: '__ZN4core3ptr135drop_in_place$LT$core..option..Option$LT$zip..read..magic_finder..OptimisticMagicFinder$LT$zip..read..magic_finder..Forward$GT$$GT$$GT$17h2033370a86a65728E', symObjAddr: 0x2A58, symBinAddr: 0x521A4, symSize: 0x44 }
  - { offset: 0xFD266, size: 0x8, addend: 0x0, symName: '__ZN4core3ptr136drop_in_place$LT$hashbrown..map..HashMap$LT$alloc..string..String$C$trx_rs..trx_file..DataArray$C$std..hash..random..RandomState$GT$$GT$17hd1f256cbced07074E', symObjAddr: 0x2AC0, symBinAddr: 0x521E8, symSize: 0x24 }
  - { offset: 0xFD295, size: 0x8, addend: 0x0, symName: '__ZN4core3ptr139drop_in_place$LT$$LP$alloc..string..String$C$alloc..vec..Vec$LT$$LP$alloc..string..String$C$trx_rs..trx_file..DataArrayInfo$RP$$GT$$RP$$GT$17h3bb34455fa35db8bE', symObjAddr: 0x2AE4, symBinAddr: 0x5220C, symSize: 0x60 }
  - { offset: 0xFD2C4, size: 0x8, addend: 0x0, symName: '__ZN4core3ptr144drop_in_place$LT$$u5b$core..option..Option$LT$$LP$serde_core..private..content..Content$C$serde_core..private..content..Content$RP$$GT$$u5d$$GT$17ha24a04dea7817655E', symObjAddr: 0x2B44, symBinAddr: 0x5226C, symSize: 0xB4 }
  - { offset: 0xFD2F3, size: 0x8, addend: 0x0, symName: '__ZN4core3ptr144drop_in_place$LT$core..option..Option$LT$std..collections..hash..map..HashMap$LT$alloc..string..String$C$trx_rs..trx_file..DataArray$GT$$GT$$GT$17h9f87bc7c54905af9E', symObjAddr: 0x2BF8, symBinAddr: 0x52320, symSize: 0x44 }
  - { offset: 0xFD322, size: 0x8, addend: 0x0, symName: '__ZN4core3ptr148drop_in_place$LT$$LP$alloc..string..String$C$std..collections..hash..map..HashMap$LT$alloc..string..String$C$trx_rs..trx_file..DataArray$GT$$RP$$GT$17hfc6efbcbf659026bE', symObjAddr: 0x2C60, symBinAddr: 0x52364, symSize: 0x60 }
  - { offset: 0xFD351, size: 0x8, addend: 0x0, symName: '__ZN4core3ptr149drop_in_place$LT$$u5b$$LP$alloc..string..String$C$alloc..vec..Vec$LT$$LP$alloc..string..String$C$trx_rs..trx_file..DataArrayInfo$RP$$GT$$RP$$u5d$$GT$17h215783431216d8ffE', symObjAddr: 0x2D8C, symBinAddr: 0x523C4, symSize: 0xC4 }
  - { offset: 0xFD380, size: 0x8, addend: 0x0, symName: '__ZN4core3ptr157drop_in_place$LT$alloc..vec..Vec$LT$core..option..Option$LT$$LP$serde_core..private..content..Content$C$serde_core..private..content..Content$RP$$GT$$GT$$GT$17h6121ee351322c457E', symObjAddr: 0x2F68, symBinAddr: 0x52488, symSize: 0x5C }
  - { offset: 0xFD3AF, size: 0x8, addend: 0x0, symName: '__ZN4core3ptr161drop_in_place$LT$$LT$alloc..vec..into_iter..IntoIter$LT$T$C$A$GT$$u20$as$u20$core..ops..drop..Drop$GT$..drop..DropGuard$LT$$RF$str$C$alloc..alloc..Global$GT$$GT$17h358a6fa996473a1eE', symObjAddr: 0x300C, symBinAddr: 0x524E4, symSize: 0x24 }
  - { offset: 0xFD3DE, size: 0x8, addend: 0x0, symName: '__ZN4core3ptr162drop_in_place$LT$alloc..vec..Vec$LT$$LP$alloc..string..String$C$alloc..vec..Vec$LT$$LP$alloc..string..String$C$trx_rs..trx_file..DataArrayInfo$RP$$GT$$RP$$GT$$GT$17h7993443ef723a1f9E', symObjAddr: 0x3030, symBinAddr: 0x52508, symSize: 0x5C }
  - { offset: 0xFD40D, size: 0x8, addend: 0x0, symName: '__ZN4core3ptr164drop_in_place$LT$alloc..raw_vec..RawVec$LT$core..option..Option$LT$$LP$serde_core..private..content..Content$C$serde_core..private..content..Content$RP$$GT$$GT$$GT$17h22801552c788e828E', symObjAddr: 0x30B0, symBinAddr: 0x52564, symSize: 0x24 }
  - { offset: 0xFD43C, size: 0x8, addend: 0x0, symName: '__ZN4core3ptr169drop_in_place$LT$alloc..raw_vec..RawVec$LT$$LP$alloc..string..String$C$alloc..vec..Vec$LT$$LP$alloc..string..String$C$trx_rs..trx_file..DataArrayInfo$RP$$GT$$RP$$GT$$GT$17h44ce270f76af6ce5E', symObjAddr: 0x30D4, symBinAddr: 0x52588, symSize: 0x24 }
  - { offset: 0xFD46B, size: 0x8, addend: 0x0, symName: '__ZN4core3ptr180drop_in_place$LT$hashbrown..raw..RawTable$LT$$LP$alloc..string..String$C$std..collections..hash..map..HashMap$LT$alloc..string..String$C$trx_rs..trx_file..DataArray$GT$$RP$$GT$$GT$17h2ae04e1ce99b47e0E', symObjAddr: 0x3188, symBinAddr: 0x525AC, symSize: 0x24 }
  - { offset: 0xFD49A, size: 0x8, addend: 0x0, symName: '__ZN4core3ptr181drop_in_place$LT$hashbrown..scopeguard..ScopeGuard$LT$$RF$mut$u20$hashbrown..raw..RawTableInner$C$hashbrown..raw..RawTableInner..rehash_in_place..$u7b$$u7b$closure$u7d$$u7d$$GT$$GT$17hc38cc09edb03e5f4E', symObjAddr: 0x31D0, symBinAddr: 0x525D0, symSize: 0x24 }
  - { offset: 0xFD4C9, size: 0x8, addend: 0x0, symName: '__ZN4core3ptr184drop_in_place$LT$std..collections..hash..map..HashMap$LT$alloc..string..String$C$std..collections..hash..map..HashMap$LT$alloc..string..String$C$trx_rs..trx_file..DataArray$GT$$GT$$GT$17hf8eabc66b9d2a7e3E', symObjAddr: 0x31F4, symBinAddr: 0x525F4, symSize: 0x24 }
  - { offset: 0xFD4F8, size: 0x8, addend: 0x0, symName: '__ZN4core3ptr185drop_in_place$LT$alloc..boxed..Box$LT$zip..crc32..Crc32Reader$LT$zip..compression..Decompressor$LT$std..io..buffered..bufreader..BufReader$LT$zip..read..CryptoReader$GT$$GT$$GT$$GT$$GT$17heccf77c921d7cc64E', symObjAddr: 0x3218, symBinAddr: 0x52618, symSize: 0x60 }
  - { offset: 0xFD527, size: 0x8, addend: 0x0, symName: '__ZN4core3ptr195drop_in_place$LT$core..iter..adapters..map..Map$LT$alloc..vec..into_iter..IntoIter$LT$$RF$str$GT$$C$trx_rs..any_trx_file..collect_dpg_group_entries$LT$f32$GT$..$u7b$$u7b$closure$u7d$$u7d$$GT$$GT$17hb3e1c2fd34a16ff2E', symObjAddr: 0x3308, symBinAddr: 0x52678, symSize: 0x24 }
  - { offset: 0xFD556, size: 0x8, addend: 0x0, symName: '__ZN4core3ptr195drop_in_place$LT$core..iter..adapters..map..Map$LT$alloc..vec..into_iter..IntoIter$LT$$RF$str$GT$$C$trx_rs..any_trx_file..collect_dpg_group_entries$LT$f64$GT$..$u7b$$u7b$closure$u7d$$u7d$$GT$$GT$17hc1f1e58b571c6164E', symObjAddr: 0x332C, symBinAddr: 0x5269C, symSize: 0x24 }
  - { offset: 0xFD585, size: 0x8, addend: 0x0, symName: '__ZN4core3ptr196drop_in_place$LT$hashbrown..scopeguard..ScopeGuard$LT$hashbrown..raw..RawTableInner$C$hashbrown..raw..RawTableInner..prepare_resize$LT$alloc..alloc..Global$GT$..$u7b$$u7b$closure$u7d$$u7d$$GT$$GT$17hc3b72e72da002a62E', symObjAddr: 0x3350, symBinAddr: 0x526C0, symSize: 0x24 }
  - { offset: 0xFD5B4, size: 0x8, addend: 0x0, symName: '__ZN4core3ptr204drop_in_place$LT$hashbrown..map..HashMap$LT$alloc..string..String$C$std..collections..hash..map..HashMap$LT$alloc..string..String$C$trx_rs..trx_file..DataArray$GT$$C$std..hash..random..RandomState$GT$$GT$17hd4c174c1c7d14cf2E', symObjAddr: 0x3428, symBinAddr: 0x526E4, symSize: 0x24 }
  - { offset: 0xFD5E3, size: 0x8, addend: 0x0, symName: '__ZN4core3ptr211drop_in_place$LT$core..iter..adapters..map..Map$LT$alloc..vec..into_iter..IntoIter$LT$$RF$str$GT$$C$trx_rs..any_trx_file..collect_dpg_group_entries$LT$half..binary16..f16$GT$..$u7b$$u7b$closure$u7d$$u7d$$GT$$GT$17h664d02cbf31126a5E', symObjAddr: 0x344C, symBinAddr: 0x52708, symSize: 0x24 }
  - { offset: 0xFD612, size: 0x8, addend: 0x0, symName: '__ZN4core3ptr212drop_in_place$LT$$LT$alloc..vec..into_iter..IntoIter$LT$T$C$A$GT$$u20$as$u20$core..ops..drop..Drop$GT$..drop..DropGuard$LT$$LP$alloc..string..String$C$alloc..vec..Vec$LT$u32$GT$$RP$$C$alloc..alloc..Global$GT$$GT$17h51ee7d7dcbd78470E', symObjAddr: 0x3470, symBinAddr: 0x5272C, symSize: 0x24 }
  - { offset: 0xFD641, size: 0x8, addend: 0x0, symName: '__ZN4core3ptr37drop_in_place$LT$std..fs..ReadDir$GT$17h22cd1263d50e8f68E', symObjAddr: 0x3BD4, symBinAddr: 0x52750, symSize: 0x24 }
  - { offset: 0xFD670, size: 0x8, addend: 0x0, symName: '__ZN4core3ptr389drop_in_place$LT$alloc..vec..Vec$LT$$LP$alloc..string..String$C$alloc..vec..Vec$LT$$LP$alloc..string..String$C$trx_rs..trx_file..DataArrayInfo$RP$$GT$$RP$$GT$..extend_trusted$LT$core..iter..adapters..map..Map$LT$alloc..vec..into_iter..IntoIter$LT$$RF$str$GT$$C$trx_rs..any_trx_file..collect_dpg_group_entries$LT$f32$GT$..$u7b$$u7b$closure$u7d$$u7d$$GT$$GT$..$u7b$$u7b$closure$u7d$$u7d$$GT$17h0c2bde7ccbfe7b68E', symObjAddr: 0x3C1C, symBinAddr: 0x52774, symSize: 0x24 }
  - { offset: 0xFD69F, size: 0x8, addend: 0x0, symName: '__ZN4core3ptr389drop_in_place$LT$alloc..vec..Vec$LT$$LP$alloc..string..String$C$alloc..vec..Vec$LT$$LP$alloc..string..String$C$trx_rs..trx_file..DataArrayInfo$RP$$GT$$RP$$GT$..extend_trusted$LT$core..iter..adapters..map..Map$LT$alloc..vec..into_iter..IntoIter$LT$$RF$str$GT$$C$trx_rs..any_trx_file..collect_dpg_group_entries$LT$f64$GT$..$u7b$$u7b$closure$u7d$$u7d$$GT$$GT$..$u7b$$u7b$closure$u7d$$u7d$$GT$17hb62963d44c40fb27E', symObjAddr: 0x3C40, symBinAddr: 0x52798, symSize: 0x24 }
  - { offset: 0xFD6CE, size: 0x8, addend: 0x0, symName: '__ZN4core3ptr38drop_in_place$LT$std..fs..DirEntry$GT$17h7f289be2035c1ba9E', symObjAddr: 0x3C64, symBinAddr: 0x527BC, symSize: 0x24 }
  - { offset: 0xFD6FD, size: 0x8, addend: 0x0, symName: '__ZN4core3ptr39drop_in_place$LT$zip..read..ZipFile$GT$17h9049556bbf2c17e1E', symObjAddr: 0x3CAC, symBinAddr: 0x527E0, symSize: 0x88 }
  - { offset: 0xFD72C, size: 0x8, addend: 0x0, symName: '__ZN4core3ptr405drop_in_place$LT$alloc..vec..Vec$LT$$LP$alloc..string..String$C$alloc..vec..Vec$LT$$LP$alloc..string..String$C$trx_rs..trx_file..DataArrayInfo$RP$$GT$$RP$$GT$..extend_trusted$LT$core..iter..adapters..map..Map$LT$alloc..vec..into_iter..IntoIter$LT$$RF$str$GT$$C$trx_rs..any_trx_file..collect_dpg_group_entries$LT$half..binary16..f16$GT$..$u7b$$u7b$closure$u7d$$u7d$$GT$$GT$..$u7b$$u7b$closure$u7d$$u7d$$GT$17ha033ef02bb9346f4E', symObjAddr: 0x3D58, symBinAddr: 0x52868, symSize: 0x24 }
  - { offset: 0xFD75B, size: 0x8, addend: 0x0, symName: '__ZN4core3ptr43drop_in_place$LT$memchr..memmem..Finder$GT$17hfb92ef5c37c659cdE', symObjAddr: 0x3F08, symBinAddr: 0x5288C, symSize: 0x24 }
  - { offset: 0xFD78A, size: 0x8, addend: 0x0, symName: '__ZN4core3ptr43drop_in_place$LT$trx_rs..header..Header$GT$17h2a2810d46aa12969E', symObjAddr: 0x3F2C, symBinAddr: 0x528B0, symSize: 0x24 }
  - { offset: 0xFD7B9, size: 0x8, addend: 0x0, symName: '__ZN4core3ptr44drop_in_place$LT$trx_rs..error..TrxError$GT$17he49c7f30a5f5a6eeE', symObjAddr: 0x3F50, symBinAddr: 0x528D4, symSize: 0xF4 }
  - { offset: 0xFD7E8, size: 0x8, addend: 0x0, symName: '__ZN4core3ptr45drop_in_place$LT$zip..read..ZipFileReader$GT$17h9dea08af14c925b1E', symObjAddr: 0x4044, symBinAddr: 0x529C8, symSize: 0x48 }
  - { offset: 0xFD817, size: 0x8, addend: 0x0, symName: '__ZN4core3ptr46drop_in_place$LT$memchr..memmem..FinderRev$GT$17hb7c77319aa1dccfcE', symObjAddr: 0x40B0, symBinAddr: 0x52A10, symSize: 0x24 }
  - { offset: 0xFD846, size: 0x8, addend: 0x0, symName: '__ZN4core3ptr48drop_in_place$LT$std..sys..fs..unix..ReadDir$GT$17ha9782c58bf763aa7E', symObjAddr: 0x421C, symBinAddr: 0x52A34, symSize: 0x24 }
  - { offset: 0xFD875, size: 0x8, addend: 0x0, symName: '__ZN4core3ptr48drop_in_place$LT$trx_rs..trx_file..DataArray$GT$17hfee499614b92150fE', symObjAddr: 0x4240, symBinAddr: 0x52A58, symSize: 0x24 }
  - { offset: 0xFD8A4, size: 0x8, addend: 0x0, symName: '__ZN4core3ptr49drop_in_place$LT$std..sys..fs..unix..DirEntry$GT$17h54a10222b086513cE', symObjAddr: 0x432C, symBinAddr: 0x52A7C, symSize: 0x24 }
  - { offset: 0xFD8D3, size: 0x8, addend: 0x0, symName: '__ZN4core3ptr50drop_in_place$LT$alloc..borrow..Cow$LT$str$GT$$GT$17h29d2278a4cdbd6a2E', symObjAddr: 0x4350, symBinAddr: 0x52AA0, symSize: 0x48 }
  - { offset: 0xFD902, size: 0x8, addend: 0x0, symName: '__ZN4core3ptr51drop_in_place$LT$alloc..vec..Vec$LT$$RF$str$GT$$GT$17hdea46d0b6d5329d2E', symObjAddr: 0x44DC, symBinAddr: 0x52AE8, symSize: 0x5C }
  - { offset: 0xFD931, size: 0x8, addend: 0x0, symName: '__ZN4core3ptr51drop_in_place$LT$zip..read..zip_archive..Shared$GT$17h8001c66559ec2c9bE', symObjAddr: 0x4624, symBinAddr: 0x52B44, symSize: 0x94 }
  - { offset: 0xFD960, size: 0x8, addend: 0x0, symName: '__ZN4core3ptr53drop_in_place$LT$trx_rs..any_trx_file..AnyTrxFile$GT$17hb2203a959c500edbE', symObjAddr: 0x4724, symBinAddr: 0x52BD8, symSize: 0x74 }
  - { offset: 0xFD98F, size: 0x8, addend: 0x0, symName: '__ZN4core3ptr53drop_in_place$LT$zip..read..magic_finder..Forward$GT$17hc735ab293223b4abE', symObjAddr: 0x4798, symBinAddr: 0x52C4C, symSize: 0x24 }
  - { offset: 0xFD9BE, size: 0x8, addend: 0x0, symName: '__ZN4core3ptr54drop_in_place$LT$trx_rs..io..filename..TrxFilename$GT$17ha14ce249c7793e3aE', symObjAddr: 0x484C, symBinAddr: 0x52C70, symSize: 0x24 }
  - { offset: 0xFD9ED, size: 0x8, addend: 0x0, symName: '__ZN4core3ptr54drop_in_place$LT$trx_rs..mmap_backing..MmapBacking$GT$17h27b5cb24bbae6ea2E', symObjAddr: 0x4870, symBinAddr: 0x52C94, symSize: 0x88 }
  - { offset: 0xFDA1C, size: 0x8, addend: 0x0, symName: '__ZN4core3ptr55drop_in_place$LT$zip..read..magic_finder..Backwards$GT$17hdf17cfb79371bdc0E', symObjAddr: 0x491C, symBinAddr: 0x52D1C, symSize: 0x24 }
  - { offset: 0xFDA4B, size: 0x8, addend: 0x0, symName: '__ZN4core3ptr55drop_in_place$LT$zip..spec..CentralDirectoryEndInfo$GT$17h23c963378faaca33E', symObjAddr: 0x4940, symBinAddr: 0x52D40, symSize: 0x60 }
  - { offset: 0xFDA7A, size: 0x8, addend: 0x0, symName: '__ZN4core3ptr56drop_in_place$LT$zip..spec..Zip32CentralDirectoryEnd$GT$17hd3ba408c8ee40ec8E', symObjAddr: 0x4A0C, symBinAddr: 0x52DA0, symSize: 0x24 }
  - { offset: 0xFDAA9, size: 0x8, addend: 0x0, symName: '__ZN4core3ptr56drop_in_place$LT$zip..spec..Zip64CentralDirectoryEnd$GT$17h5996997c755a5c52E', symObjAddr: 0x4A30, symBinAddr: 0x52DC4, symSize: 0x24 }
  - { offset: 0xFDAD8, size: 0x8, addend: 0x0, symName: '__ZN4core3ptr57drop_in_place$LT$serde_json..value..ser..SerializeVec$GT$17h36b70a776ad08377E', symObjAddr: 0x4A54, symBinAddr: 0x52DE8, symSize: 0x24 }
  - { offset: 0xFDB07, size: 0x8, addend: 0x0, symName: '__ZN4core3ptr57drop_in_place$LT$trx_rs..trx_file..TrxFile$LT$f32$GT$$GT$17h4a4294afe437f54cE', symObjAddr: 0x4A78, symBinAddr: 0x52E0C, symSize: 0x17C }
  - { offset: 0xFDB36, size: 0x8, addend: 0x0, symName: '__ZN4core3ptr57drop_in_place$LT$trx_rs..trx_file..TrxFile$LT$f64$GT$$GT$17h095cdfc20d45dba0E', symObjAddr: 0x4BF4, symBinAddr: 0x52F88, symSize: 0x17C }
  - { offset: 0xFDB65, size: 0x8, addend: 0x0, symName: '__ZN4core3ptr58drop_in_place$LT$alloc..raw_vec..RawVec$LT$$RF$str$GT$$GT$17hdfa0b7a23e1a365aE', symObjAddr: 0x4D70, symBinAddr: 0x53104, symSize: 0x24 }
  - { offset: 0xFDB94, size: 0x8, addend: 0x0, symName: '__ZN4core3ptr58drop_in_place$LT$zip..read..zip_archive..SharedBuilder$GT$17hef10247ebd47cc26E', symObjAddr: 0x4D94, symBinAddr: 0x53128, symSize: 0x24 }
  - { offset: 0xFDBC3, size: 0x8, addend: 0x0, symName: '__ZN4core3ptr601drop_in_place$LT$core..iter..traits..iterator..Iterator..for_each..call$LT$$LP$alloc..string..String$C$alloc..vec..Vec$LT$$LP$alloc..string..String$C$trx_rs..trx_file..DataArrayInfo$RP$$GT$$RP$$C$alloc..vec..Vec$LT$$LP$alloc..string..String$C$alloc..vec..Vec$LT$$LP$alloc..string..String$C$trx_rs..trx_file..DataArrayInfo$RP$$GT$$RP$$GT$..extend_trusted$LT$core..iter..adapters..map..Map$LT$alloc..vec..into_iter..IntoIter$LT$$RF$str$GT$$C$trx_rs..any_trx_file..collect_dpg_group_entries$LT$f32$GT$..$u7b$$u7b$closure$u7d$$u7d$$GT$$GT$..$u7b$$u7b$closure$u7d$$u7d$$GT$..$u7b$$u7b$closure$u7d$$u7d$$GT$17h75b8b34cea4eaec2E', symObjAddr: 0x4E6C, symBinAddr: 0x5314C, symSize: 0x24 }
  - { offset: 0xFDBF2, size: 0x8, addend: 0x0, symName: '__ZN4core3ptr601drop_in_place$LT$core..iter..traits..iterator..Iterator..for_each..call$LT$$LP$alloc..string..String$C$alloc..vec..Vec$LT$$LP$alloc..string..String$C$trx_rs..trx_file..DataArrayInfo$RP$$GT$$RP$$C$alloc..vec..Vec$LT$$LP$alloc..string..String$C$alloc..vec..Vec$LT$$LP$alloc..string..String$C$trx_rs..trx_file..DataArrayInfo$RP$$GT$$RP$$GT$..extend_trusted$LT$core..iter..adapters..map..Map$LT$alloc..vec..into_iter..IntoIter$LT$$RF$str$GT$$C$trx_rs..any_trx_file..collect_dpg_group_entries$LT$f64$GT$..$u7b$$u7b$closure$u7d$$u7d$$GT$$GT$..$u7b$$u7b$closure$u7d$$u7d$$GT$..$u7b$$u7b$closure$u7d$$u7d$$GT$17he6afa6a078d3727cE', symObjAddr: 0x4E90, symBinAddr: 0x53170, symSize: 0x24 }
  - { offset: 0xFDC21, size: 0x8, addend: 0x0, symName: '__ZN4core3ptr617drop_in_place$LT$core..iter..traits..iterator..Iterator..for_each..call$LT$$LP$alloc..string..String$C$alloc..vec..Vec$LT$$LP$alloc..string..String$C$trx_rs..trx_file..DataArrayInfo$RP$$GT$$RP$$C$alloc..vec..Vec$LT$$LP$alloc..string..String$C$alloc..vec..Vec$LT$$LP$alloc..string..String$C$trx_rs..trx_file..DataArrayInfo$RP$$GT$$RP$$GT$..extend_trusted$LT$core..iter..adapters..map..Map$LT$alloc..vec..into_iter..IntoIter$LT$$RF$str$GT$$C$trx_rs..any_trx_file..collect_dpg_group_entries$LT$half..binary16..f16$GT$..$u7b$$u7b$closure$u7d$$u7d$$GT$$GT$..$u7b$$u7b$closure$u7d$$u7d$$GT$..$u7b$$u7b$closure$u7d$$u7d$$GT$17h99f3648625931847E', symObjAddr: 0x4EFC, symBinAddr: 0x53194, symSize: 0x24 }
  - { offset: 0xFDC50, size: 0x8, addend: 0x0, symName: '__ZN4core3ptr67drop_in_place$LT$alloc..vec..into_iter..IntoIter$LT$$RF$str$GT$$GT$17ha43fb8e565a3c584E', symObjAddr: 0x5218, symBinAddr: 0x531B8, symSize: 0x24 }
  - { offset: 0xFDC7F, size: 0x8, addend: 0x0, symName: '__ZN4core3ptr70drop_in_place$LT$alloc..borrow..Cow$LT$zip..types..ZipFileData$GT$$GT$17h85cbb1566187a090E', symObjAddr: 0x5448, symBinAddr: 0x531DC, symSize: 0x44 }
  - { offset: 0xFDCAE, size: 0x8, addend: 0x0, symName: '__ZN4core3ptr70drop_in_place$LT$core..option..Option$LT$zip..result..ZipError$GT$$GT$17h98f3501da0fe4952E', symObjAddr: 0x54B0, symBinAddr: 0x53220, symSize: 0x44 }
  - { offset: 0xFDCDD, size: 0x8, addend: 0x0, symName: '__ZN4core3ptr71drop_in_place$LT$core..array..iter..IntoIter$LT$bool$C$32_usize$GT$$GT$17h3161d2e3c617347eE', symObjAddr: 0x5690, symBinAddr: 0x53264, symSize: 0x24 }
  - { offset: 0xFDD0C, size: 0x8, addend: 0x0, symName: '__ZN4core3ptr71drop_in_place$LT$core..option..Option$LT$tempfile..dir..TempDir$GT$$GT$17h542150bc8f7b75b6E', symObjAddr: 0x56B4, symBinAddr: 0x53288, symSize: 0x44 }
  - { offset: 0xFDD3B, size: 0x8, addend: 0x0, symName: '__ZN4core3ptr73drop_in_place$LT$trx_rs..trx_file..TrxFile$LT$half..binary16..f16$GT$$GT$17h52798f1b6297c609E', symObjAddr: 0x5784, symBinAddr: 0x532CC, symSize: 0x17C }
  - { offset: 0xFDD6A, size: 0x8, addend: 0x0, symName: '__ZN4core3ptr75drop_in_place$LT$alloc..sync..Arc$LT$zip..read..zip_archive..Shared$GT$$GT$17h45578aff9e56a709E', symObjAddr: 0x5A34, symBinAddr: 0x53448, symSize: 0x24 }
  - { offset: 0xFDD99, size: 0x8, addend: 0x0, symName: '__ZN4core3ptr76drop_in_place$LT$core..option..Option$LT$trx_rs..trx_file..DataArray$GT$$GT$17hdad81cb4d8e2ea3bE', symObjAddr: 0x5C2C, symBinAddr: 0x5346C, symSize: 0x4C }
  - { offset: 0xFDDC8, size: 0x8, addend: 0x0, symName: '__ZN4core3ptr76drop_in_place$LT$zip..read..zip_archive..ZipArchive$LT$std..fs..File$GT$$GT$17h709e986ffec613cdE', symObjAddr: 0x5C9C, symBinAddr: 0x534B8, symSize: 0x5C }
  - { offset: 0xFDDF7, size: 0x8, addend: 0x0, symName: '__ZN4core3ptr77drop_in_place$LT$alloc..sync..Arc$LT$std..sys..fs..unix..InnerReadDir$GT$$GT$17hc410e61746e39c5aE', symObjAddr: 0x5CF8, symBinAddr: 0x53514, symSize: 0x24 }
  - { offset: 0xFDE26, size: 0x8, addend: 0x0, symName: '__ZN4core3ptr79drop_in_place$LT$$LP$alloc..string..String$C$alloc..vec..Vec$LT$u32$GT$$RP$$GT$17hecf77655f564ffd1E', symObjAddr: 0x5DE0, symBinAddr: 0x53538, symSize: 0x60 }
  - { offset: 0xFDE55, size: 0x8, addend: 0x0, symName: '__ZN4core3ptr80drop_in_place$LT$$LP$alloc..string..String$C$trx_rs..trx_file..DataArray$RP$$GT$17hbc2957b0dc37dae6E', symObjAddr: 0x5E9C, symBinAddr: 0x53598, symSize: 0x60 }
  - { offset: 0xFDE84, size: 0x8, addend: 0x0, symName: '__ZN4core3ptr80drop_in_place$LT$alloc..sync..ArcInner$LT$zip..read..zip_archive..Shared$GT$$GT$17hc0a95ae188d3747aE', symObjAddr: 0x5EFC, symBinAddr: 0x535F8, symSize: 0x24 }
  - { offset: 0xFDEB3, size: 0x8, addend: 0x0, symName: '__ZN4core3ptr84drop_in_place$LT$$LP$alloc..string..String$C$trx_rs..trx_file..DataArrayInfo$RP$$GT$17h66ea20f300e2d8baE', symObjAddr: 0x5FD0, symBinAddr: 0x5361C, symSize: 0x24 }
  - { offset: 0xFDEE2, size: 0x8, addend: 0x0, symName: '__ZN4core3ptr89drop_in_place$LT$$u5b$$LP$alloc..string..String$C$alloc..vec..Vec$LT$u32$GT$$RP$$u5d$$GT$17h637cef66c7a1e945E', symObjAddr: 0x6264, symBinAddr: 0x53640, symSize: 0xC4 }
  - { offset: 0xFDF11, size: 0x8, addend: 0x0, symName: '__ZN4core3ptr905drop_in_place$LT$core..iter..adapters..map..map_fold$LT$$RF$str$C$$LP$alloc..string..String$C$alloc..vec..Vec$LT$$LP$alloc..string..String$C$trx_rs..trx_file..DataArrayInfo$RP$$GT$$RP$$C$$LP$$RP$$C$trx_rs..any_trx_file..collect_dpg_group_entries$LT$f32$GT$..$u7b$$u7b$closure$u7d$$u7d$$C$core..iter..traits..iterator..Iterator..for_each..call$LT$$LP$alloc..string..String$C$alloc..vec..Vec$LT$$LP$alloc..string..String$C$trx_rs..trx_file..DataArrayInfo$RP$$GT$$RP$$C$alloc..vec..Vec$LT$$LP$alloc..string..String$C$alloc..vec..Vec$LT$$LP$alloc..string..String$C$trx_rs..trx_file..DataArrayInfo$RP$$GT$$RP$$GT$..extend_trusted$LT$core..iter..adapters..map..Map$LT$alloc..vec..into_iter..IntoIter$LT$$RF$str$GT$$C$trx_rs..any_trx_file..collect_dpg_group_entries$LT$f32$GT$..$u7b$$u7b$closure$u7d$$u7d$$GT$$GT$..$u7b$$u7b$closure$u7d$$u7d$$GT$..$u7b$$u7b$closure$u7d$$u7d$$GT$..$u7b$$u7b$closure$u7d$$u7d$$GT$17h763a4deb66d902d4E', symObjAddr: 0x6328, symBinAddr: 0x53704, symSize: 0x24 }
  - { offset: 0xFDF40, size: 0x8, addend: 0x0, symName: '__ZN4core3ptr905drop_in_place$LT$core..iter..adapters..map..map_fold$LT$$RF$str$C$$LP$alloc..string..String$C$alloc..vec..Vec$LT$$LP$alloc..string..String$C$trx_rs..trx_file..DataArrayInfo$RP$$GT$$RP$$C$$LP$$RP$$C$trx_rs..any_trx_file..collect_dpg_group_entries$LT$f64$GT$..$u7b$$u7b$closure$u7d$$u7d$$C$core..iter..traits..iterator..Iterator..for_each..call$LT$$LP$alloc..string..String$C$alloc..vec..Vec$LT$$LP$alloc..string..String$C$trx_rs..trx_file..DataArrayInfo$RP$$GT$$RP$$C$alloc..vec..Vec$LT$$LP$alloc..string..String$C$alloc..vec..Vec$LT$$LP$alloc..string..String$C$trx_rs..trx_file..DataArrayInfo$RP$$GT$$RP$$GT$..extend_trusted$LT$core..iter..adapters..map..Map$LT$alloc..vec..into_iter..IntoIter$LT$$RF$str$GT$$C$trx_rs..any_trx_file..collect_dpg_group_entries$LT$f64$GT$..$u7b$$u7b$closure$u7d$$u7d$$GT$$GT$..$u7b$$u7b$closure$u7d$$u7d$$GT$..$u7b$$u7b$closure$u7d$$u7d$$GT$..$u7b$$u7b$closure$u7d$$u7d$$GT$17hfacc43aa55723012E', symObjAddr: 0x634C, symBinAddr: 0x53728, symSize: 0x24 }
  - { offset: 0xFDF6F, size: 0x8, addend: 0x0, symName: '__ZN4core3ptr90drop_in_place$LT$core..result..Result$LT$std..fs..Metadata$C$std..io..error..Error$GT$$GT$17h760db480b85f95d8E', symObjAddr: 0x639C, symBinAddr: 0x5374C, symSize: 0x40 }
  - { offset: 0xFDF9E, size: 0x8, addend: 0x0, symName: '__ZN4core3ptr90drop_in_place$LT$zip..spec..DataAndPosition$LT$zip..spec..Zip32CentralDirectoryEnd$GT$$GT$17h4d1ea293c0fb0475E', symObjAddr: 0x6400, symBinAddr: 0x5378C, symSize: 0x24 }
  - { offset: 0xFDFCD, size: 0x8, addend: 0x0, symName: '__ZN4core3ptr90drop_in_place$LT$zip..spec..DataAndPosition$LT$zip..spec..Zip64CentralDirectoryEnd$GT$$GT$17h449dbda1ca139b03E', symObjAddr: 0x6424, symBinAddr: 0x537B0, symSize: 0x24 }
  - { offset: 0xFDFFC, size: 0x8, addend: 0x0, symName: '__ZN4core3ptr937drop_in_place$LT$core..iter..adapters..map..map_fold$LT$$RF$str$C$$LP$alloc..string..String$C$alloc..vec..Vec$LT$$LP$alloc..string..String$C$trx_rs..trx_file..DataArrayInfo$RP$$GT$$RP$$C$$LP$$RP$$C$trx_rs..any_trx_file..collect_dpg_group_entries$LT$half..binary16..f16$GT$..$u7b$$u7b$closure$u7d$$u7d$$C$core..iter..traits..iterator..Iterator..for_each..call$LT$$LP$alloc..string..String$C$alloc..vec..Vec$LT$$LP$alloc..string..String$C$trx_rs..trx_file..DataArrayInfo$RP$$GT$$RP$$C$alloc..vec..Vec$LT$$LP$alloc..string..String$C$alloc..vec..Vec$LT$$LP$alloc..string..String$C$trx_rs..trx_file..DataArrayInfo$RP$$GT$$RP$$GT$..extend_trusted$LT$core..iter..adapters..map..Map$LT$alloc..vec..into_iter..IntoIter$LT$$RF$str$GT$$C$trx_rs..any_trx_file..collect_dpg_group_entries$LT$half..binary16..f16$GT$..$u7b$$u7b$closure$u7d$$u7d$$GT$$GT$..$u7b$$u7b$closure$u7d$$u7d$$GT$..$u7b$$u7b$closure$u7d$$u7d$$GT$..$u7b$$u7b$closure$u7d$$u7d$$GT$17hf6cd0942e71a218fE', symObjAddr: 0x6534, symBinAddr: 0x537D4, symSize: 0x24 }
  - { offset: 0xFE02B, size: 0x8, addend: 0x0, symName: '__ZN4core3ptr94drop_in_place$LT$$u5b$$LP$alloc..string..String$C$trx_rs..trx_file..DataArrayInfo$RP$$u5d$$GT$17hd564e2d81892df86E', symObjAddr: 0x657C, symBinAddr: 0x537F8, symSize: 0xC4 }
  - { offset: 0xFE05A, size: 0x8, addend: 0x0, symName: '__ZN4core3ptr95drop_in_place$LT$core..result..Result$LT$trx_rs..dtype..DType$C$trx_rs..error..TrxError$GT$$GT$17hdb1151bfef0b5474E', symObjAddr: 0x6640, symBinAddr: 0x538BC, symSize: 0x44 }
  - { offset: 0xFE089, size: 0x8, addend: 0x0, symName: '__ZN4core3ptr97drop_in_place$LT$zip..read..magic_finder..MagicFinder$LT$zip..read..magic_finder..Forward$GT$$GT$17hdb8eaa43cbaa26b3E', symObjAddr: 0x66F0, symBinAddr: 0x53900, symSize: 0x64 }
  - { offset: 0xFE0B8, size: 0x8, addend: 0x0, symName: '__ZN4core3ptr98drop_in_place$LT$core..result..Result$LT$trx_rs..header..Header$C$serde_json..error..Error$GT$$GT$17hb1146d008037b296E', symObjAddr: 0x6778, symBinAddr: 0x53964, symSize: 0x58 }
  - { offset: 0xFE0E7, size: 0x8, addend: 0x0, symName: '__ZN4core3ptr99drop_in_place$LT$zip..read..magic_finder..MagicFinder$LT$zip..read..magic_finder..Backwards$GT$$GT$17he5ce1644849072abE', symObjAddr: 0x67D0, symBinAddr: 0x539BC, symSize: 0x5C }
  - { offset: 0xFF312, size: 0x8, addend: 0x0, symName: __ZN4core3ops8function5FnMut8call_mut17h52ab81f8f2abc544E, symObjAddr: 0x7FC, symBinAddr: 0x51524, symSize: 0x28 }
  - { offset: 0xFF35C, size: 0x8, addend: 0x0, symName: '__ZN4core3ops8function6FnOnce40call_once$u7b$$u7b$vtable.shim$u7d$$u7d$17h2f80b16e7003dbe8E', symObjAddr: 0x8C4, symBinAddr: 0x5154C, symSize: 0x38 }
  - { offset: 0xFF3A0, size: 0x8, addend: 0x0, symName: '__ZN4core3ops8function6FnOnce40call_once$u7b$$u7b$vtable.shim$u7d$$u7d$17h3cacf09e590fae4dE', symObjAddr: 0x92C, symBinAddr: 0x51584, symSize: 0x38 }
  - { offset: 0xFF3E4, size: 0x8, addend: 0x0, symName: '__ZN4core3ops8function6FnOnce40call_once$u7b$$u7b$vtable.shim$u7d$$u7d$17h3cf824c47f6c4e15E', symObjAddr: 0x964, symBinAddr: 0x515BC, symSize: 0x38 }
  - { offset: 0xFF428, size: 0x8, addend: 0x0, symName: '__ZN4core3ops8function6FnOnce40call_once$u7b$$u7b$vtable.shim$u7d$$u7d$17h42e359c1f7ad0140E', symObjAddr: 0x99C, symBinAddr: 0x515F4, symSize: 0x38 }
  - { offset: 0xFF46C, size: 0x8, addend: 0x0, symName: '__ZN4core3ops8function6FnOnce40call_once$u7b$$u7b$vtable.shim$u7d$$u7d$17h6b4c8c8e26df2faeE', symObjAddr: 0xB10, symBinAddr: 0x5162C, symSize: 0x38 }
  - { offset: 0xFF4B0, size: 0x8, addend: 0x0, symName: '__ZN4core3ops8function6FnOnce40call_once$u7b$$u7b$vtable.shim$u7d$$u7d$17hc9e149fe89f83c3eE', symObjAddr: 0xD40, symBinAddr: 0x51664, symSize: 0x38 }
  - { offset: 0xFF4F4, size: 0x8, addend: 0x0, symName: '__ZN4core3ops8function6FnOnce40call_once$u7b$$u7b$vtable.shim$u7d$$u7d$17he9a022a71b99d585E', symObjAddr: 0xDE8, symBinAddr: 0x5169C, symSize: 0x30 }
  - { offset: 0xFF534, size: 0x8, addend: 0x0, symName: '__ZN4core3ops8function6FnOnce40call_once$u7b$$u7b$vtable.shim$u7d$$u7d$17heb8be2a34dfb9b0cE', symObjAddr: 0xE18, symBinAddr: 0x516CC, symSize: 0x38 }
  - { offset: 0xFF578, size: 0x8, addend: 0x0, symName: '__ZN4core3ops8function6FnOnce40call_once$u7b$$u7b$vtable.shim$u7d$$u7d$17hf8b517c12d51f4acE', symObjAddr: 0xED8, symBinAddr: 0x51704, symSize: 0x38 }
  - { offset: 0xFF5BC, size: 0x8, addend: 0x0, symName: __ZN4core3ops8function6FnOnce9call_once17h0a06a9c1c5364b95E, symObjAddr: 0xF6C, symBinAddr: 0x5173C, symSize: 0x44 }
  - { offset: 0xFF5FC, size: 0x8, addend: 0x0, symName: __ZN4core3ops8function6FnOnce9call_once17h192c534dea17cd47E, symObjAddr: 0x10DC, symBinAddr: 0x51780, symSize: 0x34 }
  - { offset: 0xFF640, size: 0x8, addend: 0x0, symName: __ZN4core3ops8function6FnOnce9call_once17h212bf19d85073fecE, symObjAddr: 0x1168, symBinAddr: 0x517B4, symSize: 0x24 }
  - { offset: 0xFF684, size: 0x8, addend: 0x0, symName: __ZN4core3ops8function6FnOnce9call_once17h30f4ad26fab78605E, symObjAddr: 0x1208, symBinAddr: 0x517D8, symSize: 0x58 }
  - { offset: 0xFF6C8, size: 0x8, addend: 0x0, symName: __ZN4core3ops8function6FnOnce9call_once17h48332f9a14d130f7E, symObjAddr: 0x13EC, symBinAddr: 0x51830, symSize: 0x58 }
  - { offset: 0xFF70C, size: 0x8, addend: 0x0, symName: __ZN4core3ops8function6FnOnce9call_once17h4fe1d5333d28333fE, symObjAddr: 0x1488, symBinAddr: 0x51888, symSize: 0x24 }
  - { offset: 0xFF750, size: 0x8, addend: 0x0, symName: __ZN4core3ops8function6FnOnce9call_once17h6884e04c4cf20c6dE, symObjAddr: 0x15A8, symBinAddr: 0x518AC, symSize: 0x24 }
  - { offset: 0xFF794, size: 0x8, addend: 0x0, symName: __ZN4core3ops8function6FnOnce9call_once17h6d5f4ebefc8fcd65E, symObjAddr: 0x15CC, symBinAddr: 0x518D0, symSize: 0x1C }
  - { offset: 0xFF7D8, size: 0x8, addend: 0x0, symName: __ZN4core3ops8function6FnOnce9call_once17h6ec1d79a4f745258E, symObjAddr: 0x15E8, symBinAddr: 0x518EC, symSize: 0x58 }
  - { offset: 0xFF81C, size: 0x8, addend: 0x0, symName: __ZN4core3ops8function6FnOnce9call_once17h925becfbd18880b1E, symObjAddr: 0x1770, symBinAddr: 0x51944, symSize: 0x4C }
  - { offset: 0xFF85C, size: 0x8, addend: 0x0, symName: __ZN4core3ops8function6FnOnce9call_once17haf6a180eab66a9eeE, symObjAddr: 0x18D4, symBinAddr: 0x51990, symSize: 0x44 }
  - { offset: 0xFF89C, size: 0x8, addend: 0x0, symName: __ZN4core3ops8function6FnOnce9call_once17hb1eef319c48b93eeE, symObjAddr: 0x1918, symBinAddr: 0x519D4, symSize: 0x24 }
  - { offset: 0xFF8E0, size: 0x8, addend: 0x0, symName: __ZN4core3ops8function6FnOnce9call_once17hb3629591580add22E, symObjAddr: 0x193C, symBinAddr: 0x519F8, symSize: 0x58 }
  - { offset: 0xFF924, size: 0x8, addend: 0x0, symName: __ZN4core3ops8function6FnOnce9call_once17hb418d8f9cf77068fE, symObjAddr: 0x1994, symBinAddr: 0x51A50, symSize: 0x24 }
  - { offset: 0xFF968, size: 0x8, addend: 0x0, symName: __ZN4core3ops8function6FnOnce9call_once17hb68d4e74decb6a75E, symObjAddr: 0x1A14, symBinAddr: 0x51A74, symSize: 0x34 }
  - { offset: 0xFF9AC, size: 0x8, addend: 0x0, symName: __ZN4core3ops8function6FnOnce9call_once17hbde7a4ff3a10eb9cE, symObjAddr: 0x1A48, symBinAddr: 0x51AA8, symSize: 0x5C }
  - { offset: 0xFF9F0, size: 0x8, addend: 0x0, symName: __ZN4core3ops8function6FnOnce9call_once17hce0fb5e5b1b1b0d3E, symObjAddr: 0x1B6C, symBinAddr: 0x51B04, symSize: 0x34 }
  - { offset: 0xFFA34, size: 0x8, addend: 0x0, symName: __ZN4core3ops8function6FnOnce9call_once17hd449632cced1dc1dE, symObjAddr: 0x1BA0, symBinAddr: 0x51B38, symSize: 0x44 }
  - { offset: 0xFFA74, size: 0x8, addend: 0x0, symName: __ZN4core3ops8function6FnOnce9call_once17he2f49a58616513c3E, symObjAddr: 0x1C28, symBinAddr: 0x51B7C, symSize: 0x58 }
  - { offset: 0xFFAB8, size: 0x8, addend: 0x0, symName: __ZN4core3ops8function6FnOnce9call_once17heef62e6d84a8afd7E, symObjAddr: 0x1D34, symBinAddr: 0x51BD4, symSize: 0x5C }
  - { offset: 0xFFAFC, size: 0x8, addend: 0x0, symName: __ZN4core3ops8function6FnOnce9call_once17hf14efa885972690dE, symObjAddr: 0x1D90, symBinAddr: 0x51C30, symSize: 0x5C }
  - { offset: 0xFFB40, size: 0x8, addend: 0x0, symName: __ZN4core3ops8function6FnOnce9call_once17hf2cffe603baeee99E, symObjAddr: 0x1DEC, symBinAddr: 0x51C8C, symSize: 0x4C }
  - { offset: 0xFFC43, size: 0x8, addend: 0x0, symName: '__ZN82_$LT$core..array..iter..IntoIter$LT$T$C$_$GT$$u20$as$u20$core..ops..drop..Drop$GT$4drop17hdd0e83eee25e17d3E', symObjAddr: 0x7900, symBinAddr: 0x53F10, symSize: 0x14 }
  - { offset: 0x10160E, size: 0x8, addend: 0x0, symName: '__ZN77_$LT$alloc..raw_vec..RawVec$LT$T$C$A$GT$$u20$as$u20$core..ops..drop..Drop$GT$4drop17h1220334731332655E', symObjAddr: 0x7190, symBinAddr: 0x53D58, symSize: 0x34 }
  - { offset: 0x10164A, size: 0x8, addend: 0x0, symName: '__ZN77_$LT$alloc..raw_vec..RawVec$LT$T$C$A$GT$$u20$as$u20$core..ops..drop..Drop$GT$4drop17h25db2aa7ffbcdbb8E', symObjAddr: 0x71C4, symBinAddr: 0x53D8C, symSize: 0x34 }
  - { offset: 0x101686, size: 0x8, addend: 0x0, symName: '__ZN77_$LT$alloc..raw_vec..RawVec$LT$T$C$A$GT$$u20$as$u20$core..ops..drop..Drop$GT$4drop17h68a69a6394e88e5cE', symObjAddr: 0x735C, symBinAddr: 0x53DC0, symSize: 0x34 }
  - { offset: 0x1016C2, size: 0x8, addend: 0x0, symName: '__ZN77_$LT$alloc..raw_vec..RawVec$LT$T$C$A$GT$$u20$as$u20$core..ops..drop..Drop$GT$4drop17h68aa88745fefb950E', symObjAddr: 0x7390, symBinAddr: 0x53DF4, symSize: 0x34 }
  - { offset: 0x1016FE, size: 0x8, addend: 0x0, symName: '__ZN77_$LT$alloc..raw_vec..RawVec$LT$T$C$A$GT$$u20$as$u20$core..ops..drop..Drop$GT$4drop17ha97f0e3f9cec5a33E', symObjAddr: 0x73F8, symBinAddr: 0x53E28, symSize: 0x34 }
  - { offset: 0x1018ED, size: 0x8, addend: 0x0, symName: '__ZN157_$LT$$LT$alloc..vec..into_iter..IntoIter$LT$T$C$A$GT$$u20$as$u20$core..ops..drop..Drop$GT$..drop..DropGuard$LT$T$C$A$GT$$u20$as$u20$core..ops..drop..Drop$GT$4drop17h405bd5413e425e50E', symObjAddr: 0x334, symBinAddr: 0x5144C, symSize: 0x6C }
  - { offset: 0x101A30, size: 0x8, addend: 0x0, symName: '__ZN157_$LT$$LT$alloc..vec..into_iter..IntoIter$LT$T$C$A$GT$$u20$as$u20$core..ops..drop..Drop$GT$..drop..DropGuard$LT$T$C$A$GT$$u20$as$u20$core..ops..drop..Drop$GT$4drop17h671d5116fdec1df3E', symObjAddr: 0x3A0, symBinAddr: 0x514B8, symSize: 0x6C }
  - { offset: 0x101BC3, size: 0x8, addend: 0x0, symName: '__ZN86_$LT$alloc..vec..into_iter..IntoIter$LT$T$C$A$GT$$u20$as$u20$core..ops..drop..Drop$GT$4drop17h2f345d23d9e1735cE', symObjAddr: 0x7A84, symBinAddr: 0x53F24, symSize: 0x78 }
  - { offset: 0x101C15, size: 0x8, addend: 0x0, symName: '__ZN86_$LT$alloc..vec..into_iter..IntoIter$LT$T$C$A$GT$$u20$as$u20$core..ops..drop..Drop$GT$4drop17haccd10cbf306166bE', symObjAddr: 0x7B74, symBinAddr: 0x53F9C, symSize: 0x64 }
  - { offset: 0x101DEB, size: 0x8, addend: 0x0, symName: '__ZN70_$LT$alloc..vec..Vec$LT$T$C$A$GT$$u20$as$u20$core..ops..drop..Drop$GT$4drop17h46768dd27d56dde9E', symObjAddr: 0x6A0C, symBinAddr: 0x53A18, symSize: 0x24 }
  - { offset: 0x101E9B, size: 0x8, addend: 0x0, symName: '__ZN70_$LT$alloc..vec..Vec$LT$T$C$A$GT$$u20$as$u20$core..ops..drop..Drop$GT$4drop17hc9f86602ab6a2f8eE', symObjAddr: 0x6A78, symBinAddr: 0x53A3C, symSize: 0x38 }
  - { offset: 0x101F4B, size: 0x8, addend: 0x0, symName: '__ZN70_$LT$alloc..vec..Vec$LT$T$C$A$GT$$u20$as$u20$core..ops..drop..Drop$GT$4drop17hd15d6516c01ef648E', symObjAddr: 0x6AD4, symBinAddr: 0x53A74, symSize: 0x38 }
  - { offset: 0x101FFB, size: 0x8, addend: 0x0, symName: '__ZN70_$LT$alloc..vec..Vec$LT$T$C$A$GT$$u20$as$u20$core..ops..drop..Drop$GT$4drop17he4b805d34155c8a7E', symObjAddr: 0x6B54, symBinAddr: 0x53AAC, symSize: 0x38 }
  - { offset: 0x1020AB, size: 0x8, addend: 0x0, symName: '__ZN70_$LT$alloc..vec..Vec$LT$T$C$A$GT$$u20$as$u20$core..ops..drop..Drop$GT$4drop17hf2d2498c556cee4aE', symObjAddr: 0x6B8C, symBinAddr: 0x53AE4, symSize: 0x38 }
  - { offset: 0x1027DF, size: 0x8, addend: 0x0, symName: '__ZN71_$LT$alloc..sync..Arc$LT$T$C$A$GT$$u20$as$u20$core..ops..drop..Drop$GT$4drop17h764b43f523b41764E', symObjAddr: 0x6BE8, symBinAddr: 0x53B1C, symSize: 0x7C }
  - { offset: 0x1028B8, size: 0x8, addend: 0x0, symName: '__ZN71_$LT$alloc..sync..Arc$LT$T$C$A$GT$$u20$as$u20$core..ops..drop..Drop$GT$4drop17hb88b073b964957f4E', symObjAddr: 0x6C64, symBinAddr: 0x53B98, symSize: 0x7C }
  - { offset: 0x102AB0, size: 0x8, addend: 0x0, symName: '__ZN72_$LT$alloc..sync..Weak$LT$T$C$A$GT$$u20$as$u20$core..ops..drop..Drop$GT$4drop17h75e95db156fe5123E', symObjAddr: 0x6FB4, symBinAddr: 0x53C14, symSize: 0x144 }
  - { offset: 0x103FE5, size: 0x8, addend: 0x0, symName: '__ZN79_$LT$hashbrown..raw..RawTable$LT$T$C$A$GT$$u20$as$u20$core..ops..drop..Drop$GT$4drop17h131d139614a31817E', symObjAddr: 0x770C, symBinAddr: 0x53E5C, symSize: 0x3C }
  - { offset: 0x104021, size: 0x8, addend: 0x0, symName: '__ZN79_$LT$hashbrown..raw..RawTable$LT$T$C$A$GT$$u20$as$u20$core..ops..drop..Drop$GT$4drop17h6af720b855d2eea0E', symObjAddr: 0x7784, symBinAddr: 0x53E98, symSize: 0x3C }
  - { offset: 0x10405D, size: 0x8, addend: 0x0, symName: '__ZN79_$LT$hashbrown..raw..RawTable$LT$T$C$A$GT$$u20$as$u20$core..ops..drop..Drop$GT$4drop17hf2153fc4f1241ae0E', symObjAddr: 0x7874, symBinAddr: 0x53ED4, symSize: 0x3C }
  - { offset: 0x104306, size: 0x8, addend: 0x0, symName: '__ZN88_$LT$hashbrown..scopeguard..ScopeGuard$LT$T$C$F$GT$$u20$as$u20$core..ops..drop..Drop$GT$4drop17h20d69f404c8cab60E', symObjAddr: 0x7CA0, symBinAddr: 0x54000, symSize: 0x2C }
  - { offset: 0x104340, size: 0x8, addend: 0x0, symName: '__ZN88_$LT$hashbrown..scopeguard..ScopeGuard$LT$T$C$F$GT$$u20$as$u20$core..ops..drop..Drop$GT$4drop17hb384b284ce7d691dE', symObjAddr: 0x7CF8, symBinAddr: 0x5402C, symSize: 0x2C }
  - { offset: 0x106736, size: 0x8, addend: 0x0, symName: '__ZN81_$LT$core..str..iter..Chars$u20$as$u20$core..iter..traits..iterator..Iterator$GT$10advance_by17h470efefbfe6e5b8aE', symObjAddr: 0xA4, symBinAddr: 0x54058, symSize: 0x6E0 }
  - { offset: 0x1072FF, size: 0x8, addend: 0x0, symName: '__ZN81_$LT$core..str..iter..Chars$u20$as$u20$core..iter..traits..iterator..Iterator$GT$4next17hc6f6e6e6d1b8a863E', symObjAddr: 0x784, symBinAddr: 0x54738, symSize: 0x80 }
  - { offset: 0x107D0C, size: 0x8, addend: 0x0, symName: '__ZN57_$LT$zip..spec..Magic$u20$as$u20$core..cmp..PartialEq$GT$2eq17hfc8fe04cdb45f7dfE', symObjAddr: 0x0, symBinAddr: 0x547B8, symSize: 0x2C }
  - { offset: 0x107D28, size: 0x8, addend: 0x0, symName: '__ZN57_$LT$zip..spec..Magic$u20$as$u20$core..cmp..PartialEq$GT$2eq17hfc8fe04cdb45f7dfE', symObjAddr: 0x0, symBinAddr: 0x547B8, symSize: 0x2C }
  - { offset: 0x107DB3, size: 0x8, addend: 0x0, symName: '__ZN4core3str6traits108_$LT$impl$u20$core..slice..index..SliceIndex$LT$str$GT$$u20$for$u20$core..ops..range..Range$LT$usize$GT$$GT$13get_unchecked18precondition_check17h9091d2ae29a2b0c0E', symObjAddr: 0x0, symBinAddr: 0x547E4, symSize: 0x80 }
  - { offset: 0x107DD9, size: 0x8, addend: 0x0, symName: '__ZN4core3str6traits108_$LT$impl$u20$core..slice..index..SliceIndex$LT$str$GT$$u20$for$u20$core..ops..range..Range$LT$usize$GT$$GT$13get_unchecked18precondition_check17h9091d2ae29a2b0c0E', symObjAddr: 0x0, symBinAddr: 0x547E4, symSize: 0x80 }
  - { offset: 0x107E41, size: 0x8, addend: 0x0, symName: '__ZN4core3str6traits54_$LT$impl$u20$core..cmp..PartialEq$u20$for$u20$str$GT$2eq17h6aec8e5fee042cb9E', symObjAddr: 0x80, symBinAddr: 0x54864, symSize: 0x4C }
  - { offset: 0x1082B7, size: 0x8, addend: 0x0, symName: __ZN6trx_rs12mmap_backing12vec_to_bytes17h779bc4b150cb9851E, symObjAddr: 0x1F4, symBinAddr: 0x548D8, symSize: 0x8C }
  - { offset: 0x1084F2, size: 0x8, addend: 0x0, symName: __ZN6trx_rs12mmap_backing11MmapBacking10cast_slice17h11dbd1caea25b33eE, symObjAddr: 0x28, symBinAddr: 0x548B0, symSize: 0x28 }
  - { offset: 0x10869E, size: 0x8, addend: 0x0, symName: '__ZN105_$LT$std..ffi..os_str..OsString$u20$as$u20$core..ops..index..Index$LT$core..ops..range..RangeFull$GT$$GT$5index17h46c1b45ef56d6a8bE', symObjAddr: 0x0, symBinAddr: 0x54964, symSize: 0x20 }
  - { offset: 0x108C99, size: 0x8, addend: 0x0, symName: '__ZN105_$LT$std..ffi..os_str..OsString$u20$as$u20$core..ops..index..Index$LT$core..ops..range..RangeFull$GT$$GT$5index17h46c1b45ef56d6a8bE', symObjAddr: 0x0, symBinAddr: 0x54964, symSize: 0x20 }
  - { offset: 0x108D9B, size: 0x8, addend: 0x0, symName: '__ZN70_$LT$std..ffi..os_str..OsString$u20$as$u20$core..ops..deref..Deref$GT$5deref17h25c3b5e9e03a1319E', symObjAddr: 0xBC, symBinAddr: 0x54A20, symSize: 0x2C }
  - { offset: 0x108E7B, size: 0x8, addend: 0x0, symName: __ZN3std3ffi6os_str5OsStr15to_string_lossy17h7f9e26a828e93713E, symObjAddr: 0x20, symBinAddr: 0x54984, symSize: 0x24 }
  - { offset: 0x108F02, size: 0x8, addend: 0x0, symName: __ZN3std3ffi6os_str5OsStr6to_str17h8879dab8bd7f571cE, symObjAddr: 0x44, symBinAddr: 0x549A8, symSize: 0x78 }
  - { offset: 0x10924F, size: 0x8, addend: 0x0, symName: '__ZN42_$LT$$RF$T$u20$as$u20$core..fmt..Debug$GT$3fmt17hef9f312cf462d62dE', symObjAddr: 0x17C, symBinAddr: 0x54ACC, symSize: 0x30 }
  - { offset: 0x1093D6, size: 0x8, addend: 0x0, symName: __ZN3std4path4Path4join17hf6248d2332d023ccE, symObjAddr: 0x7C, symBinAddr: 0x54A4C, symSize: 0x80 }
  - { offset: 0x1094FB, size: 0x8, addend: 0x0, symName: '__ZN3std4sync4once4Once15call_once_force28_$u7b$$u7b$closure$u7d$$u7d$17h37375723a966fdb7E', symObjAddr: 0x2DC, symBinAddr: 0x54BF0, symSize: 0x94 }
  - { offset: 0x109BF7, size: 0x8, addend: 0x0, symName: __ZN3std4sync4once4Once15call_once_force17hc4512954ab84575eE, symObjAddr: 0xF4, symBinAddr: 0x54AFC, symSize: 0xF4 }
  - { offset: 0x109D73, size: 0x8, addend: 0x0, symName: '__ZN75_$LT$usize$u20$as$u20$core..slice..index..SliceIndex$LT$$u5b$T$u5d$$GT$$GT$13get_unchecked18precondition_check17h47ba1672d8ee6ed4E', symObjAddr: 0x100, symBinAddr: 0x54C84, symSize: 0x60 }
  - { offset: 0x109E1E, size: 0x8, addend: 0x0, symName: __ZN3zip4spec14FixedSizeBlock5parse17h53d02fe51b3198ffE, symObjAddr: 0x0, symBinAddr: 0x54CE4, symSize: 0x1D4 }
  - { offset: 0x10A326, size: 0x8, addend: 0x0, symName: __ZN3zip4spec14FixedSizeBlock5parse17h53d02fe51b3198ffE, symObjAddr: 0x0, symBinAddr: 0x54CE4, symSize: 0x1D4 }
  - { offset: 0x10A3E9, size: 0x8, addend: 0x0, symName: __ZN3zip4spec14FixedSizeBlock5parse17hd7a7df7afa439695E, symObjAddr: 0x1D4, symBinAddr: 0x54EB8, symSize: 0x228 }
  - { offset: 0x10A4B4, size: 0x8, addend: 0x0, symName: __ZN3zip4spec3Pod12as_bytes_mut17h430aac4d1f377b81E, symObjAddr: 0x6E0, symBinAddr: 0x550E0, symSize: 0x34 }
  - { offset: 0x10A4E9, size: 0x8, addend: 0x0, symName: __ZN3zip4spec3Pod12as_bytes_mut17hff161e0054ec9c5dE, symObjAddr: 0x714, symBinAddr: 0x55114, symSize: 0x34 }
  - { offset: 0x10A51E, size: 0x8, addend: 0x0, symName: __ZN3zip4spec3Pod6zeroed17h45c22917ce3d5067E, symObjAddr: 0x748, symBinAddr: 0x55148, symSize: 0xA8 }
  - { offset: 0x10A66C, size: 0x8, addend: 0x0, symName: __ZN3zip4spec3Pod6zeroed17h586852d6e641161bE, symObjAddr: 0x7F0, symBinAddr: 0x551F0, symSize: 0xA8 }
  - { offset: 0x10B121, size: 0x8, addend: 0x0, symName: '__ZN109_$LT$serde_core..de..impls..ArrayVisitor$LT$$u5b$T$u3b$$u20$3$u5d$$GT$$u20$as$u20$serde_core..de..Visitor$GT$9expecting17h8fa83d40aa814553E', symObjAddr: 0x0, symBinAddr: 0x55298, symSize: 0x40 }
  - { offset: 0x10B20B, size: 0x8, addend: 0x0, symName: '__ZN158_$LT$serde_core..de..impls..$LT$impl$u20$serde_core..de..Deserialize$u20$for$u20$u64$GT$..deserialize..PrimitiveVisitor$u20$as$u20$serde_core..de..Visitor$GT$9visit_i6417h22334172cf712569E', symObjAddr: 0x1048, symBinAddr: 0x562E0, symSize: 0x84 }
  - { offset: 0x10B27B, size: 0x8, addend: 0x0, symName: '__ZN158_$LT$serde_core..de..impls..$LT$impl$u20$serde_core..de..Deserialize$u20$for$u20$u64$GT$..deserialize..PrimitiveVisitor$u20$as$u20$serde_core..de..Visitor$GT$9visit_u6417hfdb165809c11bc75E', symObjAddr: 0x10CC, symBinAddr: 0x56364, symSize: 0x18 }
  - { offset: 0x10B2CB, size: 0x8, addend: 0x0, symName: '__ZN10serde_core2de5impls61_$LT$impl$u20$serde_core..de..Deserialize$u20$for$u20$u64$GT$11deserialize17h2dbad821b41ec351E', symObjAddr: 0xC84, symBinAddr: 0x55F1C, symSize: 0x28 }
  - { offset: 0x10B300, size: 0x8, addend: 0x0, symName: '__ZN10serde_core2de5impls61_$LT$impl$u20$serde_core..de..Deserialize$u20$for$u20$u64$GT$11deserialize17hbc4828dd8ef53020E', symObjAddr: 0xCAC, symBinAddr: 0x55F44, symSize: 0x24 }
  - { offset: 0x10B343, size: 0x8, addend: 0x0, symName: '__ZN109_$LT$serde_core..de..impls..ArrayVisitor$LT$$u5b$T$u3b$$u20$3$u5d$$GT$$u20$as$u20$serde_core..de..Visitor$GT$9expecting17h8fa83d40aa814553E', symObjAddr: 0x0, symBinAddr: 0x55298, symSize: 0x40 }
  - { offset: 0x10B389, size: 0x8, addend: 0x0, symName: '__ZN109_$LT$serde_core..de..impls..ArrayVisitor$LT$$u5b$T$u3b$$u20$3$u5d$$GT$$u20$as$u20$serde_core..de..Visitor$GT$9visit_seq17h2f01201ff539e77dE', symObjAddr: 0x40, symBinAddr: 0x552D8, symSize: 0x2F8 }
  - { offset: 0x10B443, size: 0x8, addend: 0x0, symName: '__ZN109_$LT$serde_core..de..impls..ArrayVisitor$LT$$u5b$T$u3b$$u20$4$u5d$$GT$$u20$as$u20$serde_core..de..Visitor$GT$9expecting17h7802ad95da6cd11cE', symObjAddr: 0x338, symBinAddr: 0x555D0, symSize: 0x40 }
  - { offset: 0x10B489, size: 0x8, addend: 0x0, symName: '__ZN109_$LT$serde_core..de..impls..ArrayVisitor$LT$$u5b$T$u3b$$u20$4$u5d$$GT$$u20$as$u20$serde_core..de..Visitor$GT$9expecting17he75a3f286c73dce1E', symObjAddr: 0x378, symBinAddr: 0x55610, symSize: 0x40 }
  - { offset: 0x10B4CF, size: 0x8, addend: 0x0, symName: '__ZN109_$LT$serde_core..de..impls..ArrayVisitor$LT$$u5b$T$u3b$$u20$4$u5d$$GT$$u20$as$u20$serde_core..de..Visitor$GT$9visit_seq17h6eae339d05ebf7d8E', symObjAddr: 0x3B8, symBinAddr: 0x55650, symSize: 0x4A0 }
  - { offset: 0x10B5FD, size: 0x8, addend: 0x0, symName: '__ZN109_$LT$serde_core..de..impls..ArrayVisitor$LT$$u5b$T$u3b$$u20$4$u5d$$GT$$u20$as$u20$serde_core..de..Visitor$GT$9visit_seq17h8c8ed3d9bc9cbf7fE', symObjAddr: 0x858, symBinAddr: 0x55AF0, symSize: 0x3FC }
  - { offset: 0x10B6D5, size: 0x8, addend: 0x0, symName: '__ZN10serde_core2de5impls61_$LT$impl$u20$serde_core..de..Deserialize$u20$for$u20$f64$GT$11deserialize17ha906f9b22c9ae093E', symObjAddr: 0xC60, symBinAddr: 0x55EF8, symSize: 0x24 }
  - { offset: 0x10B714, size: 0x8, addend: 0x0, symName: '__ZN158_$LT$serde_core..de..impls..$LT$impl$u20$serde_core..de..Deserialize$u20$for$u20$f64$GT$..deserialize..PrimitiveVisitor$u20$as$u20$serde_core..de..Visitor$GT$9visit_f6417h04f1b61eb7343cf9E', symObjAddr: 0xFF8, symBinAddr: 0x56290, symSize: 0x18 }
  - { offset: 0x10B762, size: 0x8, addend: 0x0, symName: '__ZN158_$LT$serde_core..de..impls..$LT$impl$u20$serde_core..de..Deserialize$u20$for$u20$f64$GT$..deserialize..PrimitiveVisitor$u20$as$u20$serde_core..de..Visitor$GT$9visit_i6417hc25ca0b23ca9b6d0E', symObjAddr: 0x1010, symBinAddr: 0x562A8, symSize: 0x1C }
  - { offset: 0x10B7B0, size: 0x8, addend: 0x0, symName: '__ZN158_$LT$serde_core..de..impls..$LT$impl$u20$serde_core..de..Deserialize$u20$for$u20$f64$GT$..deserialize..PrimitiveVisitor$u20$as$u20$serde_core..de..Visitor$GT$9visit_u6417h995b2f8a101619f4E', symObjAddr: 0x102C, symBinAddr: 0x562C4, symSize: 0x1C }
  - { offset: 0x10B80E, size: 0x8, addend: 0x0, symName: '__ZN10serde_core2de5impls80_$LT$impl$u20$serde_core..de..Deserialize$u20$for$u20$$u5b$T$u3b$$u20$3$u5d$$GT$11deserialize17h3e7e9b981704b827E', symObjAddr: 0xCD0, symBinAddr: 0x55F68, symSize: 0x8C }
  - { offset: 0x10B84E, size: 0x8, addend: 0x0, symName: '__ZN10serde_core2de5impls80_$LT$impl$u20$serde_core..de..Deserialize$u20$for$u20$$u5b$T$u3b$$u20$3$u5d$$GT$11deserialize17h4e74ca8a12ebfa8cE', symObjAddr: 0xD5C, symBinAddr: 0x55FF4, symSize: 0x80 }
  - { offset: 0x10B894, size: 0x8, addend: 0x0, symName: '__ZN10serde_core2de5impls80_$LT$impl$u20$serde_core..de..Deserialize$u20$for$u20$$u5b$T$u3b$$u20$4$u5d$$GT$11deserialize17h04189c799c9a8729E', symObjAddr: 0xDDC, symBinAddr: 0x56074, symSize: 0x80 }
  - { offset: 0x10B8D4, size: 0x8, addend: 0x0, symName: '__ZN10serde_core2de5impls80_$LT$impl$u20$serde_core..de..Deserialize$u20$for$u20$$u5b$T$u3b$$u20$4$u5d$$GT$11deserialize17h43131bfbf4860d84E', symObjAddr: 0xE5C, symBinAddr: 0x560F4, symSize: 0x8C }
  - { offset: 0x10B914, size: 0x8, addend: 0x0, symName: '__ZN10serde_core2de5impls80_$LT$impl$u20$serde_core..de..Deserialize$u20$for$u20$$u5b$T$u3b$$u20$4$u5d$$GT$11deserialize17h77aa081dfd2c9666E', symObjAddr: 0xEE8, symBinAddr: 0x56180, symSize: 0x80 }
  - { offset: 0x10B964, size: 0x8, addend: 0x0, symName: '__ZN219_$LT$serde_core..de..impls..$LT$impl$u20$serde_core..de..Deserialize$u20$for$u20$std..collections..hash..map..HashMap$LT$K$C$V$C$S$GT$$GT$..deserialize..MapVisitor$LT$K$C$V$C$S$GT$$u20$as$u20$serde_core..de..Visitor$GT$9visit_map17ha142925e8f6e2e52E', symObjAddr: 0x10E4, symBinAddr: 0x5637C, symSize: 0x1C4 }
  - { offset: 0x10BA68, size: 0x8, addend: 0x0, symName: '__ZN80_$LT$serde_core..de..impls..StringVisitor$u20$as$u20$serde_core..de..Visitor$GT$11visit_bytes17h5a9e2bbbc350b0f1E', symObjAddr: 0x13B0, symBinAddr: 0x56648, symSize: 0xB4 }
  - { offset: 0x10BADF, size: 0x8, addend: 0x0, symName: __ZN10serde_core2de7Visitor20visit_borrowed_bytes17h89f6b0e554a9c2dbE, symObjAddr: 0xF68, symBinAddr: 0x56200, symSize: 0x28 }
  - { offset: 0x10BB2E, size: 0x8, addend: 0x0, symName: __ZN10serde_core2de7Visitor9visit_f6417hf7b739ac9cb0a117E, symObjAddr: 0xF90, symBinAddr: 0x56228, symSize: 0x68 }
  - { offset: 0x10BB83, size: 0x8, addend: 0x0, symName: '__ZN46_$LT$T$u20$as$u20$serde_core..de..Expected$GT$3fmt17h56452636a99c3c7aE', symObjAddr: 0x12A8, symBinAddr: 0x56540, symSize: 0x2C }
  - { offset: 0x10BBC9, size: 0x8, addend: 0x0, symName: '__ZN46_$LT$T$u20$as$u20$serde_core..de..Expected$GT$3fmt17h7a53066956f56669E', symObjAddr: 0x12D4, symBinAddr: 0x5656C, symSize: 0x2C }
  - { offset: 0x10BC0F, size: 0x8, addend: 0x0, symName: '__ZN46_$LT$T$u20$as$u20$serde_core..de..Expected$GT$3fmt17hd9996daa5718eb7cE', symObjAddr: 0x1300, symBinAddr: 0x56598, symSize: 0x2C }
  - { offset: 0x10BC55, size: 0x8, addend: 0x0, symName: '__ZN46_$LT$T$u20$as$u20$serde_core..de..Expected$GT$3fmt17hdae4954bbd95c73aE', symObjAddr: 0x132C, symBinAddr: 0x565C4, symSize: 0x2C }
  - { offset: 0x10BC9B, size: 0x8, addend: 0x0, symName: '__ZN46_$LT$T$u20$as$u20$serde_core..de..Expected$GT$3fmt17he8200525ed24a1a8E', symObjAddr: 0x1358, symBinAddr: 0x565F0, symSize: 0x2C }
  - { offset: 0x10BCE1, size: 0x8, addend: 0x0, symName: '__ZN46_$LT$T$u20$as$u20$serde_core..de..Expected$GT$3fmt17hf13fb0b3b312ce49E', symObjAddr: 0x1384, symBinAddr: 0x5661C, symSize: 0x2C }
  - { offset: 0x10CD5B, size: 0x8, addend: 0x0, symName: '__ZN10serde_core2de5impls21ArrayVisitor$LT$A$GT$3new17h2581d93a79b3d4f9E', symObjAddr: 0xC54, symBinAddr: 0x55EEC, symSize: 0x4 }
  - { offset: 0x10CD78, size: 0x8, addend: 0x0, symName: '__ZN10serde_core2de5impls21ArrayVisitor$LT$A$GT$3new17h82718bc945713154E', symObjAddr: 0xC58, symBinAddr: 0x55EF0, symSize: 0x4 }
  - { offset: 0x10CD95, size: 0x8, addend: 0x0, symName: '__ZN10serde_core2de5impls21ArrayVisitor$LT$A$GT$3new17hbbd5900a35235a73E', symObjAddr: 0xC5C, symBinAddr: 0x55EF4, symSize: 0x4 }
  - { offset: 0x10DD38, size: 0x8, addend: 0x0, symName: '__ZN75_$LT$usize$u20$as$u20$core..slice..index..SliceIndex$LT$$u5b$T$u5d$$GT$$GT$3get17h3f80b585a665fdddE', symObjAddr: 0x274, symBinAddr: 0x566FC, symSize: 0x54 }
  - { offset: 0x10DD7B, size: 0x8, addend: 0x0, symName: '__ZN75_$LT$usize$u20$as$u20$core..slice..index..SliceIndex$LT$$u5b$T$u5d$$GT$$GT$5index17h80dfd90a6c8d658fE', symObjAddr: 0x51C, symBinAddr: 0x56750, symSize: 0x5C }
  - { offset: 0x10E676, size: 0x8, addend: 0x0, symName: '__ZN5alloc5boxed7convert115_$LT$impl$u20$core..convert..From$LT$alloc..borrow..Cow$LT$str$GT$$GT$$u20$for$u20$alloc..boxed..Box$LT$str$GT$$GT$4from17hac414426397018faE', symObjAddr: 0x0, symBinAddr: 0x567AC, symSize: 0x88 }
  - { offset: 0x10E6E6, size: 0x8, addend: 0x0, symName: '__ZN5alloc5boxed7convert115_$LT$impl$u20$core..convert..From$LT$alloc..borrow..Cow$LT$str$GT$$GT$$u20$for$u20$alloc..boxed..Box$LT$str$GT$$GT$4from17hac414426397018faE', symObjAddr: 0x0, symBinAddr: 0x567AC, symSize: 0x88 }
  - { offset: 0x10E9F4, size: 0x8, addend: 0x0, symName: '__ZN68_$LT$zip..read..config..Config$u20$as$u20$core..default..Default$GT$7default17had968a4aa1f47defE', symObjAddr: 0x0, symBinAddr: 0x56834, symSize: 0x14 }
  - { offset: 0x10EA15, size: 0x8, addend: 0x0, symName: '__ZN68_$LT$zip..read..config..Config$u20$as$u20$core..default..Default$GT$7default17had968a4aa1f47defE', symObjAddr: 0x0, symBinAddr: 0x56834, symSize: 0x14 }
  - { offset: 0x10EA38, size: 0x8, addend: 0x0, symName: '__ZN75_$LT$zip..read..config..ArchiveOffset$u20$as$u20$core..default..Default$GT$7default17h1f751e360a31309dE', symObjAddr: 0x14, symBinAddr: 0x56848, symSize: 0x8 }
  - { offset: 0x10EAF8, size: 0x8, addend: 0x0, symName: '__ZN5alloc7raw_vec19RawVec$LT$T$C$A$GT$8grow_one17h04341b9dcdc630edE', symObjAddr: 0x0, symBinAddr: 0x56850, symSize: 0x88 }
  - { offset: 0x10FBE9, size: 0x8, addend: 0x0, symName: '__ZN5alloc7raw_vec19RawVec$LT$T$C$A$GT$8grow_one17h04341b9dcdc630edE', symObjAddr: 0x0, symBinAddr: 0x56850, symSize: 0x88 }
  - { offset: 0x110041, size: 0x8, addend: 0x0, symName: '__ZN5alloc7raw_vec19RawVec$LT$T$C$A$GT$8grow_one17h39712b459d85b739E', symObjAddr: 0x198, symBinAddr: 0x568D8, symSize: 0x88 }
  - { offset: 0x1100F1, size: 0x8, addend: 0x0, symName: '__ZN5alloc7raw_vec19RawVec$LT$T$C$A$GT$8grow_one17h9527d361809390caE', symObjAddr: 0x32C, symBinAddr: 0x56960, symSize: 0x88 }
  - { offset: 0x1101A1, size: 0x8, addend: 0x0, symName: '__ZN5alloc7raw_vec19RawVec$LT$T$C$A$GT$8grow_one17hc2bde50f4ea5c4f7E', symObjAddr: 0x3B4, symBinAddr: 0x569E8, symSize: 0x88 }
  - { offset: 0x110251, size: 0x8, addend: 0x0, symName: '__ZN5alloc7raw_vec19RawVec$LT$T$C$A$GT$8grow_one17hc5a842ac0ad96059E', symObjAddr: 0x43C, symBinAddr: 0x56A70, symSize: 0x84 }
  - { offset: 0x1158C1, size: 0x8, addend: 0x0, symName: '__ZN111_$LT$alloc..vec..Vec$LT$T$GT$$u20$as$u20$alloc..vec..spec_from_iter_nested..SpecFromIterNested$LT$T$C$I$GT$$GT$9from_iter17h05c548386c378df2E', symObjAddr: 0x84, symBinAddr: 0x56AF4, symSize: 0x24C }
  - { offset: 0x115B20, size: 0x8, addend: 0x0, symName: '__ZN111_$LT$alloc..vec..Vec$LT$T$GT$$u20$as$u20$alloc..vec..spec_from_iter_nested..SpecFromIterNested$LT$T$C$I$GT$$GT$9from_iter17h120bb4bc06fe23ddE', symObjAddr: 0x514, symBinAddr: 0x56D40, symSize: 0x24C }
  - { offset: 0x115D7F, size: 0x8, addend: 0x0, symName: '__ZN111_$LT$alloc..vec..Vec$LT$T$GT$$u20$as$u20$alloc..vec..spec_from_iter_nested..SpecFromIterNested$LT$T$C$I$GT$$GT$9from_iter17h168e656b3cf4f154E', symObjAddr: 0x9AC, symBinAddr: 0x56F8C, symSize: 0x254 }
  - { offset: 0x115FDD, size: 0x8, addend: 0x0, symName: '__ZN111_$LT$alloc..vec..Vec$LT$T$GT$$u20$as$u20$alloc..vec..spec_from_iter_nested..SpecFromIterNested$LT$T$C$I$GT$$GT$9from_iter17h3006c7c4a0fc6c05E', symObjAddr: 0x1420, symBinAddr: 0x571E0, symSize: 0x254 }
  - { offset: 0x11623B, size: 0x8, addend: 0x0, symName: '__ZN111_$LT$alloc..vec..Vec$LT$T$GT$$u20$as$u20$alloc..vec..spec_from_iter_nested..SpecFromIterNested$LT$T$C$I$GT$$GT$9from_iter17h37249c5e5e652106E', symObjAddr: 0x1B58, symBinAddr: 0x5757C, symSize: 0x254 }
  - { offset: 0x116499, size: 0x8, addend: 0x0, symName: '__ZN111_$LT$alloc..vec..Vec$LT$T$GT$$u20$as$u20$alloc..vec..spec_from_iter_nested..SpecFromIterNested$LT$T$C$I$GT$$GT$9from_iter17h4159df0cec2daa39E', symObjAddr: 0x2490, symBinAddr: 0x577D0, symSize: 0x254 }
  - { offset: 0x1166F7, size: 0x8, addend: 0x0, symName: '__ZN111_$LT$alloc..vec..Vec$LT$T$GT$$u20$as$u20$alloc..vec..spec_from_iter_nested..SpecFromIterNested$LT$T$C$I$GT$$GT$9from_iter17h431808a3c8718dc0E', symObjAddr: 0x26E4, symBinAddr: 0x57A24, symSize: 0x254 }
  - { offset: 0x116955, size: 0x8, addend: 0x0, symName: '__ZN111_$LT$alloc..vec..Vec$LT$T$GT$$u20$as$u20$alloc..vec..spec_from_iter_nested..SpecFromIterNested$LT$T$C$I$GT$$GT$9from_iter17h4caa38e5b30fa274E', symObjAddr: 0x2B98, symBinAddr: 0x57C78, symSize: 0x254 }
  - { offset: 0x116BB3, size: 0x8, addend: 0x0, symName: '__ZN111_$LT$alloc..vec..Vec$LT$T$GT$$u20$as$u20$alloc..vec..spec_from_iter_nested..SpecFromIterNested$LT$T$C$I$GT$$GT$9from_iter17h5f23f7ca9e6548adE', symObjAddr: 0x33D8, symBinAddr: 0x58014, symSize: 0x24C }
  - { offset: 0x116E12, size: 0x8, addend: 0x0, symName: '__ZN111_$LT$alloc..vec..Vec$LT$T$GT$$u20$as$u20$alloc..vec..spec_from_iter_nested..SpecFromIterNested$LT$T$C$I$GT$$GT$9from_iter17h62d810720f6f71f8E', symObjAddr: 0x3624, symBinAddr: 0x58260, symSize: 0x254 }
  - { offset: 0x117070, size: 0x8, addend: 0x0, symName: '__ZN111_$LT$alloc..vec..Vec$LT$T$GT$$u20$as$u20$alloc..vec..spec_from_iter_nested..SpecFromIterNested$LT$T$C$I$GT$$GT$9from_iter17h6fc545a44f208e44E', symObjAddr: 0x3878, symBinAddr: 0x584B4, symSize: 0x24C }
  - { offset: 0x1172CF, size: 0x8, addend: 0x0, symName: '__ZN111_$LT$alloc..vec..Vec$LT$T$GT$$u20$as$u20$alloc..vec..spec_from_iter_nested..SpecFromIterNested$LT$T$C$I$GT$$GT$9from_iter17h78e093bd16532d1fE', symObjAddr: 0x3F6C, symBinAddr: 0x58700, symSize: 0x254 }
  - { offset: 0x11752D, size: 0x8, addend: 0x0, symName: '__ZN111_$LT$alloc..vec..Vec$LT$T$GT$$u20$as$u20$alloc..vec..spec_from_iter_nested..SpecFromIterNested$LT$T$C$I$GT$$GT$9from_iter17h80184c65f0838bc5E', symObjAddr: 0x41C0, symBinAddr: 0x58954, symSize: 0x254 }
  - { offset: 0x11778B, size: 0x8, addend: 0x0, symName: '__ZN111_$LT$alloc..vec..Vec$LT$T$GT$$u20$as$u20$alloc..vec..spec_from_iter_nested..SpecFromIterNested$LT$T$C$I$GT$$GT$9from_iter17had7259b1eef44a43E', symObjAddr: 0x5314, symBinAddr: 0x58CF0, symSize: 0x220 }
  - { offset: 0x1179EA, size: 0x8, addend: 0x0, symName: '__ZN111_$LT$alloc..vec..Vec$LT$T$GT$$u20$as$u20$alloc..vec..spec_from_iter_nested..SpecFromIterNested$LT$T$C$I$GT$$GT$9from_iter17hc62c3e3550e46c63E', symObjAddr: 0x59FC, symBinAddr: 0x58F10, symSize: 0x254 }
  - { offset: 0x117C48, size: 0x8, addend: 0x0, symName: '__ZN111_$LT$alloc..vec..Vec$LT$T$GT$$u20$as$u20$alloc..vec..spec_from_iter_nested..SpecFromIterNested$LT$T$C$I$GT$$GT$9from_iter17hd34459da7e261754E', symObjAddr: 0x5FE4, symBinAddr: 0x59164, symSize: 0x254 }
  - { offset: 0x117EA6, size: 0x8, addend: 0x0, symName: '__ZN111_$LT$alloc..vec..Vec$LT$T$GT$$u20$as$u20$alloc..vec..spec_from_iter_nested..SpecFromIterNested$LT$T$C$I$GT$$GT$9from_iter17hdc42c02fc341138dE', symObjAddr: 0x6368, symBinAddr: 0x593B8, symSize: 0x220 }
  - { offset: 0x118105, size: 0x8, addend: 0x0, symName: '__ZN111_$LT$alloc..vec..Vec$LT$T$GT$$u20$as$u20$alloc..vec..spec_from_iter_nested..SpecFromIterNested$LT$T$C$I$GT$$GT$9from_iter17hdd1c97afab6753efE', symObjAddr: 0x6588, symBinAddr: 0x595D8, symSize: 0x254 }
  - { offset: 0x118369, size: 0x8, addend: 0x0, symName: '__ZN111_$LT$alloc..vec..Vec$LT$T$GT$$u20$as$u20$alloc..vec..spec_from_iter_nested..SpecFromIterNested$LT$T$C$I$GT$$GT$9from_iter17h314bbfffdebffe25E', symObjAddr: 0x17A4, symBinAddr: 0x57434, symSize: 0x148 }
  - { offset: 0x11842B, size: 0x8, addend: 0x0, symName: '__ZN111_$LT$alloc..vec..Vec$LT$T$GT$$u20$as$u20$alloc..vec..spec_from_iter_nested..SpecFromIterNested$LT$T$C$I$GT$$GT$9from_iter17h4fd494596519a68dE', symObjAddr: 0x2DEC, symBinAddr: 0x57ECC, symSize: 0x148 }
  - { offset: 0x1184ED, size: 0x8, addend: 0x0, symName: '__ZN111_$LT$alloc..vec..Vec$LT$T$GT$$u20$as$u20$alloc..vec..spec_from_iter_nested..SpecFromIterNested$LT$T$C$I$GT$$GT$9from_iter17h8df10691ae6a215dE', symObjAddr: 0x49B0, symBinAddr: 0x58BA8, symSize: 0x148 }
  - { offset: 0x1195AE, size: 0x8, addend: 0x0, symName: '__ZN97_$LT$alloc..vec..Vec$LT$T$C$A$GT$$u20$as$u20$alloc..vec..spec_extend..SpecExtend$LT$T$C$I$GT$$GT$11spec_extend17haca81dd0d584d6ceE', symObjAddr: 0x119D4, symBinAddr: 0x5D018, symSize: 0x24 }
  - { offset: 0x119600, size: 0x8, addend: 0x0, symName: '__ZN97_$LT$alloc..vec..Vec$LT$T$C$A$GT$$u20$as$u20$alloc..vec..spec_extend..SpecExtend$LT$T$C$I$GT$$GT$11spec_extend17hc6a414f09c7c2378E', symObjAddr: 0x11A98, symBinAddr: 0x5D060, symSize: 0x24 }
  - { offset: 0x119652, size: 0x8, addend: 0x0, symName: '__ZN97_$LT$alloc..vec..Vec$LT$T$C$A$GT$$u20$as$u20$alloc..vec..spec_extend..SpecExtend$LT$T$C$I$GT$$GT$11spec_extend17hfd47dcf5de530b83E', symObjAddr: 0x11C50, symBinAddr: 0x5D0A8, symSize: 0x24 }
  - { offset: 0x1196AA, size: 0x8, addend: 0x0, symName: '__ZN97_$LT$alloc..vec..Vec$LT$T$C$A$GT$$u20$as$u20$alloc..vec..spec_extend..SpecExtend$LT$T$C$I$GT$$GT$11spec_extend17h15ac62a545ca652fE', symObjAddr: 0x112EC, symBinAddr: 0x5CDFC, symSize: 0x24 }
  - { offset: 0x1196FC, size: 0x8, addend: 0x0, symName: '__ZN97_$LT$alloc..vec..Vec$LT$T$C$A$GT$$u20$as$u20$alloc..vec..spec_extend..SpecExtend$LT$T$C$I$GT$$GT$11spec_extend17h1a1d5e99d246ac88E', symObjAddr: 0x11344, symBinAddr: 0x5CE20, symSize: 0x24 }
  - { offset: 0x11974E, size: 0x8, addend: 0x0, symName: '__ZN97_$LT$alloc..vec..Vec$LT$T$C$A$GT$$u20$as$u20$alloc..vec..spec_extend..SpecExtend$LT$T$C$I$GT$$GT$11spec_extend17h261466c3ef4c7d8aE', symObjAddr: 0x113D0, symBinAddr: 0x5CE44, symSize: 0x24 }
  - { offset: 0x1197A0, size: 0x8, addend: 0x0, symName: '__ZN97_$LT$alloc..vec..Vec$LT$T$C$A$GT$$u20$as$u20$alloc..vec..spec_extend..SpecExtend$LT$T$C$I$GT$$GT$11spec_extend17h2b10e447b64ad52cE', symObjAddr: 0x11428, symBinAddr: 0x5CE68, symSize: 0x24 }
  - { offset: 0x1197F2, size: 0x8, addend: 0x0, symName: '__ZN97_$LT$alloc..vec..Vec$LT$T$C$A$GT$$u20$as$u20$alloc..vec..spec_extend..SpecExtend$LT$T$C$I$GT$$GT$11spec_extend17h48680d29d409df9cE', symObjAddr: 0x11554, symBinAddr: 0x5CE8C, symSize: 0x24 }
  - { offset: 0x119844, size: 0x8, addend: 0x0, symName: '__ZN97_$LT$alloc..vec..Vec$LT$T$C$A$GT$$u20$as$u20$alloc..vec..spec_extend..SpecExtend$LT$T$C$I$GT$$GT$11spec_extend17h48a6a915aeeca762E', symObjAddr: 0x115AC, symBinAddr: 0x5CEB0, symSize: 0x24 }
  - { offset: 0x119896, size: 0x8, addend: 0x0, symName: '__ZN97_$LT$alloc..vec..Vec$LT$T$C$A$GT$$u20$as$u20$alloc..vec..spec_extend..SpecExtend$LT$T$C$I$GT$$GT$11spec_extend17h5a547c983014197bE', symObjAddr: 0x11604, symBinAddr: 0x5CED4, symSize: 0x24 }
  - { offset: 0x1198E8, size: 0x8, addend: 0x0, symName: '__ZN97_$LT$alloc..vec..Vec$LT$T$C$A$GT$$u20$as$u20$alloc..vec..spec_extend..SpecExtend$LT$T$C$I$GT$$GT$11spec_extend17h652181ed87a46a69E', symObjAddr: 0x1165C, symBinAddr: 0x5CEF8, symSize: 0x24 }
  - { offset: 0x11993A, size: 0x8, addend: 0x0, symName: '__ZN97_$LT$alloc..vec..Vec$LT$T$C$A$GT$$u20$as$u20$alloc..vec..spec_extend..SpecExtend$LT$T$C$I$GT$$GT$11spec_extend17h68f94be26ebda461E', symObjAddr: 0x116D8, symBinAddr: 0x5CF1C, symSize: 0x24 }
  - { offset: 0x11998C, size: 0x8, addend: 0x0, symName: '__ZN97_$LT$alloc..vec..Vec$LT$T$C$A$GT$$u20$as$u20$alloc..vec..spec_extend..SpecExtend$LT$T$C$I$GT$$GT$11spec_extend17h763d15b686d2231dE', symObjAddr: 0x11720, symBinAddr: 0x5CF40, symSize: 0x24 }
  - { offset: 0x1199DE, size: 0x8, addend: 0x0, symName: '__ZN97_$LT$alloc..vec..Vec$LT$T$C$A$GT$$u20$as$u20$alloc..vec..spec_extend..SpecExtend$LT$T$C$I$GT$$GT$11spec_extend17h78d7cee2be4e1236E', symObjAddr: 0x11768, symBinAddr: 0x5CF64, symSize: 0x24 }
  - { offset: 0x119A30, size: 0x8, addend: 0x0, symName: '__ZN97_$LT$alloc..vec..Vec$LT$T$C$A$GT$$u20$as$u20$alloc..vec..spec_extend..SpecExtend$LT$T$C$I$GT$$GT$11spec_extend17h7d0b564ee065dc44E', symObjAddr: 0x117E4, symBinAddr: 0x5CF88, symSize: 0x24 }
  - { offset: 0x119A82, size: 0x8, addend: 0x0, symName: '__ZN97_$LT$alloc..vec..Vec$LT$T$C$A$GT$$u20$as$u20$alloc..vec..spec_extend..SpecExtend$LT$T$C$I$GT$$GT$11spec_extend17h96ebd85100cd01f9E', symObjAddr: 0x118B8, symBinAddr: 0x5CFAC, symSize: 0x24 }
  - { offset: 0x119AD4, size: 0x8, addend: 0x0, symName: '__ZN97_$LT$alloc..vec..Vec$LT$T$C$A$GT$$u20$as$u20$alloc..vec..spec_extend..SpecExtend$LT$T$C$I$GT$$GT$11spec_extend17h9b92ebe7ef52e38bE', symObjAddr: 0x118DC, symBinAddr: 0x5CFD0, symSize: 0x24 }
  - { offset: 0x119B26, size: 0x8, addend: 0x0, symName: '__ZN97_$LT$alloc..vec..Vec$LT$T$C$A$GT$$u20$as$u20$alloc..vec..spec_extend..SpecExtend$LT$T$C$I$GT$$GT$11spec_extend17ha11f2dacc2a91e8eE', symObjAddr: 0x119B0, symBinAddr: 0x5CFF4, symSize: 0x24 }
  - { offset: 0x119B78, size: 0x8, addend: 0x0, symName: '__ZN97_$LT$alloc..vec..Vec$LT$T$C$A$GT$$u20$as$u20$alloc..vec..spec_extend..SpecExtend$LT$T$C$I$GT$$GT$11spec_extend17hbda6a24e68eeff62E', symObjAddr: 0x11A50, symBinAddr: 0x5D03C, symSize: 0x24 }
  - { offset: 0x119BCA, size: 0x8, addend: 0x0, symName: '__ZN97_$LT$alloc..vec..Vec$LT$T$C$A$GT$$u20$as$u20$alloc..vec..spec_extend..SpecExtend$LT$T$C$I$GT$$GT$11spec_extend17hdd086c15af567a81E', symObjAddr: 0x11B48, symBinAddr: 0x5D084, symSize: 0x24 }
  - { offset: 0x119C1C, size: 0x8, addend: 0x0, symName: '__ZN97_$LT$alloc..vec..Vec$LT$T$C$A$GT$$u20$as$u20$alloc..vec..spec_extend..SpecExtend$LT$T$C$I$GT$$GT$11spec_extend17hff5fcf1cc4191b9aE', symObjAddr: 0x11C74, symBinAddr: 0x5D0CC, symSize: 0x24 }
  - { offset: 0x119D71, size: 0x8, addend: 0x0, symName: '__ZN72_$LT$alloc..vec..Vec$LT$T$C$A$GT$$u20$as$u20$core..ops..deref..Deref$GT$5deref17h5f7ff21efa3b8ef2E', symObjAddr: 0xFAB0, symBinAddr: 0x5C7FC, symSize: 0x20 }
  - { offset: 0x119EAA, size: 0x8, addend: 0x0, symName: '__ZN81_$LT$alloc..vec..Vec$LT$T$C$A$GT$$u20$as$u20$core..ops..index..Index$LT$I$GT$$GT$5index17h075abbaa5ae038f3E', symObjAddr: 0xFBF0, symBinAddr: 0x5C81C, symSize: 0x44 }
  - { offset: 0x119FCE, size: 0x8, addend: 0x0, symName: '__ZN5alloc3vec10partial_eq117_$LT$impl$u20$core..cmp..PartialEq$LT$alloc..vec..Vec$LT$U$C$A2$GT$$GT$$u20$for$u20$alloc..vec..Vec$LT$T$C$A1$GT$$GT$2eq17h58bd8936f8267d48E', symObjAddr: 0x6F88, symBinAddr: 0x5982C, symSize: 0x54 }
  - { offset: 0x11A754, size: 0x8, addend: 0x0, symName: '__ZN5alloc3vec16Vec$LT$T$C$A$GT$14extend_trusted28_$u7b$$u7b$closure$u7d$$u7d$17h424645d14600cf56E', symObjAddr: 0x9F9C, symBinAddr: 0x59D88, symSize: 0x54 }
  - { offset: 0x11A812, size: 0x8, addend: 0x0, symName: '__ZN5alloc3vec16Vec$LT$T$C$A$GT$14extend_trusted28_$u7b$$u7b$closure$u7d$$u7d$17h4f70c42bb27bc200E', symObjAddr: 0xA0EC, symBinAddr: 0x59DDC, symSize: 0x54 }
  - { offset: 0x11A8D0, size: 0x8, addend: 0x0, symName: '__ZN5alloc3vec16Vec$LT$T$C$A$GT$14extend_trusted28_$u7b$$u7b$closure$u7d$$u7d$17he082f99604fcb6a7E', symObjAddr: 0xA4F4, symBinAddr: 0x59E30, symSize: 0x54 }
  - { offset: 0x11A9EB, size: 0x8, addend: 0x0, symName: '__ZN5alloc3vec16in_place_collect108_$LT$impl$u20$alloc..vec..spec_from_iter..SpecFromIter$LT$T$C$I$GT$$u20$for$u20$alloc..vec..Vec$LT$T$GT$$GT$9from_iter17h235f1e85c20524ccE', symObjAddr: 0xF63C, symBinAddr: 0x5C784, symSize: 0x28 }
  - { offset: 0x11AA47, size: 0x8, addend: 0x0, symName: '__ZN5alloc3vec16in_place_collect108_$LT$impl$u20$alloc..vec..spec_from_iter..SpecFromIter$LT$T$C$I$GT$$u20$for$u20$alloc..vec..Vec$LT$T$GT$$GT$9from_iter17h300e1f36bff705acE', symObjAddr: 0xF664, symBinAddr: 0x5C7AC, symSize: 0x28 }
